 CourseworkBase2020

 Timestamp is 69f39dc2 (Thu Apr 30 19:21:54 2026)

 Preferred load address is 00400000

 Start         Length     Name                   Class
 0001:00000000 00006b00H .text$di                CODE
 0001:00006b00 00057e60H .text$mn                CODE
 0001:0005e960 00004750H .text$x                 CODE
 0001:000630b0 00001014H .text$yd                CODE
 0002:00000000 00000104H .CRT$XCA                DATA
 0002:00000104 00000104H .CRT$XCAA               DATA
 0002:00000208 00000104H .CRT$XCL                DATA
 0002:0000030c 00000104H .CRT$XCZ                DATA
 0002:00000410 00000104H .CRT$XIA                DATA
 0002:00000514 00000104H .CRT$XIAA               DATA
 0002:00000618 00000104H .CRT$XIAC               DATA
 0002:0000071c 00000104H .CRT$XIZ                DATA
 0002:00000820 00000104H .CRT$XPA                DATA
 0002:00000924 00000104H .CRT$XPZ                DATA
 0002:00000a28 00000104H .CRT$XTA                DATA
 0002:00000b2c 00000114H .CRT$XTZ                DATA
 0002:00000c40 00010bc0H .rdata                  DATA
 0002:00011800 00000180H .rdata$CastGuardVftablesA DATA
 0002:00011980 0000014cH .rdata$CastGuardVftablesC DATA
 0002:00011acc 0000208cH .rdata$r                DATA
 0002:00013b58 000004b8H .rdata$sxdata           DATA
 0002:00014010 000001d4H .rdata$zzzdbg           DATA
 0002:000141e4 00000104H .rtc$IAA                DATA
 0002:000142e8 00000104H .rtc$IZZ                DATA
 0002:000143ec 00000104H .rtc$TAA                DATA
 0002:000144f0 00000108H .rtc$TZZ                DATA
 0002:000145f8 00003155H .xdata$x                DATA
 0002:0001774d 00000000H .edata                  DATA
 0003:00000000 000001d4H .data                   DATA
 0003:000001d4 0000019cH .data$r                 DATA
 0003:00000370 00000e08H .data$rs                DATA
 0003:00001178 0000045cH .bss                    DATA
 0004:00000000 0000053cH .idata$5                DATA
 0004:0000053c 0000008cH .idata$2                DATA
 0004:000005c8 00000014H .idata$3                DATA
 0004:000005dc 0000053cH .idata$4                DATA
 0004:00000b18 000020abH .idata$6                DATA
 0005:00000000 0000010eH .00cfg                  DATA
 0006:00000000 00000170H .rsrc$01                DATA
 0006:00000170 000002ccH .rsrc$02                DATA

  Address         Publics by Value              Rva+Base       Lib:Object

 0000:00000000       ___AbsoluteZero            00000000     <absolute>
 0000:00000000       ___arm64x_extra_rfe_table  00000000     <absolute>
 0000:00000000       ___arm64x_extra_rfe_table_size 00000000     <absolute>
 0000:00000000       ___arm64x_native_entrypoint 00000000     <absolute>
 0000:00000000       ___arm64x_redirection_metadata 00000000     <absolute>
 0000:00000000       ___arm64x_redirection_metadata_count 00000000     <absolute>
 0000:00000000       ___dynamic_value_reloc_table 00000000     <absolute>
 0000:00000000       ___enclave_config          00000000     <absolute>
 0000:00000000       ___guard_check_icall_a64n_fptr 00000000     <absolute>
 0000:00000000       ___guard_eh_cont_count     00000000     <absolute>
 0000:00000000       ___guard_eh_cont_table     00000000     <absolute>
 0000:00000000       ___guard_fids_count        00000000     <absolute>
 0000:00000000       ___guard_fids_table        00000000     <absolute>
 0000:00000000       ___guard_iat_count         00000000     <absolute>
 0000:00000000       ___guard_iat_table         00000000     <absolute>
 0000:00000000       ___guard_longjmp_count     00000000     <absolute>
 0000:00000000       ___guard_longjmp_table     00000000     <absolute>
 0000:00000000       ___hybrid_auxiliary_delayload_iat 00000000     <absolute>
 0000:00000000       ___hybrid_auxiliary_delayload_iat_copy 00000000     <absolute>
 0000:00000000       ___hybrid_auxiliary_iat    00000000     <absolute>
 0000:00000000       ___hybrid_auxiliary_iat_copy 00000000     <absolute>
 0000:00000000       ___hybrid_code_map         00000000     <absolute>
 0000:00000000       ___hybrid_code_map_count   00000000     <absolute>
 0000:00000000       ___hybrid_image_info_bitfield 00000000     <absolute>
 0000:00000000       ___volatile_metadata       00000000     <absolute>
 0000:00000000       ___x64_code_ranges_to_entry_points 00000000     <absolute>
 0000:00000000       ___x64_code_ranges_to_entry_points_count 00000000     <absolute>
 0000:000000c6       ___safe_se_handler_count   000000c6     <absolute>
 0000:00000100       ___guard_flags             00000100     <absolute>
 0000:00000000       ___ImageBase               00400000     <linker-defined>
 0001:00006b00       ?virtDrawTileAt@BackgroundTileManager@@UBEXPAVBaseEngine@@PAVDrawingSurface@@HHHH@Z 00407b00 f   BackgroundTileManager.obj
 0001:00006ba0       ?__empty_global_delete@@YAXPAX@Z 00407ba0 f i BackgroundTileManager.obj
 0001:00006bb0       ?__empty_global_delete@@YAXPAXI@Z 00407bb0 f i BackgroundTileManager.obj
 0001:00006bb0       ?__global_delete@@YAXPAXI@Z 00407bb0 f i BackgroundTileManager.obj
 0001:00006bc0       ?getMapValue@TileManager@@QBEHHH@Z 00407bc0 f i BackgroundTileManager.obj
 0001:00006bf0       ??0BackgroundTileObject@@QAE@PAVGameEngine@@@Z 00407bf0 f   BackgroundTileObject.obj
 0001:00006f40       ?setBackground@BackgroundTileObject@@QAEXH@Z 00407f40 f   BackgroundTileObject.obj
 0001:00007400       ?virtDoUpdate@BackgroundTileObject@@UAEXH@Z 00408400 f   BackgroundTileObject.obj
 0001:000074c0       ?virtDraw@BackgroundTileObject@@UAEXXZ 004084c0 f   BackgroundTileObject.obj
 0001:00007530       ?CheckInput@BackgroundTileObject@@QAEXXZ 00408530 f   BackgroundTileObject.obj
 0001:000077b0       ?checkHitBoxBounds@BackgroundTileObject@@QAE_NHHHH@Z 004087b0 f   BackgroundTileObject.obj
 0001:00007800       ?checkCollision@BackgroundTileObject@@QAE_NHH@Z 00408800 f   BackgroundTileObject.obj
 0001:00007d40       ?checkMove@BackgroundTileObject@@QAE_NH@Z 00408d40 f   BackgroundTileObject.obj
 0001:00007f70       ?MoveTileGrid@BackgroundTileObject@@QAEXXZ 00408f70 f   BackgroundTileObject.obj
 0001:00007fe0       ?virtNotify@BackgroundTileObject@@UAEJHHH@Z 00408fe0 f   BackgroundTileObject.obj
 0001:00008020       ?redrawTiles@BackgroundTileObject@@QAEXXZ 00409020 f   BackgroundTileObject.obj
 0001:00008720       ??$?0$$V@?$_Compressed_pair@V?$allocator@D@std@@V?$_String_val@U?$_Simple_types@D@std@@@2@$00@std@@QAE@U_Zero_then_variadic_args_t@1@@Z 00409720 f i BackgroundTileObject.obj
 0001:00008750       ??$?0$$V@?$_Compressed_pair@V?$allocator@H@std@@V?$_Vector_val@U?$_Simple_types@H@std@@@2@$00@std@@QAE@U_Zero_then_variadic_args_t@1@@Z 00409750 f i BackgroundTileObject.obj
 0001:00008780       ??$?0$$V@?$_Compressed_pair@V?$allocator@U?$_Tree_node@U?$pair@$$CBV?$basic_string@DU?$char_traits@D@std@@V?$allocator@D@2@@std@@V?$shared_ptr@VRawImageData@@@2@@std@@PAX@std@@@std@@V?$_Tree_val@U?$_Tree_simple_types@U?$pair@$$CBV?$basic_string@DU?$char_traits@D@std@@V?$allocator@D@2@@std@@V?$shared_ptr@VRawImageData@@@2@@std@@@std@@@2@$00@std@@QAE@U_Zero_then_variadic_args_t@1@@Z 00409780 f i BackgroundTileObject.obj
 0001:000087b0       ??$?0$$V@?$_Compressed_pair@V?$allocator@U?$_Tree_node@U?$pair@$$CBV?$basic_string@DU?$char_traits@D@std@@V?$allocator@D@2@@std@@V?$weak_ptr@VRawImageData@@@2@@std@@PAX@std@@@std@@V?$_Tree_val@U?$_Tree_simple_types@U?$pair@$$CBV?$basic_string@DU?$char_traits@D@std@@V?$allocator@D@2@@std@@V?$weak_ptr@VRawImageData@@@2@@std@@@std@@@2@$00@std@@QAE@U_Zero_then_variadic_args_t@1@@Z 004097b0 f i BackgroundTileObject.obj
 0001:000087e0       ??$?0$$V@?$_Compressed_pair@V?$allocator@V?$vector@HV?$allocator@H@std@@@std@@@std@@V?$_Vector_val@U?$_Simple_types@V?$vector@HV?$allocator@H@std@@@std@@@std@@@2@$00@std@@QAE@U_Zero_then_variadic_args_t@1@@Z 004097e0 f i BackgroundTileObject.obj
 0001:00008810       ??$?0AAPAU?$_Tree_node@U?$pair@$$CBV?$basic_string@DU?$char_traits@D@std@@V?$allocator@D@2@@std@@V?$shared_ptr@VRawImageData@@@2@@std@@PAX@std@@_N$0A@@?$pair@PAU?$_Tree_node@U?$pair@$$CBV?$basic_string@DU?$char_traits@D@std@@V?$allocator@D@2@@std@@V?$shared_ptr@VRawImageData@@@2@@std@@PAX@std@@_N@std@@QAE@AAPAU?$_Tree_node@U?$pair@$$CBV?$basic_string@DU?$char_traits@D@std@@V?$allocator@D@2@@std@@V?$shared_ptr@VRawImageData@@@2@@std@@PAX@1@$$QA_N@Z 00409810 f i BackgroundTileObject.obj
 0001:00008860       ??$?0AAPAU?$_Tree_node@U?$pair@$$CBV?$basic_string@DU?$char_traits@D@std@@V?$allocator@D@2@@std@@V?$weak_ptr@VRawImageData@@@2@@std@@PAX@std@@_N$0A@@?$pair@PAU?$_Tree_node@U?$pair@$$CBV?$basic_string@DU?$char_traits@D@std@@V?$allocator@D@2@@std@@V?$weak_ptr@VRawImageData@@@2@@std@@PAX@std@@_N@std@@QAE@AAPAU?$_Tree_node@U?$pair@$$CBV?$basic_string@DU?$char_traits@D@std@@V?$allocator@D@2@@std@@V?$weak_ptr@VRawImageData@@@2@@std@@PAX@1@$$QA_N@Z 00409860 f i BackgroundTileObject.obj
 0001:000088b0       ??$?0AAPAV_Facet_base@std@@@?$_Compressed_pair@U?$default_delete@V_Facet_base@std@@@std@@PAV_Facet_base@2@$00@std@@QAE@U_Zero_then_variadic_args_t@1@AAPAV_Facet_base@1@@Z 004098b0 f i BackgroundTileObject.obj
 0001:000088e0       ??$?0AAV?$basic_string@DU?$char_traits@D@std@@V?$allocator@D@2@@std@@AAV?$shared_ptr@VRawImageData@@@1@$0A@@?$pair@V?$basic_string@DU?$char_traits@D@std@@V?$allocator@D@2@@std@@V?$shared_ptr@VRawImageData@@@2@@std@@QAE@AAV?$basic_string@DU?$char_traits@D@std@@V?$allocator@D@2@@1@AAV?$shared_ptr@VRawImageData@@@1@@Z 004098e0 f i BackgroundTileObject.obj
 0001:00008930       ??$?0AAV?$basic_string@DU?$char_traits@D@std@@V?$allocator@D@2@@std@@AAV?$weak_ptr@VRawImageData@@@1@$0A@@?$pair@V?$basic_string@DU?$char_traits@D@std@@V?$allocator@D@2@@std@@V?$weak_ptr@VRawImageData@@@2@@std@@QAE@AAV?$basic_string@DU?$char_traits@D@std@@V?$allocator@D@2@@1@AAV?$weak_ptr@VRawImageData@@@1@@Z 00409930 f i BackgroundTileObject.obj
 0001:00008980       ??$?0ABU?$less@V?$basic_string@DU?$char_traits@D@std@@V?$allocator@D@2@@std@@@std@@U_Zero_then_variadic_args_t@1@@?$_Compressed_pair@U?$less@V?$basic_string@DU?$char_traits@D@std@@V?$allocator@D@2@@std@@@std@@V?$_Compressed_pair@V?$allocator@U?$_Tree_node@U?$pair@$$CBV?$basic_string@DU?$char_traits@D@std@@V?$allocator@D@2@@std@@V?$shared_ptr@VRawImageData@@@2@@std@@PAX@std@@@std@@V?$_Tree_val@U?$_Tree_simple_types@U?$pair@$$CBV?$basic_string@DU?$char_traits@D@std@@V?$allocator@D@2@@std@@V?$shared_ptr@VRawImageData@@@2@@std@@@std@@@2@$00@2@$00@std@@QAE@U_One_then_variadic_args_t@1@ABU?$less@V?$basic_string@DU?$char_traits@D@std@@V?$allocator@D@2@@std@@@1@$$QAU_Zero_then_variadic_args_t@1@@Z 00409980 f i BackgroundTileObject.obj
 0001:000089d0       ??$?0ABU?$less@V?$basic_string@DU?$char_traits@D@std@@V?$allocator@D@2@@std@@@std@@U_Zero_then_variadic_args_t@1@@?$_Compressed_pair@U?$less@V?$basic_string@DU?$char_traits@D@std@@V?$allocator@D@2@@std@@@std@@V?$_Compressed_pair@V?$allocator@U?$_Tree_node@U?$pair@$$CBV?$basic_string@DU?$char_traits@D@std@@V?$allocator@D@2@@std@@V?$weak_ptr@VRawImageData@@@2@@std@@PAX@std@@@std@@V?$_Tree_val@U?$_Tree_simple_types@U?$pair@$$CBV?$basic_string@DU?$char_traits@D@std@@V?$allocator@D@2@@std@@V?$weak_ptr@VRawImageData@@@2@@std@@@std@@@2@$00@2@$00@std@@QAE@U_One_then_variadic_args_t@1@ABU?$less@V?$basic_string@DU?$char_traits@D@std@@V?$allocator@D@2@@std@@@1@$$QAU_Zero_then_variadic_args_t@1@@Z 004099d0 f i BackgroundTileObject.obj
 0001:00008a20       ??$?0D@?$allocator@U_Container_proxy@std@@@std@@QAE@ABV?$allocator@D@1@@Z 00409a20 f i BackgroundTileObject.obj
 0001:00008a40       ??$?0H@?$allocator@U_Container_proxy@std@@@std@@QAE@ABV?$allocator@H@1@@Z 00409a40 f i BackgroundTileObject.obj
 0001:00008a60       ??$?0PAU?$_Tree_node@U?$pair@$$CBV?$basic_string@DU?$char_traits@D@std@@V?$allocator@D@2@@std@@V?$shared_ptr@VRawImageData@@@2@@std@@PAX@std@@_N$0A@@?$pair@PAU?$_Tree_node@U?$pair@$$CBV?$basic_string@DU?$char_traits@D@std@@V?$allocator@D@2@@std@@V?$shared_ptr@VRawImageData@@@2@@std@@PAX@std@@_N@std@@QAE@$$QAPAU?$_Tree_node@U?$pair@$$CBV?$basic_string@DU?$char_traits@D@std@@V?$allocator@D@2@@std@@V?$shared_ptr@VRawImageData@@@2@@std@@PAX@1@$$QA_N@Z 00409a60 f i BackgroundTileObject.obj
 0001:00008ab0       ??$?0PAU?$_Tree_node@U?$pair@$$CBV?$basic_string@DU?$char_traits@D@std@@V?$allocator@D@2@@std@@V?$weak_ptr@VRawImageData@@@2@@std@@PAX@std@@_N$0A@@?$pair@PAU?$_Tree_node@U?$pair@$$CBV?$basic_string@DU?$char_traits@D@std@@V?$allocator@D@2@@std@@V?$weak_ptr@VRawImageData@@@2@@std@@PAX@std@@_N@std@@QAE@$$QAPAU?$_Tree_node@U?$pair@$$CBV?$basic_string@DU?$char_traits@D@std@@V?$allocator@D@2@@std@@V?$weak_ptr@VRawImageData@@@2@@std@@PAX@1@$$QA_N@Z 00409ab0 f i BackgroundTileObject.obj
 0001:00008b00       ??$?0U?$_Tree_node@U?$pair@$$CBV?$basic_string@DU?$char_traits@D@std@@V?$allocator@D@2@@std@@V?$shared_ptr@VRawImageData@@@2@@std@@PAX@std@@@?$allocator@U_Container_proxy@std@@@std@@QAE@ABV?$allocator@U?$_Tree_node@U?$pair@$$CBV?$basic_string@DU?$char_traits@D@std@@V?$allocator@D@2@@std@@V?$shared_ptr@VRawImageData@@@2@@std@@PAX@std@@@1@@Z 00409b00 f i BackgroundTileObject.obj
 0001:00008b20       ??$?0U?$_Tree_node@U?$pair@$$CBV?$basic_string@DU?$char_traits@D@std@@V?$allocator@D@2@@std@@V?$weak_ptr@VRawImageData@@@2@@std@@PAX@std@@@?$allocator@U_Container_proxy@std@@@std@@QAE@ABV?$allocator@U?$_Tree_node@U?$pair@$$CBV?$basic_string@DU?$char_traits@D@std@@V?$allocator@D@2@@std@@V?$weak_ptr@VRawImageData@@@2@@std@@PAX@std@@@1@@Z 00409b20 f i BackgroundTileObject.obj
 0001:00008b40       ??$?0U?$default_delete@V_Facet_base@std@@@std@@$0A@@?$unique_ptr@V_Facet_base@std@@U?$default_delete@V_Facet_base@std@@@2@@std@@QAE@PAV_Facet_base@1@@Z 00409b40 f i BackgroundTileObject.obj
 0001:00008b70       ??$?0U?$pair@V?$basic_string@DU?$char_traits@D@std@@V?$allocator@D@2@@std@@V?$shared_ptr@VRawImageData@@@2@@std@@@?$_Tree_temp_node@V?$allocator@U?$_Tree_node@U?$pair@$$CBV?$basic_string@DU?$char_traits@D@std@@V?$allocator@D@2@@std@@V?$shared_ptr@VRawImageData@@@2@@std@@PAX@std@@@std@@@std@@QAE@AAV?$allocator@U?$_Tree_node@U?$pair@$$CBV?$basic_string@DU?$char_traits@D@std@@V?$allocator@D@2@@std@@V?$shared_ptr@VRawImageData@@@2@@std@@PAX@std@@@1@PAU?$_Tree_node@U?$pair@$$CBV?$basic_string@DU?$char_traits@D@std@@V?$allocator@D@2@@std@@V?$shared_ptr@VRawImageData@@@2@@std@@PAX@1@$$QAU?$pair@V?$basic_string@DU?$char_traits@D@std@@V?$allocator@D@2@@std@@V?$shared_ptr@VRawImageData@@@2@@1@@Z 00409b70 f i BackgroundTileObject.obj
 0001:00008c80       ??$?0U?$pair@V?$basic_string@DU?$char_traits@D@std@@V?$allocator@D@2@@std@@V?$weak_ptr@VRawImageData@@@2@@std@@@?$_Tree_temp_node@V?$allocator@U?$_Tree_node@U?$pair@$$CBV?$basic_string@DU?$char_traits@D@std@@V?$allocator@D@2@@std@@V?$weak_ptr@VRawImageData@@@2@@std@@PAX@std@@@std@@@std@@QAE@AAV?$allocator@U?$_Tree_node@U?$pair@$$CBV?$basic_string@DU?$char_traits@D@std@@V?$allocator@D@2@@std@@V?$weak_ptr@VRawImageData@@@2@@std@@PAX@std@@@1@PAU?$_Tree_node@U?$pair@$$CBV?$basic_string@DU?$char_traits@D@std@@V?$allocator@D@2@@std@@V?$weak_ptr@VRawImageData@@@2@@std@@PAX@1@$$QAU?$pair@V?$basic_string@DU?$char_traits@D@std@@V?$allocator@D@2@@std@@V?$weak_ptr@VRawImageData@@@2@@1@@Z 00409c80 f i BackgroundTileObject.obj
 0001:00008d90       ??$?0V?$_Tree_iterator@V?$_Tree_val@U?$_Tree_simple_types@U?$pair@$$CBV?$basic_string@DU?$char_traits@D@std@@V?$allocator@D@2@@std@@V?$shared_ptr@VRawImageData@@@2@@std@@@std@@@std@@@std@@AB_N$0A@@?$pair@V?$_Tree_iterator@V?$_Tree_val@U?$_Tree_simple_types@U?$pair@$$CBV?$basic_string@DU?$char_traits@D@std@@V?$allocator@D@2@@std@@V?$shared_ptr@VRawImageData@@@2@@std@@@std@@@std@@@std@@_N@std@@QAE@$$QAV?$_Tree_iterator@V?$_Tree_val@U?$_Tree_simple_types@U?$pair@$$CBV?$basic_string@DU?$char_traits@D@std@@V?$allocator@D@2@@std@@V?$shared_ptr@VRawImageData@@@2@@std@@@std@@@std@@@1@AB_N@Z 00409d90 f i BackgroundTileObject.obj
 0001:00008de0       ??$?0V?$_Tree_iterator@V?$_Tree_val@U?$_Tree_simple_types@U?$pair@$$CBV?$basic_string@DU?$char_traits@D@std@@V?$allocator@D@2@@std@@V?$weak_ptr@VRawImageData@@@2@@std@@@std@@@std@@@std@@AB_N$0A@@?$pair@V?$_Tree_iterator@V?$_Tree_val@U?$_Tree_simple_types@U?$pair@$$CBV?$basic_string@DU?$char_traits@D@std@@V?$allocator@D@2@@std@@V?$weak_ptr@VRawImageData@@@2@@std@@@std@@@std@@@std@@_N@std@@QAE@$$QAV?$_Tree_iterator@V?$_Tree_val@U?$_Tree_simple_types@U?$pair@$$CBV?$basic_string@DU?$char_traits@D@std@@V?$allocator@D@2@@std@@V?$weak_ptr@VRawImageData@@@2@@std@@@std@@@std@@@1@AB_N@Z 00409de0 f i BackgroundTileObject.obj
 0001:00008e30       ??$?0V?$allocator@D@std@@$$V@?$_Compressed_pair@V?$allocator@D@std@@V?$_String_val@U?$_Simple_types@D@std@@@2@$00@std@@QAE@U_One_then_variadic_args_t@1@$$QAV?$allocator@D@1@@Z 00409e30 f i BackgroundTileObject.obj
 0001:00008e60       ??$?0V?$allocator@H@std@@$$V@?$_Compressed_pair@V?$allocator@H@std@@V?$_Vector_val@U?$_Simple_types@H@std@@@2@$00@std@@QAE@U_One_then_variadic_args_t@1@$$QAV?$allocator@H@1@@Z 00409e60 f i BackgroundTileObject.obj
 0001:00008e90       ??$?0V?$allocator@H@std@@PAHPAHPAH@?$_Compressed_pair@V?$allocator@H@std@@V?$_Vector_val@U?$_Simple_types@H@std@@@2@$00@std@@QAE@U_One_then_variadic_args_t@1@$$QAV?$allocator@H@1@$$QAPAH22@Z 00409e90 f i BackgroundTileObject.obj
 0001:00008f00       ??$?0V?$basic_string@DU?$char_traits@D@std@@V?$allocator@D@2@@std@@V?$shared_ptr@VRawImageData@@@1@$0A@@?$pair@$$CBV?$basic_string@DU?$char_traits@D@std@@V?$allocator@D@2@@std@@V?$shared_ptr@VRawImageData@@@2@@std@@QAE@$$QAU?$pair@V?$basic_string@DU?$char_traits@D@std@@V?$allocator@D@2@@std@@V?$shared_ptr@VRawImageData@@@2@@1@@Z 00409f00 f i BackgroundTileObject.obj
 0001:00008f60       ??$?0V?$basic_string@DU?$char_traits@D@std@@V?$allocator@D@2@@std@@V?$weak_ptr@VRawImageData@@@1@$0A@@?$pair@$$CBV?$basic_string@DU?$char_traits@D@std@@V?$allocator@D@2@@std@@V?$weak_ptr@VRawImageData@@@2@@std@@QAE@$$QAU?$pair@V?$basic_string@DU?$char_traits@D@std@@V?$allocator@D@2@@std@@V?$weak_ptr@VRawImageData@@@2@@1@@Z 00409f60 f i BackgroundTileObject.obj
 0001:00008fc0       ??$?0V?$vector@HV?$allocator@H@std@@@std@@@?$allocator@U_Container_proxy@std@@@std@@QAE@ABV?$allocator@V?$vector@HV?$allocator@H@std@@@std@@@1@@Z 00409fc0 f i BackgroundTileObject.obj
 0001:00008fe0       ??$?0VRawImageData@@$0A@@?$shared_ptr@VRawImageData@@@std@@QAE@PAVRawImageData@@@Z 00409fe0 f i BackgroundTileObject.obj
 0001:000090d0       ??$?0VRawImageData@@$0A@@?$weak_ptr@VRawImageData@@@std@@QAE@ABV?$shared_ptr@VRawImageData@@@1@@Z 0040a0d0 f i BackgroundTileObject.obj
 0001:00009100       ??$?6DU?$char_traits@D@std@@V?$allocator@D@1@@std@@YAAAV?$basic_ostream@DU?$char_traits@D@std@@@0@AAV10@ABV?$basic_string@DU?$char_traits@D@std@@V?$allocator@D@2@@0@@Z 0040a100 f i BackgroundTileObject.obj
 0001:00009130       ??$?6U?$char_traits@D@std@@@std@@YAAAV?$basic_ostream@DU?$char_traits@D@std@@@0@AAV10@PBD@Z 0040a130 f i BackgroundTileObject.obj
 0001:000094d0       ??$?9VRawImageData@@@std@@YA_NABV?$shared_ptr@VRawImageData@@@0@$$T@Z 0040a4d0 f i BackgroundTileObject.obj
 0001:00009510       ??$?HDU?$char_traits@D@std@@V?$allocator@D@1@@std@@YA?AV?$basic_string@DU?$char_traits@D@std@@V?$allocator@D@2@@0@$$QAV10@QBD@Z 0040a510 f i BackgroundTileObject.obj
 0001:00009560       ??$?HDU?$char_traits@D@std@@V?$allocator@D@1@@std@@YA?AV?$basic_string@DU?$char_traits@D@std@@V?$allocator@D@2@@0@QBDABV10@@Z 0040a560 f i BackgroundTileObject.obj
 0001:00009610       ??$?MDU?$char_traits@D@std@@V?$allocator@D@1@@std@@YA_NABV?$basic_string@DU?$char_traits@D@std@@V?$allocator@D@2@@0@0@Z 0040a610 f i BackgroundTileObject.obj
 0001:00009650       ??$_Alloc_proxy@V?$allocator@U_Container_proxy@std@@@std@@@_Container_base12@std@@QAEX$$QAV?$allocator@U_Container_proxy@std@@@1@@Z 0040a650 f i BackgroundTileObject.obj
 0001:000096b0       ??$_Allocate@$07U_Default_allocate_traits@std@@@std@@YAPAXI@Z 0040a6b0 f i BackgroundTileObject.obj
 0001:000096f0       ??$_Allocate_at_least_helper@V?$allocator@D@std@@@std@@YAPADAAV?$allocator@D@0@AAI@Z 0040a6f0 f i BackgroundTileObject.obj
 0001:00009710       ??$_Allocate_at_least_helper@V?$allocator@H@std@@@std@@YAPAHAAV?$allocator@H@0@AAI@Z 0040a710 f i BackgroundTileObject.obj
 0001:00009730       ??$_Allocate_at_least_helper@V?$allocator@V?$vector@HV?$allocator@H@std@@@std@@@std@@@std@@YAPAV?$vector@HV?$allocator@H@std@@@0@AAV?$allocator@V?$vector@HV?$allocator@H@std@@@std@@@0@AAI@Z 0040a730 f i BackgroundTileObject.obj
 0001:00009750       ??$_Allocate_for_capacity@$0A@@?$basic_string@DU?$char_traits@D@std@@V?$allocator@D@2@@std@@CAPADAAV?$allocator@D@1@AAI@Z 0040a750 f i BackgroundTileObject.obj
 0001:000097a0       ??$_Allocate_manually_vector_aligned@U_Default_allocate_traits@std@@@std@@YAPAXI@Z 0040a7a0 f i BackgroundTileObject.obj
 0001:00009890       ??$_Buyheadnode@V?$allocator@U?$_Tree_node@U?$pair@$$CBV?$basic_string@DU?$char_traits@D@std@@V?$allocator@D@2@@std@@V?$shared_ptr@VRawImageData@@@2@@std@@PAX@std@@@std@@@?$_Tree_node@U?$pair@$$CBV?$basic_string@DU?$char_traits@D@std@@V?$allocator@D@2@@std@@V?$shared_ptr@VRawImageData@@@2@@std@@PAX@std@@SAPAU01@AAV?$allocator@U?$_Tree_node@U?$pair@$$CBV?$basic_string@DU?$char_traits@D@std@@V?$allocator@D@2@@std@@V?$shared_ptr@VRawImageData@@@2@@std@@PAX@std@@@1@@Z 0040a890 f i BackgroundTileObject.obj
 0001:00009910       ??$_Buyheadnode@V?$allocator@U?$_Tree_node@U?$pair@$$CBV?$basic_string@DU?$char_traits@D@std@@V?$allocator@D@2@@std@@V?$weak_ptr@VRawImageData@@@2@@std@@PAX@std@@@std@@@?$_Tree_node@U?$pair@$$CBV?$basic_string@DU?$char_traits@D@std@@V?$allocator@D@2@@std@@V?$weak_ptr@VRawImageData@@@2@@std@@PAX@std@@SAPAU01@AAV?$allocator@U?$_Tree_node@U?$pair@$$CBV?$basic_string@DU?$char_traits@D@std@@V?$allocator@D@2@@std@@V?$weak_ptr@VRawImageData@@@2@@std@@PAX@std@@@1@@Z 0040a910 f i BackgroundTileObject.obj
 0001:00009990       ??$_Construct@$00PBD@?$basic_string@DU?$char_traits@D@std@@V?$allocator@D@2@@std@@AAEXQBDI@Z 0040a990 f i BackgroundTileObject.obj
 0001:00009b90       ??$_Construct@$01PBD@?$basic_string@DU?$char_traits@D@std@@V?$allocator@D@2@@std@@AAEXQBDI@Z 0040ab90 f i BackgroundTileObject.obj
 0001:00009d50       ??$_Construct_from_weak@VRawImageData@@@?$_Ptr_base@VRawImageData@@@std@@IAE_NABV?$weak_ptr@VRawImageData@@@1@@Z 0040ad50 f i BackgroundTileObject.obj
 0001:00009db0       ??$_Construct_in_place@HH@std@@YAXAAH$$QAH@Z 0040adb0 f i BackgroundTileObject.obj
 0001:00009e00       ??$_Construct_in_place@PADAAPAD@std@@YAXAAPAD0@Z 0040ae00 f i BackgroundTileObject.obj
 0001:00009e50       ??$_Construct_in_place@PADABQAD@std@@YAXAAPADABQAD@Z 0040ae50 f i BackgroundTileObject.obj
 0001:00009ea0       ??$_Construct_in_place@PAU?$_Tree_node@U?$pair@$$CBV?$basic_string@DU?$char_traits@D@std@@V?$allocator@D@2@@std@@V?$shared_ptr@VRawImageData@@@2@@std@@PAX@std@@AAPAU12@@std@@YAXAAPAU?$_Tree_node@U?$pair@$$CBV?$basic_string@DU?$char_traits@D@std@@V?$allocator@D@2@@std@@V?$shared_ptr@VRawImageData@@@2@@std@@PAX@0@0@Z 0040aea0 f i BackgroundTileObject.obj
 0001:00009ef0       ??$_Construct_in_place@PAU?$_Tree_node@U?$pair@$$CBV?$basic_string@DU?$char_traits@D@std@@V?$allocator@D@2@@std@@V?$shared_ptr@VRawImageData@@@2@@std@@PAX@std@@ABQAU12@@std@@YAXAAPAU?$_Tree_node@U?$pair@$$CBV?$basic_string@DU?$char_traits@D@std@@V?$allocator@D@2@@std@@V?$shared_ptr@VRawImageData@@@2@@std@@PAX@0@ABQAU10@@Z 0040aef0 f i BackgroundTileObject.obj
 0001:00009f40       ??$_Construct_in_place@PAU?$_Tree_node@U?$pair@$$CBV?$basic_string@DU?$char_traits@D@std@@V?$allocator@D@2@@std@@V?$weak_ptr@VRawImageData@@@2@@std@@PAX@std@@AAPAU12@@std@@YAXAAPAU?$_Tree_node@U?$pair@$$CBV?$basic_string@DU?$char_traits@D@std@@V?$allocator@D@2@@std@@V?$weak_ptr@VRawImageData@@@2@@std@@PAX@0@0@Z 0040af40 f i BackgroundTileObject.obj
 0001:00009f90       ??$_Construct_in_place@PAU?$_Tree_node@U?$pair@$$CBV?$basic_string@DU?$char_traits@D@std@@V?$allocator@D@2@@std@@V?$weak_ptr@VRawImageData@@@2@@std@@PAX@std@@ABQAU12@@std@@YAXAAPAU?$_Tree_node@U?$pair@$$CBV?$basic_string@DU?$char_traits@D@std@@V?$allocator@D@2@@std@@V?$weak_ptr@VRawImageData@@@2@@std@@PAX@0@ABQAU10@@Z 0040af90 f i BackgroundTileObject.obj
 0001:00009fe0       ??$_Construct_in_place@U_Container_proxy@std@@PAU_Container_base12@2@@std@@YAXAAU_Container_proxy@0@$$QAPAU_Container_base12@0@@Z 0040afe0 f i BackgroundTileObject.obj
 0001:0000a030       ??$_Construct_n@ABQAHABQAH@?$vector@HV?$allocator@H@std@@@std@@AAEXIABQAH0@Z 0040b030 f i BackgroundTileObject.obj
 0001:0000a160       ??$_Convert_size@II@std@@YAII@Z 0040b160 f i BackgroundTileObject.obj
 0001:0000a170       ??$_Copy_construct_from@VRawImageData@@@?$_Ptr_base@VRawImageData@@@std@@IAEXABV?$shared_ptr@VRawImageData@@@1@@Z 0040b170 f i BackgroundTileObject.obj
 0001:0000a1b0       ??$_Copy_memmove@PAHPAH@std@@YAPAHPAH00@Z 0040b1b0 f i BackgroundTileObject.obj
 0001:0000a240       ??$_Deallocate@$07@std@@YAXPAXI@Z 0040b240 f i BackgroundTileObject.obj
 0001:0000a2c0       ??$_Deallocate_plain@V?$allocator@U_Container_proxy@std@@@std@@@std@@YAXAAV?$allocator@U_Container_proxy@std@@@0@QAU_Container_proxy@0@@Z 0040b2c0 f i BackgroundTileObject.obj
 0001:0000a320       ??$_Debug_lt_pred@ABU?$less@V?$basic_string@DU?$char_traits@D@std@@V?$allocator@D@2@@std@@@std@@ABV?$basic_string@DU?$char_traits@D@std@@V?$allocator@D@2@@2@ABV32@@std@@YA_NABU?$less@V?$basic_string@DU?$char_traits@D@std@@V?$allocator@D@2@@std@@@0@ABV?$basic_string@DU?$char_traits@D@std@@V?$allocator@D@2@@0@1@Z 0040b320 f i BackgroundTileObject.obj
 0001:0000a3e0       ??$_Delete_plain_internal@V?$allocator@U_Container_proxy@std@@@std@@@std@@YAXAAV?$allocator@U_Container_proxy@std@@@0@QAU_Container_proxy@0@@Z 0040b3e0 f i BackgroundTileObject.obj
 0001:0000a400       ??$_Destroy_in_place@PAD@std@@YAXAAPAD@Z 0040b400 f i BackgroundTileObject.obj
 0001:0000a410       ??$_Destroy_in_place@PAU?$_Tree_node@U?$pair@$$CBV?$basic_string@DU?$char_traits@D@std@@V?$allocator@D@2@@std@@V?$shared_ptr@VRawImageData@@@2@@std@@PAX@std@@@std@@YAXAAPAU?$_Tree_node@U?$pair@$$CBV?$basic_string@DU?$char_traits@D@std@@V?$allocator@D@2@@std@@V?$shared_ptr@VRawImageData@@@2@@std@@PAX@0@@Z 0040b410 f i BackgroundTileObject.obj
 0001:0000a420       ??$_Destroy_in_place@PAU?$_Tree_node@U?$pair@$$CBV?$basic_string@DU?$char_traits@D@std@@V?$allocator@D@2@@std@@V?$weak_ptr@VRawImageData@@@2@@std@@PAX@std@@@std@@YAXAAPAU?$_Tree_node@U?$pair@$$CBV?$basic_string@DU?$char_traits@D@std@@V?$allocator@D@2@@std@@V?$weak_ptr@VRawImageData@@@2@@std@@PAX@0@@Z 0040b420 f i BackgroundTileObject.obj
 0001:0000a430       ??$_Destroy_range@V?$allocator@H@std@@@std@@YAXPAHQAHAAV?$allocator@H@0@@Z 0040b430 f i BackgroundTileObject.obj
 0001:0000a440       ??$_Destroy_range@V?$allocator@V?$vector@HV?$allocator@H@std@@@std@@@std@@@std@@YAXPAV?$vector@HV?$allocator@H@std@@@0@QAV10@AAV?$allocator@V?$vector@HV?$allocator@H@std@@@std@@@0@@Z 0040b440 f i BackgroundTileObject.obj
 0001:0000a4c0       ??$_Emplace@U?$pair@V?$basic_string@DU?$char_traits@D@std@@V?$allocator@D@2@@std@@V?$shared_ptr@VRawImageData@@@2@@std@@@?$_Tree@V?$_Tmap_traits@V?$basic_string@DU?$char_traits@D@std@@V?$allocator@D@2@@std@@V?$shared_ptr@VRawImageData@@@2@U?$less@V?$basic_string@DU?$char_traits@D@std@@V?$allocator@D@2@@std@@@2@V?$allocator@U?$pair@$$CBV?$basic_string@DU?$char_traits@D@std@@V?$allocator@D@2@@std@@V?$shared_ptr@VRawImageData@@@2@@std@@@2@$0A@@std@@@std@@IAE?AU?$pair@PAU?$_Tree_node@U?$pair@$$CBV?$basic_string@DU?$char_traits@D@std@@V?$allocator@D@2@@std@@V?$shared_ptr@VRawImageData@@@2@@std@@PAX@std@@_N@1@$$QAU?$pair@V?$basic_string@DU?$char_traits@D@std@@V?$allocator@D@2@@std@@V?$shared_ptr@VRawImageData@@@2@@1@@Z 0040b4c0 f i BackgroundTileObject.obj
 0001:0000a5f0       ??$_Emplace@U?$pair@V?$basic_string@DU?$char_traits@D@std@@V?$allocator@D@2@@std@@V?$weak_ptr@VRawImageData@@@2@@std@@@?$_Tree@V?$_Tmap_traits@V?$basic_string@DU?$char_traits@D@std@@V?$allocator@D@2@@std@@V?$weak_ptr@VRawImageData@@@2@U?$less@V?$basic_string@DU?$char_traits@D@std@@V?$allocator@D@2@@std@@@2@V?$allocator@U?$pair@$$CBV?$basic_string@DU?$char_traits@D@std@@V?$allocator@D@2@@std@@V?$weak_ptr@VRawImageData@@@2@@std@@@2@$0A@@std@@@std@@IAE?AU?$pair@PAU?$_Tree_node@U?$pair@$$CBV?$basic_string@DU?$char_traits@D@std@@V?$allocator@D@2@@std@@V?$weak_ptr@VRawImageData@@@2@@std@@PAX@std@@_N@1@$$QAU?$pair@V?$basic_string@DU?$char_traits@D@std@@V?$allocator@D@2@@std@@V?$weak_ptr@VRawImageData@@@2@@1@@Z 0040b5f0 f i BackgroundTileObject.obj
 0001:0000a720       ??$_Emplace_back@AAH@?$_Uninitialized_backout_al@V?$allocator@H@std@@@std@@QAEXAAH@Z 0040b720 f i BackgroundTileObject.obj
 0001:0000a780       ??$_Emplace_back@H@?$_Uninitialized_backout_al@V?$allocator@H@std@@@std@@QAEX$$QAH@Z 0040b780 f i BackgroundTileObject.obj
 0001:0000a7e0       ??$_Emplace_back@V?$vector@HV?$allocator@H@std@@@std@@@?$_Uninitialized_backout_al@V?$allocator@V?$vector@HV?$allocator@H@std@@@std@@@std@@@std@@QAEX$$QAV?$vector@HV?$allocator@H@std@@@1@@Z 0040b7e0 f i BackgroundTileObject.obj
 0001:0000a840       ??$_Emplace_back_with_unused_capacity@ABV?$vector@HV?$allocator@H@std@@@std@@@?$vector@V?$vector@HV?$allocator@H@std@@@std@@V?$allocator@V?$vector@HV?$allocator@H@std@@@std@@@2@@std@@AAEAAV?$vector@HV?$allocator@H@std@@@1@ABV21@@Z 0040b840 f i BackgroundTileObject.obj
 0001:0000a8e0       ??$_Emplace_back_with_unused_capacity@H@?$vector@HV?$allocator@H@std@@@std@@AAEAAH$$QAH@Z 0040b8e0 f i BackgroundTileObject.obj
 0001:0000a960       ??$_Emplace_one_at_back@ABV?$vector@HV?$allocator@H@std@@@std@@@?$vector@V?$vector@HV?$allocator@H@std@@@std@@V?$allocator@V?$vector@HV?$allocator@H@std@@@std@@@2@@std@@AAEAAV?$vector@HV?$allocator@H@std@@@1@ABV21@@Z 0040b960 f i BackgroundTileObject.obj
 0001:0000a9e0       ??$_Emplace_one_at_back@H@?$vector@HV?$allocator@H@std@@@std@@AAEAAH$$QAH@Z 0040b9e0 f i BackgroundTileObject.obj
 0001:0000aa60       ??$_Emplace_reallocate@ABV?$vector@HV?$allocator@H@std@@@std@@@?$vector@V?$vector@HV?$allocator@H@std@@@std@@V?$allocator@V?$vector@HV?$allocator@H@std@@@std@@@2@@std@@AAEPAV?$vector@HV?$allocator@H@std@@@1@QAV21@ABV21@@Z 0040ba60 f i BackgroundTileObject.obj
 0001:0000acd0       ??$_Emplace_reallocate@H@?$vector@HV?$allocator@H@std@@@std@@AAEPAHQAH$$QAH@Z 0040bcd0 f i BackgroundTileObject.obj
 0001:0000af30       ??$_Erase_head@V?$allocator@U?$_Tree_node@U?$pair@$$CBV?$basic_string@DU?$char_traits@D@std@@V?$allocator@D@2@@std@@V?$weak_ptr@VRawImageData@@@2@@std@@PAX@std@@@std@@@?$_Tree_val@U?$_Tree_simple_types@U?$pair@$$CBV?$basic_string@DU?$char_traits@D@std@@V?$allocator@D@2@@std@@V?$weak_ptr@VRawImageData@@@2@@std@@@std@@@std@@QAEXAAV?$allocator@U?$_Tree_node@U?$pair@$$CBV?$basic_string@DU?$char_traits@D@std@@V?$allocator@D@2@@std@@V?$weak_ptr@VRawImageData@@@2@@std@@PAX@std@@@1@@Z 0040bf30 f i BackgroundTileObject.obj
 0001:0000af80       ??$_Erase_tree@V?$allocator@U?$_Tree_node@U?$pair@$$CBV?$basic_string@DU?$char_traits@D@std@@V?$allocator@D@2@@std@@V?$weak_ptr@VRawImageData@@@2@@std@@PAX@std@@@std@@@?$_Tree_val@U?$_Tree_simple_types@U?$pair@$$CBV?$basic_string@DU?$char_traits@D@std@@V?$allocator@D@2@@std@@V?$weak_ptr@VRawImageData@@@2@@std@@@std@@@std@@QAEXAAV?$allocator@U?$_Tree_node@U?$pair@$$CBV?$basic_string@DU?$char_traits@D@std@@V?$allocator@D@2@@std@@V?$weak_ptr@VRawImageData@@@2@@std@@PAX@std@@@1@PAU?$_Tree_node@U?$pair@$$CBV?$basic_string@DU?$char_traits@D@std@@V?$allocator@D@2@@std@@V?$weak_ptr@VRawImageData@@@2@@std@@PAX@1@@Z 0040bf80 f i BackgroundTileObject.obj
 0001:0000afe0       ??$_Fgetc@D@std@@YA_NAADPAU_iobuf@@@Z 0040bfe0 f i BackgroundTileObject.obj
 0001:0000b020       ??$_Find@V?$basic_string@DU?$char_traits@D@std@@V?$allocator@D@2@@std@@@?$_Tree@V?$_Tmap_traits@V?$basic_string@DU?$char_traits@D@std@@V?$allocator@D@2@@std@@V?$weak_ptr@VRawImageData@@@2@U?$less@V?$basic_string@DU?$char_traits@D@std@@V?$allocator@D@2@@std@@@2@V?$allocator@U?$pair@$$CBV?$basic_string@DU?$char_traits@D@std@@V?$allocator@D@2@@std@@V?$weak_ptr@VRawImageData@@@2@@std@@@2@$0A@@std@@@std@@ABEPAU?$_Tree_node@U?$pair@$$CBV?$basic_string@DU?$char_traits@D@std@@V?$allocator@D@2@@std@@V?$weak_ptr@VRawImageData@@@2@@std@@PAX@1@ABV?$basic_string@DU?$char_traits@D@std@@V?$allocator@D@2@@1@@Z 0040c020 f i BackgroundTileObject.obj
 0001:0000b080       ??$_Find_lower_bound@V?$basic_string@DU?$char_traits@D@std@@V?$allocator@D@2@@std@@@?$_Tree@V?$_Tmap_traits@V?$basic_string@DU?$char_traits@D@std@@V?$allocator@D@2@@std@@V?$shared_ptr@VRawImageData@@@2@U?$less@V?$basic_string@DU?$char_traits@D@std@@V?$allocator@D@2@@std@@@2@V?$allocator@U?$pair@$$CBV?$basic_string@DU?$char_traits@D@std@@V?$allocator@D@2@@std@@V?$shared_ptr@VRawImageData@@@2@@std@@@2@$0A@@std@@@std@@IBE?AU?$_Tree_find_result@PAU?$_Tree_node@U?$pair@$$CBV?$basic_string@DU?$char_traits@D@std@@V?$allocator@D@2@@std@@V?$shared_ptr@VRawImageData@@@2@@std@@PAX@std@@@1@ABV?$basic_string@DU?$char_traits@D@std@@V?$allocator@D@2@@1@@Z 0040c080 f i BackgroundTileObject.obj
 0001:0000b170       ??$_Find_lower_bound@V?$basic_string@DU?$char_traits@D@std@@V?$allocator@D@2@@std@@@?$_Tree@V?$_Tmap_traits@V?$basic_string@DU?$char_traits@D@std@@V?$allocator@D@2@@std@@V?$weak_ptr@VRawImageData@@@2@U?$less@V?$basic_string@DU?$char_traits@D@std@@V?$allocator@D@2@@std@@@2@V?$allocator@U?$pair@$$CBV?$basic_string@DU?$char_traits@D@std@@V?$allocator@D@2@@std@@V?$weak_ptr@VRawImageData@@@2@@std@@@2@$0A@@std@@@std@@IBE?AU?$_Tree_find_result@PAU?$_Tree_node@U?$pair@$$CBV?$basic_string@DU?$char_traits@D@std@@V?$allocator@D@2@@std@@V?$weak_ptr@VRawImageData@@@2@@std@@PAX@std@@@1@ABV?$basic_string@DU?$char_traits@D@std@@V?$allocator@D@2@@1@@Z 0040c170 f i BackgroundTileObject.obj
 0001:0000b260       ??$_Fputc@D@std@@YA_NDPAU_iobuf@@@Z 0040c260 f i BackgroundTileObject.obj
 0001:0000b2a0       ??$_Freenode0@V?$allocator@U?$_Tree_node@U?$pair@$$CBV?$basic_string@DU?$char_traits@D@std@@V?$allocator@D@2@@std@@V?$weak_ptr@VRawImageData@@@2@@std@@PAX@std@@@std@@@?$_Tree_node@U?$pair@$$CBV?$basic_string@DU?$char_traits@D@std@@V?$allocator@D@2@@std@@V?$weak_ptr@VRawImageData@@@2@@std@@PAX@std@@SAXAAV?$allocator@U?$_Tree_node@U?$pair@$$CBV?$basic_string@DU?$char_traits@D@std@@V?$allocator@D@2@@std@@V?$weak_ptr@VRawImageData@@@2@@std@@PAX@std@@@1@PAU01@@Z 0040c2a0 f i BackgroundTileObject.obj
 0001:0000b330       ??$_Freenode@V?$allocator@U?$_Tree_node@U?$pair@$$CBV?$basic_string@DU?$char_traits@D@std@@V?$allocator@D@2@@std@@V?$weak_ptr@VRawImageData@@@2@@std@@PAX@std@@@std@@@?$_Tree_node@U?$pair@$$CBV?$basic_string@DU?$char_traits@D@std@@V?$allocator@D@2@@std@@V?$weak_ptr@VRawImageData@@@2@@std@@PAX@std@@SAXAAV?$allocator@U?$_Tree_node@U?$pair@$$CBV?$basic_string@DU?$char_traits@D@std@@V?$allocator@D@2@@std@@V?$weak_ptr@VRawImageData@@@2@@std@@PAX@std@@@1@PAU01@@Z 0040c330 f i BackgroundTileObject.obj
 0001:0000b3b0       ??$_Get_size_of_n@$00@std@@YAII@Z 0040c3b0 f i BackgroundTileObject.obj
 0001:0000b3d0       ??$_Get_size_of_n@$03@std@@YAII@Z 0040c3d0 f i BackgroundTileObject.obj
 0001:0000b410       ??$_Get_size_of_n@$07@std@@YAII@Z 0040c410 f i BackgroundTileObject.obj
 0001:0000b450       ??$_Get_size_of_n@$0BA@@std@@YAII@Z 0040c450 f i BackgroundTileObject.obj
 0001:0000b490       ??$_Get_size_of_n@$0DE@@std@@YAII@Z 0040c490 f i BackgroundTileObject.obj
 0001:0000b4d0       ??$_Get_unwrapped@ABQAH@std@@YA?A_TABQAH@Z 0040c4d0 f i BackgroundTileObject.obj
 0001:0000b4e0       ??$_Get_unwrapped@ABQAV?$vector@HV?$allocator@H@std@@@std@@@std@@YA?A_TABQAV?$vector@HV?$allocator@H@std@@@0@@Z 0040c4e0 f i BackgroundTileObject.obj
 0001:0000b4f0       ??$_Get_unwrapped@PAH@std@@YA?A_T$$QAPAH@Z 0040c4f0 f i BackgroundTileObject.obj
 0001:0000b500       ??$_Insert_string@DU?$char_traits@D@std@@I@std@@YAAAV?$basic_ostream@DU?$char_traits@D@std@@@0@AAV10@QBDI@Z 0040c500 f i BackgroundTileObject.obj
 0001:0000b840       ??$_Kfn@$$CBV?$basic_string@DU?$char_traits@D@std@@V?$allocator@D@2@@std@@V?$shared_ptr@VRawImageData@@@2@@?$_Tmap_traits@V?$basic_string@DU?$char_traits@D@std@@V?$allocator@D@2@@std@@V?$shared_ptr@VRawImageData@@@2@U?$less@V?$basic_string@DU?$char_traits@D@std@@V?$allocator@D@2@@std@@@2@V?$allocator@U?$pair@$$CBV?$basic_string@DU?$char_traits@D@std@@V?$allocator@D@2@@std@@V?$shared_ptr@VRawImageData@@@2@@std@@@2@$0A@@std@@SAABV?$basic_string@DU?$char_traits@D@std@@V?$allocator@D@2@@1@ABU?$pair@$$CBV?$basic_string@DU?$char_traits@D@std@@V?$allocator@D@2@@std@@V?$shared_ptr@VRawImageData@@@2@@1@@Z 0040c840 f i BackgroundTileObject.obj
 0001:0000b850       ??$_Kfn@$$CBV?$basic_string@DU?$char_traits@D@std@@V?$allocator@D@2@@std@@V?$weak_ptr@VRawImageData@@@2@@?$_Tmap_traits@V?$basic_string@DU?$char_traits@D@std@@V?$allocator@D@2@@std@@V?$weak_ptr@VRawImageData@@@2@U?$less@V?$basic_string@DU?$char_traits@D@std@@V?$allocator@D@2@@std@@@2@V?$allocator@U?$pair@$$CBV?$basic_string@DU?$char_traits@D@std@@V?$allocator@D@2@@std@@V?$weak_ptr@VRawImageData@@@2@@std@@@2@$0A@@std@@SAABV?$basic_string@DU?$char_traits@D@std@@V?$allocator@D@2@@1@ABU?$pair@$$CBV?$basic_string@DU?$char_traits@D@std@@V?$allocator@D@2@@std@@V?$weak_ptr@VRawImageData@@@2@@1@@Z 0040c850 f i BackgroundTileObject.obj
 0001:0000b860       ??$_Lower_bound_duplicate@V?$basic_string@DU?$char_traits@D@std@@V?$allocator@D@2@@std@@@?$_Tree@V?$_Tmap_traits@V?$basic_string@DU?$char_traits@D@std@@V?$allocator@D@2@@std@@V?$shared_ptr@VRawImageData@@@2@U?$less@V?$basic_string@DU?$char_traits@D@std@@V?$allocator@D@2@@std@@@2@V?$allocator@U?$pair@$$CBV?$basic_string@DU?$char_traits@D@std@@V?$allocator@D@2@@std@@V?$shared_ptr@VRawImageData@@@2@@std@@@2@$0A@@std@@@std@@IBE_NQAU?$_Tree_node@U?$pair@$$CBV?$basic_string@DU?$char_traits@D@std@@V?$allocator@D@2@@std@@V?$shared_ptr@VRawImageData@@@2@@std@@PAX@1@ABV?$basic_string@DU?$char_traits@D@std@@V?$allocator@D@2@@1@@Z 0040c860 f i BackgroundTileObject.obj
 0001:0000b8d0       ??$_Lower_bound_duplicate@V?$basic_string@DU?$char_traits@D@std@@V?$allocator@D@2@@std@@@?$_Tree@V?$_Tmap_traits@V?$basic_string@DU?$char_traits@D@std@@V?$allocator@D@2@@std@@V?$weak_ptr@VRawImageData@@@2@U?$less@V?$basic_string@DU?$char_traits@D@std@@V?$allocator@D@2@@std@@@2@V?$allocator@U?$pair@$$CBV?$basic_string@DU?$char_traits@D@std@@V?$allocator@D@2@@std@@V?$weak_ptr@VRawImageData@@@2@@std@@@2@$0A@@std@@@std@@IBE_NQAU?$_Tree_node@U?$pair@$$CBV?$basic_string@DU?$char_traits@D@std@@V?$allocator@D@2@@std@@V?$weak_ptr@VRawImageData@@@2@@std@@PAX@1@ABV?$basic_string@DU?$char_traits@D@std@@V?$allocator@D@2@@1@@Z 0040c8d0 f i BackgroundTileObject.obj
 0001:0000b940       ??$_Max_limit@H@std@@YAHXZ 0040c940 f i BackgroundTileObject.obj
 0001:0000b960       ??$_Move_construct_from@VRawImageData@@@?$_Ptr_base@VRawImageData@@@std@@IAEX$$QAV01@@Z 0040c960 f i BackgroundTileObject.obj
 0001:0000b9b0       ??$_Reallocate_for@V<lambda_9366063389c5f42a00a5088cf24e69de>@@PBD@?$basic_string@DU?$char_traits@D@std@@V?$allocator@D@2@@std@@AAEAAV01@IV<lambda_9366063389c5f42a00a5088cf24e69de>@@PBD@Z 0040c9b0 f i BackgroundTileObject.obj
 0001:0000bac0       ??$_Reallocate_grow_by@V<lambda_15711c68e099a15a58f4d77303cb286d>@@D@?$basic_string@DU?$char_traits@D@std@@V?$allocator@D@2@@std@@AAEAAV01@IV<lambda_15711c68e099a15a58f4d77303cb286d>@@D@Z 0040cac0 f i BackgroundTileObject.obj
 0001:0000bc30       ??$_Reallocate_grow_by@V<lambda_ab246b20b9526e2ef7792587e4298a77>@@PBDI@?$basic_string@DU?$char_traits@D@std@@V?$allocator@D@2@@std@@AAEAAV01@IV<lambda_ab246b20b9526e2ef7792587e4298a77>@@PBDI@Z 0040cc30 f i BackgroundTileObject.obj
 0001:0000bda0       ??$_Set_ptr_rep_and_enable_shared@VRawImageData@@@?$shared_ptr@VRawImageData@@@std@@AAEXQAVRawImageData@@QAV_Ref_count_base@1@@Z 0040cda0 f i BackgroundTileObject.obj
 0001:0000bdd0       ??$_To_address@PAH@std@@YA?A_PABQAH@Z 0040cdd0 f i BackgroundTileObject.obj
 0001:0000bde0       ??$_Traits_compare@U?$char_traits@D@std@@@std@@YAHQBDI0I@Z 0040cde0 f i BackgroundTileObject.obj
 0001:0000be50       ??$_Unfancy@D@std@@YAPADPAD@Z 0040ce50 f i BackgroundTileObject.obj
 0001:0000be60       ??$_Unfancy@H@std@@YAPAHPAH@Z 0040ce60 f i BackgroundTileObject.obj
 0001:0000be70       ??$_Unfancy@U_Container_proxy@std@@@std@@YAPAU_Container_proxy@0@PAU10@@Z 0040ce70 f i BackgroundTileObject.obj
 0001:0000be80       ??$_Unfancy@V?$vector@HV?$allocator@H@std@@@std@@@std@@YAPAV?$vector@HV?$allocator@H@std@@@0@PAV10@@Z 0040ce80 f i BackgroundTileObject.obj
 0001:0000be90       ??$_Ungetc@D@std@@YA_NABDPAU_iobuf@@@Z 0040ce90 f i BackgroundTileObject.obj
 0001:0000bee0       ??$_Uninitialized_copy@PAHPAHV?$allocator@H@std@@@std@@YAPAHPAH00AAV?$allocator@H@0@@Z 0040cee0 f i BackgroundTileObject.obj
 0001:0000c030       ??$_Uninitialized_move@PAHV?$allocator@H@std@@@std@@YAPAHQAH0PAHAAV?$allocator@H@0@@Z 0040d030 f i BackgroundTileObject.obj
 0001:0000c150       ??$_Uninitialized_move@PAV?$vector@HV?$allocator@H@std@@@std@@V?$allocator@V?$vector@HV?$allocator@H@std@@@std@@@2@@std@@YAPAV?$vector@HV?$allocator@H@std@@@0@QAV10@0PAV10@AAV?$allocator@V?$vector@HV?$allocator@H@std@@@std@@@0@@Z 0040d150 f i BackgroundTileObject.obj
 0001:0000c230       ??$_Weakly_construct_from@VRawImageData@@@?$_Ptr_base@VRawImageData@@@std@@IAEXABV01@@Z 0040d230 f i BackgroundTileObject.obj
 0001:0000c280       ??$addressof@$$CBV?$_Tree_val@U?$_Tree_simple_types@U?$pair@$$CBV?$basic_string@DU?$char_traits@D@std@@V?$allocator@D@2@@std@@V?$shared_ptr@VRawImageData@@@2@@std@@@std@@@std@@@std@@YAPBV?$_Tree_val@U?$_Tree_simple_types@U?$pair@$$CBV?$basic_string@DU?$char_traits@D@std@@V?$allocator@D@2@@std@@V?$shared_ptr@VRawImageData@@@2@@std@@@std@@@0@ABV10@@Z 0040d280 f i BackgroundTileObject.obj
 0001:0000c290       ??$addressof@$$CBV?$_Tree_val@U?$_Tree_simple_types@U?$pair@$$CBV?$basic_string@DU?$char_traits@D@std@@V?$allocator@D@2@@std@@V?$weak_ptr@VRawImageData@@@2@@std@@@std@@@std@@@std@@YAPBV?$_Tree_val@U?$_Tree_simple_types@U?$pair@$$CBV?$basic_string@DU?$char_traits@D@std@@V?$allocator@D@2@@std@@V?$weak_ptr@VRawImageData@@@2@@std@@@std@@@0@ABV10@@Z 0040d290 f i BackgroundTileObject.obj
 0001:0000c2a0       ??$addressof@$$CBV?$codecvt@DDU_Mbstatet@@@std@@@std@@YAPBV?$codecvt@DDU_Mbstatet@@@0@ABV10@@Z 0040d2a0 f i BackgroundTileObject.obj
 0001:0000c2b0       ??$addressof@D@std@@YAPADAAD@Z 0040d2b0 f i BackgroundTileObject.obj
 0001:0000c2c0       ??$addressof@H@std@@YAPAHAAH@Z 0040d2c0 f i BackgroundTileObject.obj
 0001:0000c2d0       ??$addressof@PAD@std@@YAPAPADAAPAD@Z 0040d2d0 f i BackgroundTileObject.obj
 0001:0000c2e0       ??$addressof@PAU?$_Tree_node@U?$pair@$$CBV?$basic_string@DU?$char_traits@D@std@@V?$allocator@D@2@@std@@V?$shared_ptr@VRawImageData@@@2@@std@@PAX@std@@@std@@YAPAPAU?$_Tree_node@U?$pair@$$CBV?$basic_string@DU?$char_traits@D@std@@V?$allocator@D@2@@std@@V?$shared_ptr@VRawImageData@@@2@@std@@PAX@0@AAPAU10@@Z 0040d2e0 f i BackgroundTileObject.obj
 0001:0000c2f0       ??$addressof@PAU?$_Tree_node@U?$pair@$$CBV?$basic_string@DU?$char_traits@D@std@@V?$allocator@D@2@@std@@V?$weak_ptr@VRawImageData@@@2@@std@@PAX@std@@@std@@YAPAPAU?$_Tree_node@U?$pair@$$CBV?$basic_string@DU?$char_traits@D@std@@V?$allocator@D@2@@std@@V?$weak_ptr@VRawImageData@@@2@@std@@PAX@0@AAPAU10@@Z 0040d2f0 f i BackgroundTileObject.obj
 0001:0000c300       ??$addressof@U?$pair@$$CBV?$basic_string@DU?$char_traits@D@std@@V?$allocator@D@2@@std@@V?$shared_ptr@VRawImageData@@@2@@std@@@std@@YAPAU?$pair@$$CBV?$basic_string@DU?$char_traits@D@std@@V?$allocator@D@2@@std@@V?$shared_ptr@VRawImageData@@@2@@0@AAU10@@Z 0040d300 f i BackgroundTileObject.obj
 0001:0000c310       ??$addressof@U?$pair@$$CBV?$basic_string@DU?$char_traits@D@std@@V?$allocator@D@2@@std@@V?$weak_ptr@VRawImageData@@@2@@std@@@std@@YAPAU?$pair@$$CBV?$basic_string@DU?$char_traits@D@std@@V?$allocator@D@2@@std@@V?$weak_ptr@VRawImageData@@@2@@0@AAU10@@Z 0040d310 f i BackgroundTileObject.obj
 0001:0000c320       ??$addressof@U_Container_base12@std@@@std@@YAPAU_Container_base12@0@AAU10@@Z 0040d320 f i BackgroundTileObject.obj
 0001:0000c330       ??$addressof@U_Container_proxy@std@@@std@@YAPAU_Container_proxy@0@AAU10@@Z 0040d330 f i BackgroundTileObject.obj
 0001:0000c340       ??$addressof@V?$_String_val@U?$_Simple_types@D@std@@@std@@@std@@YAPAV?$_String_val@U?$_Simple_types@D@std@@@0@AAV10@@Z 0040d340 f i BackgroundTileObject.obj
 0001:0000c350       ??$addressof@V?$_Tree_val@U?$_Tree_simple_types@U?$pair@$$CBV?$basic_string@DU?$char_traits@D@std@@V?$allocator@D@2@@std@@V?$shared_ptr@VRawImageData@@@2@@std@@@std@@@std@@@std@@YAPAV?$_Tree_val@U?$_Tree_simple_types@U?$pair@$$CBV?$basic_string@DU?$char_traits@D@std@@V?$allocator@D@2@@std@@V?$shared_ptr@VRawImageData@@@2@@std@@@std@@@0@AAV10@@Z 0040d350 f i BackgroundTileObject.obj
 0001:0000c360       ??$addressof@V?$_Tree_val@U?$_Tree_simple_types@U?$pair@$$CBV?$basic_string@DU?$char_traits@D@std@@V?$allocator@D@2@@std@@V?$weak_ptr@VRawImageData@@@2@@std@@@std@@@std@@@std@@YAPAV?$_Tree_val@U?$_Tree_simple_types@U?$pair@$$CBV?$basic_string@DU?$char_traits@D@std@@V?$allocator@D@2@@std@@V?$weak_ptr@VRawImageData@@@2@@std@@@std@@@0@AAV10@@Z 0040d360 f i BackgroundTileObject.obj
 0001:0000c370       ??$addressof@V?$basic_filebuf@DU?$char_traits@D@std@@@std@@@std@@YAPAV?$basic_filebuf@DU?$char_traits@D@std@@@0@AAV10@@Z 0040d370 f i BackgroundTileObject.obj
 0001:0000c380       ??$addressof@V?$basic_stringbuf@DU?$char_traits@D@std@@V?$allocator@D@2@@std@@@std@@YAPAV?$basic_stringbuf@DU?$char_traits@D@std@@V?$allocator@D@2@@0@AAV10@@Z 0040d380 f i BackgroundTileObject.obj
 0001:0000c390       ??$construct@HAAH@?$_Default_allocator_traits@V?$allocator@H@std@@@std@@SAXAAV?$allocator@H@1@QAHAAH@Z 0040d390 f i BackgroundTileObject.obj
 0001:0000c3d0       ??$construct@HH@?$_Default_allocator_traits@V?$allocator@H@std@@@std@@SAXAAV?$allocator@H@1@QAH$$QAH@Z 0040d3d0 f i BackgroundTileObject.obj
 0001:0000c410       ??$construct@U?$pair@$$CBV?$basic_string@DU?$char_traits@D@std@@V?$allocator@D@2@@std@@V?$shared_ptr@VRawImageData@@@2@@std@@U?$pair@V?$basic_string@DU?$char_traits@D@std@@V?$allocator@D@2@@std@@V?$shared_ptr@VRawImageData@@@2@@2@@?$_Default_allocator_traits@V?$allocator@U?$_Tree_node@U?$pair@$$CBV?$basic_string@DU?$char_traits@D@std@@V?$allocator@D@2@@std@@V?$shared_ptr@VRawImageData@@@2@@std@@PAX@std@@@std@@@std@@SAXAAV?$allocator@U?$_Tree_node@U?$pair@$$CBV?$basic_string@DU?$char_traits@D@std@@V?$allocator@D@2@@std@@V?$shared_ptr@VRawImageData@@@2@@std@@PAX@std@@@1@QAU?$pair@$$CBV?$basic_string@DU?$char_traits@D@std@@V?$allocator@D@2@@std@@V?$shared_ptr@VRawImageData@@@2@@1@$$QAU?$pair@V?$basic_string@DU?$char_traits@D@std@@V?$allocator@D@2@@std@@V?$shared_ptr@VRawImageData@@@2@@1@@Z 0040d410 f i BackgroundTileObject.obj
 0001:0000c450       ??$construct@U?$pair@$$CBV?$basic_string@DU?$char_traits@D@std@@V?$allocator@D@2@@std@@V?$weak_ptr@VRawImageData@@@2@@std@@U?$pair@V?$basic_string@DU?$char_traits@D@std@@V?$allocator@D@2@@std@@V?$weak_ptr@VRawImageData@@@2@@2@@?$_Default_allocator_traits@V?$allocator@U?$_Tree_node@U?$pair@$$CBV?$basic_string@DU?$char_traits@D@std@@V?$allocator@D@2@@std@@V?$weak_ptr@VRawImageData@@@2@@std@@PAX@std@@@std@@@std@@SAXAAV?$allocator@U?$_Tree_node@U?$pair@$$CBV?$basic_string@DU?$char_traits@D@std@@V?$allocator@D@2@@std@@V?$weak_ptr@VRawImageData@@@2@@std@@PAX@std@@@1@QAU?$pair@$$CBV?$basic_string@DU?$char_traits@D@std@@V?$allocator@D@2@@std@@V?$weak_ptr@VRawImageData@@@2@@1@$$QAU?$pair@V?$basic_string@DU?$char_traits@D@std@@V?$allocator@D@2@@std@@V?$weak_ptr@VRawImageData@@@2@@1@@Z 0040d450 f i BackgroundTileObject.obj
 0001:0000c490       ??$construct@V?$vector@HV?$allocator@H@std@@@std@@ABV12@@?$_Default_allocator_traits@V?$allocator@V?$vector@HV?$allocator@H@std@@@std@@@std@@@std@@SAXAAV?$allocator@V?$vector@HV?$allocator@H@std@@@std@@@1@QAV?$vector@HV?$allocator@H@std@@@1@ABV31@@Z 0040d490 f i BackgroundTileObject.obj
 0001:0000c4d0       ??$construct@V?$vector@HV?$allocator@H@std@@@std@@V12@@?$_Default_allocator_traits@V?$allocator@V?$vector@HV?$allocator@H@std@@@std@@@std@@@std@@SAXAAV?$allocator@V?$vector@HV?$allocator@H@std@@@std@@@1@QAV?$vector@HV?$allocator@H@std@@@1@$$QAV31@@Z 0040d4d0 f i BackgroundTileObject.obj
 0001:0000c510       ??$destroy@U?$pair@$$CBV?$basic_string@DU?$char_traits@D@std@@V?$allocator@D@2@@std@@V?$shared_ptr@VRawImageData@@@2@@std@@@?$_Default_allocator_traits@V?$allocator@U?$_Tree_node@U?$pair@$$CBV?$basic_string@DU?$char_traits@D@std@@V?$allocator@D@2@@std@@V?$shared_ptr@VRawImageData@@@2@@std@@PAX@std@@@std@@@std@@SAXAAV?$allocator@U?$_Tree_node@U?$pair@$$CBV?$basic_string@DU?$char_traits@D@std@@V?$allocator@D@2@@std@@V?$shared_ptr@VRawImageData@@@2@@std@@PAX@std@@@1@QAU?$pair@$$CBV?$basic_string@DU?$char_traits@D@std@@V?$allocator@D@2@@std@@V?$shared_ptr@VRawImageData@@@2@@1@@Z 0040d510 f i BackgroundTileObject.obj
 0001:0000c530       ??$destroy@U?$pair@$$CBV?$basic_string@DU?$char_traits@D@std@@V?$allocator@D@2@@std@@V?$weak_ptr@VRawImageData@@@2@@std@@@?$_Default_allocator_traits@V?$allocator@U?$_Tree_node@U?$pair@$$CBV?$basic_string@DU?$char_traits@D@std@@V?$allocator@D@2@@std@@V?$weak_ptr@VRawImageData@@@2@@std@@PAX@std@@@std@@@std@@SAXAAV?$allocator@U?$_Tree_node@U?$pair@$$CBV?$basic_string@DU?$char_traits@D@std@@V?$allocator@D@2@@std@@V?$weak_ptr@VRawImageData@@@2@@std@@PAX@std@@@1@QAU?$pair@$$CBV?$basic_string@DU?$char_traits@D@std@@V?$allocator@D@2@@std@@V?$weak_ptr@VRawImageData@@@2@@1@@Z 0040d530 f i BackgroundTileObject.obj
 0001:0000c550       ??$destroy@V?$vector@HV?$allocator@H@std@@@std@@@?$_Default_allocator_traits@V?$allocator@V?$vector@HV?$allocator@H@std@@@std@@@std@@@std@@SAXAAV?$allocator@V?$vector@HV?$allocator@H@std@@@std@@@1@QAV?$vector@HV?$allocator@H@std@@@1@@Z 0040d550 f i BackgroundTileObject.obj
 0001:0000c570       ??$emplace@U?$pair@V?$basic_string@DU?$char_traits@D@std@@V?$allocator@D@2@@std@@V?$shared_ptr@VRawImageData@@@2@@std@@@?$_Tree@V?$_Tmap_traits@V?$basic_string@DU?$char_traits@D@std@@V?$allocator@D@2@@std@@V?$shared_ptr@VRawImageData@@@2@U?$less@V?$basic_string@DU?$char_traits@D@std@@V?$allocator@D@2@@std@@@2@V?$allocator@U?$pair@$$CBV?$basic_string@DU?$char_traits@D@std@@V?$allocator@D@2@@std@@V?$shared_ptr@VRawImageData@@@2@@std@@@2@$0A@@std@@@std@@QAE?AU?$pair@V?$_Tree_iterator@V?$_Tree_val@U?$_Tree_simple_types@U?$pair@$$CBV?$basic_string@DU?$char_traits@D@std@@V?$allocator@D@2@@std@@V?$shared_ptr@VRawImageData@@@2@@std@@@std@@@std@@@std@@_N@1@$$QAU?$pair@V?$basic_string@DU?$char_traits@D@std@@V?$allocator@D@2@@std@@V?$shared_ptr@VRawImageData@@@2@@1@@Z 0040d570 f i BackgroundTileObject.obj
 0001:0000c600       ??$emplace@U?$pair@V?$basic_string@DU?$char_traits@D@std@@V?$allocator@D@2@@std@@V?$weak_ptr@VRawImageData@@@2@@std@@@?$_Tree@V?$_Tmap_traits@V?$basic_string@DU?$char_traits@D@std@@V?$allocator@D@2@@std@@V?$weak_ptr@VRawImageData@@@2@U?$less@V?$basic_string@DU?$char_traits@D@std@@V?$allocator@D@2@@std@@@2@V?$allocator@U?$pair@$$CBV?$basic_string@DU?$char_traits@D@std@@V?$allocator@D@2@@std@@V?$weak_ptr@VRawImageData@@@2@@std@@@2@$0A@@std@@@std@@QAE?AU?$pair@V?$_Tree_iterator@V?$_Tree_val@U?$_Tree_simple_types@U?$pair@$$CBV?$basic_string@DU?$char_traits@D@std@@V?$allocator@D@2@@std@@V?$weak_ptr@VRawImageData@@@2@@std@@@std@@@std@@@std@@_N@1@$$QAU?$pair@V?$basic_string@DU?$char_traits@D@std@@V?$allocator@D@2@@std@@V?$weak_ptr@VRawImageData@@@2@@1@@Z 0040d600 f i BackgroundTileObject.obj
 0001:0000c690       ??$endl@DU?$char_traits@D@std@@@std@@YAAAV?$basic_ostream@DU?$char_traits@D@std@@@0@AAV10@@Z 0040d690 f i BackgroundTileObject.obj
 0001:0000c6d0       ??$erase@V?$_Tree_iterator@V?$_Tree_val@U?$_Tree_simple_types@U?$pair@$$CBV?$basic_string@DU?$char_traits@D@std@@V?$allocator@D@2@@std@@V?$weak_ptr@VRawImageData@@@2@@std@@@std@@@std@@@std@@$0A@@?$_Tree@V?$_Tmap_traits@V?$basic_string@DU?$char_traits@D@std@@V?$allocator@D@2@@std@@V?$weak_ptr@VRawImageData@@@2@U?$less@V?$basic_string@DU?$char_traits@D@std@@V?$allocator@D@2@@std@@@2@V?$allocator@U?$pair@$$CBV?$basic_string@DU?$char_traits@D@std@@V?$allocator@D@2@@std@@V?$weak_ptr@VRawImageData@@@2@@std@@@2@$0A@@std@@@std@@QAE?AV?$_Tree_iterator@V?$_Tree_val@U?$_Tree_simple_types@U?$pair@$$CBV?$basic_string@DU?$char_traits@D@std@@V?$allocator@D@2@@std@@V?$weak_ptr@VRawImageData@@@2@@std@@@std@@@std@@@1@V21@@Z 0040d6d0 f i BackgroundTileObject.obj
 0001:0000c820       ??$exchange@PAH$$T@std@@YAPAHAAPAH$$QA$$T@Z 0040d820 f i BackgroundTileObject.obj
 0001:0000c850       ??$exchange@PAU?$_Tree_node@U?$pair@$$CBV?$basic_string@DU?$char_traits@D@std@@V?$allocator@D@2@@std@@V?$shared_ptr@VRawImageData@@@2@@std@@PAX@std@@$$T@std@@YAPAU?$_Tree_node@U?$pair@$$CBV?$basic_string@DU?$char_traits@D@std@@V?$allocator@D@2@@std@@V?$shared_ptr@VRawImageData@@@2@@std@@PAX@0@AAPAU10@$$QA$$T@Z 0040d850 f i BackgroundTileObject.obj
 0001:0000c880       ??$exchange@PAU?$_Tree_node@U?$pair@$$CBV?$basic_string@DU?$char_traits@D@std@@V?$allocator@D@2@@std@@V?$weak_ptr@VRawImageData@@@2@@std@@PAX@std@@$$T@std@@YAPAU?$_Tree_node@U?$pair@$$CBV?$basic_string@DU?$char_traits@D@std@@V?$allocator@D@2@@std@@V?$weak_ptr@VRawImageData@@@2@@std@@PAX@0@AAPAU10@$$QA$$T@Z 0040d880 f i BackgroundTileObject.obj
 0001:0000c8b0       ??$exchange@PAU?$_Tree_node@U?$pair@$$CBV?$basic_string@DU?$char_traits@D@std@@V?$allocator@D@2@@std@@V?$weak_ptr@VRawImageData@@@2@@std@@PAX@std@@AAPAU12@@std@@YAPAU?$_Tree_node@U?$pair@$$CBV?$basic_string@DU?$char_traits@D@std@@V?$allocator@D@2@@std@@V?$weak_ptr@VRawImageData@@@2@@std@@PAX@0@AAPAU10@0@Z 0040d8b0 f i BackgroundTileObject.obj
 0001:0000c8e0       ??$exchange@PAU_Container_proxy@std@@$$T@std@@YAPAU_Container_proxy@0@AAPAU10@$$QA$$T@Z 0040d8e0 f i BackgroundTileObject.obj
 0001:0000c910       ??$exchange@PAU_Iterator_base12@std@@$$T@std@@YAPAU_Iterator_base12@0@AAPAU10@$$QA$$T@Z 0040d910 f i BackgroundTileObject.obj
 0001:0000c940       ??$exchange@PAV_Facet_base@std@@$$T@std@@YAPAV_Facet_base@0@AAPAV10@$$QA$$T@Z 0040d940 f i BackgroundTileObject.obj
 0001:0000c970       ??$forward@AAH@std@@YAAAHAAH@Z 0040d970 f i BackgroundTileObject.obj
 0001:0000c980       ??$forward@AAPAD@std@@YAAAPADAAPAD@Z 0040d980 f i BackgroundTileObject.obj
 0001:0000c990       ??$forward@AAPAU?$_Tree_node@U?$pair@$$CBV?$basic_string@DU?$char_traits@D@std@@V?$allocator@D@2@@std@@V?$shared_ptr@VRawImageData@@@2@@std@@PAX@std@@@std@@YAAAPAU?$_Tree_node@U?$pair@$$CBV?$basic_string@DU?$char_traits@D@std@@V?$allocator@D@2@@std@@V?$shared_ptr@VRawImageData@@@2@@std@@PAX@0@AAPAU10@@Z 0040d990 f i BackgroundTileObject.obj
 0001:0000c9a0       ??$forward@AAPAU?$_Tree_node@U?$pair@$$CBV?$basic_string@DU?$char_traits@D@std@@V?$allocator@D@2@@std@@V?$weak_ptr@VRawImageData@@@2@@std@@PAX@std@@@std@@YAAAPAU?$_Tree_node@U?$pair@$$CBV?$basic_string@DU?$char_traits@D@std@@V?$allocator@D@2@@std@@V?$weak_ptr@VRawImageData@@@2@@std@@PAX@0@AAPAU10@@Z 0040d9a0 f i BackgroundTileObject.obj
 0001:0000c9b0       ??$forward@AAPAV_Facet_base@std@@@std@@YAAAPAV_Facet_base@0@AAPAV10@@Z 0040d9b0 f i BackgroundTileObject.obj
 0001:0000c9c0       ??$forward@AAV?$basic_string@DU?$char_traits@D@std@@V?$allocator@D@2@@std@@@std@@YAAAV?$basic_string@DU?$char_traits@D@std@@V?$allocator@D@2@@0@AAV10@@Z 0040d9c0 f i BackgroundTileObject.obj
 0001:0000c9d0       ??$forward@AAV?$shared_ptr@VRawImageData@@@std@@@std@@YAAAV?$shared_ptr@VRawImageData@@@0@AAV10@@Z 0040d9d0 f i BackgroundTileObject.obj
 0001:0000c9e0       ??$forward@AAV?$weak_ptr@VRawImageData@@@std@@@std@@YAAAV?$weak_ptr@VRawImageData@@@0@AAV10@@Z 0040d9e0 f i BackgroundTileObject.obj
 0001:0000c9f0       ??$forward@ABQAD@std@@YAABQADABQAD@Z 0040d9f0 f i BackgroundTileObject.obj
 0001:0000ca00       ??$forward@ABQAH@std@@YAABQAHABQAH@Z 0040da00 f i BackgroundTileObject.obj
 0001:0000ca10       ??$forward@ABQAU?$_Tree_node@U?$pair@$$CBV?$basic_string@DU?$char_traits@D@std@@V?$allocator@D@2@@std@@V?$shared_ptr@VRawImageData@@@2@@std@@PAX@std@@@std@@YAABQAU?$_Tree_node@U?$pair@$$CBV?$basic_string@DU?$char_traits@D@std@@V?$allocator@D@2@@std@@V?$shared_ptr@VRawImageData@@@2@@std@@PAX@0@ABQAU10@@Z 0040da10 f i BackgroundTileObject.obj
 0001:0000ca20       ??$forward@ABQAU?$_Tree_node@U?$pair@$$CBV?$basic_string@DU?$char_traits@D@std@@V?$allocator@D@2@@std@@V?$weak_ptr@VRawImageData@@@2@@std@@PAX@std@@@std@@YAABQAU?$_Tree_node@U?$pair@$$CBV?$basic_string@DU?$char_traits@D@std@@V?$allocator@D@2@@std@@V?$weak_ptr@VRawImageData@@@2@@std@@PAX@0@ABQAU10@@Z 0040da20 f i BackgroundTileObject.obj
 0001:0000ca30       ??$forward@ABU?$less@V?$basic_string@DU?$char_traits@D@std@@V?$allocator@D@2@@std@@@std@@@std@@YAABU?$less@V?$basic_string@DU?$char_traits@D@std@@V?$allocator@D@2@@std@@@0@ABU10@@Z 0040da30 f i BackgroundTileObject.obj
 0001:0000ca40       ??$forward@ABV?$vector@HV?$allocator@H@std@@@std@@@std@@YAABV?$vector@HV?$allocator@H@std@@@0@ABV10@@Z 0040da40 f i BackgroundTileObject.obj
 0001:0000ca50       ??$forward@AB_N@std@@YAAB_NAB_N@Z 0040da50 f i BackgroundTileObject.obj
 0001:0000ca60       ??$forward@H@std@@YA$$QAHAAH@Z 0040da60 f i BackgroundTileObject.obj
 0001:0000ca70       ??$forward@PAH@std@@YA$$QAPAHAAPAH@Z 0040da70 f i BackgroundTileObject.obj
 0001:0000ca80       ??$forward@PAU?$_Tree_node@U?$pair@$$CBV?$basic_string@DU?$char_traits@D@std@@V?$allocator@D@2@@std@@V?$shared_ptr@VRawImageData@@@2@@std@@PAX@std@@@std@@YA$$QAPAU?$_Tree_node@U?$pair@$$CBV?$basic_string@DU?$char_traits@D@std@@V?$allocator@D@2@@std@@V?$shared_ptr@VRawImageData@@@2@@std@@PAX@0@AAPAU10@@Z 0040da80 f i BackgroundTileObject.obj
 0001:0000ca90       ??$forward@PAU?$_Tree_node@U?$pair@$$CBV?$basic_string@DU?$char_traits@D@std@@V?$allocator@D@2@@std@@V?$weak_ptr@VRawImageData@@@2@@std@@PAX@std@@@std@@YA$$QAPAU?$_Tree_node@U?$pair@$$CBV?$basic_string@DU?$char_traits@D@std@@V?$allocator@D@2@@std@@V?$weak_ptr@VRawImageData@@@2@@std@@PAX@0@AAPAU10@@Z 0040da90 f i BackgroundTileObject.obj
 0001:0000caa0       ??$forward@PAU_Container_base12@std@@@std@@YA$$QAPAU_Container_base12@0@AAPAU10@@Z 0040daa0 f i BackgroundTileObject.obj
 0001:0000cab0       ??$forward@U?$pair@V?$basic_string@DU?$char_traits@D@std@@V?$allocator@D@2@@std@@V?$shared_ptr@VRawImageData@@@2@@std@@@std@@YA$$QAU?$pair@V?$basic_string@DU?$char_traits@D@std@@V?$allocator@D@2@@std@@V?$shared_ptr@VRawImageData@@@2@@0@AAU10@@Z 0040dab0 f i BackgroundTileObject.obj
 0001:0000cac0       ??$forward@U?$pair@V?$basic_string@DU?$char_traits@D@std@@V?$allocator@D@2@@std@@V?$weak_ptr@VRawImageData@@@2@@std@@@std@@YA$$QAU?$pair@V?$basic_string@DU?$char_traits@D@std@@V?$allocator@D@2@@std@@V?$weak_ptr@VRawImageData@@@2@@0@AAU10@@Z 0040dac0 f i BackgroundTileObject.obj
 0001:0000cad0       ??$forward@U_Zero_then_variadic_args_t@std@@@std@@YA$$QAU_Zero_then_variadic_args_t@0@AAU10@@Z 0040dad0 f i BackgroundTileObject.obj
 0001:0000cae0       ??$forward@V?$_Tree_iterator@V?$_Tree_val@U?$_Tree_simple_types@U?$pair@$$CBV?$basic_string@DU?$char_traits@D@std@@V?$allocator@D@2@@std@@V?$shared_ptr@VRawImageData@@@2@@std@@@std@@@std@@@std@@@std@@YA$$QAV?$_Tree_iterator@V?$_Tree_val@U?$_Tree_simple_types@U?$pair@$$CBV?$basic_string@DU?$char_traits@D@std@@V?$allocator@D@2@@std@@V?$shared_ptr@VRawImageData@@@2@@std@@@std@@@std@@@0@AAV10@@Z 0040dae0 f i BackgroundTileObject.obj
 0001:0000caf0       ??$forward@V?$_Tree_iterator@V?$_Tree_val@U?$_Tree_simple_types@U?$pair@$$CBV?$basic_string@DU?$char_traits@D@std@@V?$allocator@D@2@@std@@V?$weak_ptr@VRawImageData@@@2@@std@@@std@@@std@@@std@@@std@@YA$$QAV?$_Tree_iterator@V?$_Tree_val@U?$_Tree_simple_types@U?$pair@$$CBV?$basic_string@DU?$char_traits@D@std@@V?$allocator@D@2@@std@@V?$weak_ptr@VRawImageData@@@2@@std@@@std@@@std@@@0@AAV10@@Z 0040daf0 f i BackgroundTileObject.obj
 0001:0000cb00       ??$forward@V?$allocator@D@std@@@std@@YA$$QAV?$allocator@D@0@AAV10@@Z 0040db00 f i BackgroundTileObject.obj
 0001:0000cb10       ??$forward@V?$allocator@H@std@@@std@@YA$$QAV?$allocator@H@0@AAV10@@Z 0040db10 f i BackgroundTileObject.obj
 0001:0000cb20       ??$forward@V?$basic_string@DU?$char_traits@D@std@@V?$allocator@D@2@@std@@@std@@YA$$QAV?$basic_string@DU?$char_traits@D@std@@V?$allocator@D@2@@0@AAV10@@Z 0040db20 f i BackgroundTileObject.obj
 0001:0000cb30       ??$forward@V?$shared_ptr@VRawImageData@@@std@@@std@@YA$$QAV?$shared_ptr@VRawImageData@@@0@AAV10@@Z 0040db30 f i BackgroundTileObject.obj
 0001:0000cb40       ??$forward@V?$vector@HV?$allocator@H@std@@@std@@@std@@YA$$QAV?$vector@HV?$allocator@H@std@@@0@AAV10@@Z 0040db40 f i BackgroundTileObject.obj
 0001:0000cb50       ??$forward@V?$weak_ptr@VRawImageData@@@std@@@std@@YA$$QAV?$weak_ptr@VRawImageData@@@0@AAV10@@Z 0040db50 f i BackgroundTileObject.obj
 0001:0000cb60       ??$forward@_N@std@@YA$$QA_NAA_N@Z 0040db60 f i BackgroundTileObject.obj
 0001:0000cb70       ??$getline@DU?$char_traits@D@std@@V?$allocator@D@2@@std@@YAAAV?$basic_istream@DU?$char_traits@D@std@@@0@$$QAV10@AAV?$basic_string@DU?$char_traits@D@std@@V?$allocator@D@2@@0@D@Z 0040db70 f i BackgroundTileObject.obj
 0001:0000cde0       ??$getline@DU?$char_traits@D@std@@V?$allocator@D@2@@std@@YAAAV?$basic_istream@DU?$char_traits@D@std@@@0@AAV10@AAV?$basic_string@DU?$char_traits@D@std@@V?$allocator@D@2@@0@@Z 0040dde0 f i BackgroundTileObject.obj
 0001:0000ce30       ??$getline@DU?$char_traits@D@std@@V?$allocator@D@2@@std@@YAAAV?$basic_istream@DU?$char_traits@D@std@@@0@AAV10@AAV?$basic_string@DU?$char_traits@D@std@@V?$allocator@D@2@@0@D@Z 0040de30 f i BackgroundTileObject.obj
 0001:0000ce60       ??$insert@U?$pair@V?$basic_string@DU?$char_traits@D@std@@V?$allocator@D@2@@std@@V?$shared_ptr@VRawImageData@@@2@@std@@$0A@@?$map@V?$basic_string@DU?$char_traits@D@std@@V?$allocator@D@2@@std@@V?$shared_ptr@VRawImageData@@@2@U?$less@V?$basic_string@DU?$char_traits@D@std@@V?$allocator@D@2@@std@@@2@V?$allocator@U?$pair@$$CBV?$basic_string@DU?$char_traits@D@std@@V?$allocator@D@2@@std@@V?$shared_ptr@VRawImageData@@@2@@std@@@2@@std@@QAE?AU?$pair@V?$_Tree_iterator@V?$_Tree_val@U?$_Tree_simple_types@U?$pair@$$CBV?$basic_string@DU?$char_traits@D@std@@V?$allocator@D@2@@std@@V?$shared_ptr@VRawImageData@@@2@@std@@@std@@@std@@@std@@_N@1@$$QAU?$pair@V?$basic_string@DU?$char_traits@D@std@@V?$allocator@D@2@@std@@V?$shared_ptr@VRawImageData@@@2@@1@@Z 0040de60 f i BackgroundTileObject.obj
 0001:0000ceb0       ??$insert@U?$pair@V?$basic_string@DU?$char_traits@D@std@@V?$allocator@D@2@@std@@V?$weak_ptr@VRawImageData@@@2@@std@@$0A@@?$map@V?$basic_string@DU?$char_traits@D@std@@V?$allocator@D@2@@std@@V?$weak_ptr@VRawImageData@@@2@U?$less@V?$basic_string@DU?$char_traits@D@std@@V?$allocator@D@2@@std@@@2@V?$allocator@U?$pair@$$CBV?$basic_string@DU?$char_traits@D@std@@V?$allocator@D@2@@std@@V?$weak_ptr@VRawImageData@@@2@@std@@@2@@std@@QAE?AU?$pair@V?$_Tree_iterator@V?$_Tree_val@U?$_Tree_simple_types@U?$pair@$$CBV?$basic_string@DU?$char_traits@D@std@@V?$allocator@D@2@@std@@V?$weak_ptr@VRawImageData@@@2@@std@@@std@@@std@@@std@@_N@1@$$QAU?$pair@V?$basic_string@DU?$char_traits@D@std@@V?$allocator@D@2@@std@@V?$weak_ptr@VRawImageData@@@2@@1@@Z 0040deb0 f i BackgroundTileObject.obj
 0001:0000cf00       ??$max@I@std@@YAABIABI0@Z  0040df00 f i BackgroundTileObject.obj
 0001:0000cf40       ??$max@PAD@std@@YAABQADABQAD0@Z 0040df40 f i BackgroundTileObject.obj
 0001:0000cf80       ??$min@I@std@@YAABIABI0@Z  0040df80 f i BackgroundTileObject.obj
 0001:0000cfc0       ??$move@AAD@std@@YA$$QADAAD@Z 0040dfc0 f i BackgroundTileObject.obj
 0001:0000cfd0       ??$move@AAH@std@@YA$$QAHAAH@Z 0040dfd0 f i BackgroundTileObject.obj
 0001:0000cfe0       ??$move@AAPAH@std@@YA$$QAPAHAAPAH@Z 0040dfe0 f i BackgroundTileObject.obj
 0001:0000cff0       ??$move@AAV?$allocator@D@std@@@std@@YA$$QAV?$allocator@D@0@AAV10@@Z 0040dff0 f i BackgroundTileObject.obj
 0001:0000d000       ??$move@AAV?$allocator@H@std@@@std@@YA$$QAV?$allocator@H@0@AAV10@@Z 0040e000 f i BackgroundTileObject.obj
 0001:0000d010       ??$move@AAV?$basic_istream@DU?$char_traits@D@std@@@std@@@std@@YA$$QAV?$basic_istream@DU?$char_traits@D@std@@@0@AAV10@@Z 0040e010 f i BackgroundTileObject.obj
 0001:0000d020       ??$move@AAV?$basic_string@DU?$char_traits@D@std@@V?$allocator@D@2@@std@@@std@@YA$$QAV?$basic_string@DU?$char_traits@D@std@@V?$allocator@D@2@@0@AAV10@@Z 0040e020 f i BackgroundTileObject.obj
 0001:0000d030       ??$move@AAV?$shared_ptr@VRawImageData@@@std@@@std@@YA$$QAV?$shared_ptr@VRawImageData@@@0@AAV10@@Z 0040e030 f i BackgroundTileObject.obj
 0001:0000d040       ??$move@AAV?$vector@HV?$allocator@H@std@@@std@@@std@@YA$$QAV?$vector@HV?$allocator@H@std@@@0@AAV10@@Z 0040e040 f i BackgroundTileObject.obj
 0001:0000d050       ??$move@AAV?$weak_ptr@VRawImageData@@@std@@@std@@YA$$QAV?$weak_ptr@VRawImageData@@@0@AAV10@@Z 0040e050 f i BackgroundTileObject.obj
 0001:0000d060       ??$swap@D$0A@@std@@YAXAAD0@Z 0040e060 f i BackgroundTileObject.obj
 0001:0000d0b0       ??$use_facet@V?$codecvt@DDU_Mbstatet@@@std@@@std@@YAABV?$codecvt@DDU_Mbstatet@@@0@ABVlocale@0@@Z 0040e0b0 f i BackgroundTileObject.obj
 0001:0000d200       ??0?$_Alloc_construct_ptr@V?$allocator@U?$_Tree_node@U?$pair@$$CBV?$basic_string@DU?$char_traits@D@std@@V?$allocator@D@2@@std@@V?$shared_ptr@VRawImageData@@@2@@std@@PAX@std@@@std@@@std@@QAE@AAV?$allocator@U?$_Tree_node@U?$pair@$$CBV?$basic_string@DU?$char_traits@D@std@@V?$allocator@D@2@@std@@V?$shared_ptr@VRawImageData@@@2@@std@@PAX@std@@@1@@Z 0040e200 f i BackgroundTileObject.obj
 0001:0000d230       ??0?$_Alloc_construct_ptr@V?$allocator@U?$_Tree_node@U?$pair@$$CBV?$basic_string@DU?$char_traits@D@std@@V?$allocator@D@2@@std@@V?$weak_ptr@VRawImageData@@@2@@std@@PAX@std@@@std@@@std@@QAE@AAV?$allocator@U?$_Tree_node@U?$pair@$$CBV?$basic_string@DU?$char_traits@D@std@@V?$allocator@D@2@@std@@V?$weak_ptr@VRawImageData@@@2@@std@@PAX@std@@@1@@Z 0040e230 f i BackgroundTileObject.obj
 0001:0000d260       ??0?$_Container_proxy_ptr12@V?$allocator@U_Container_proxy@std@@@std@@@std@@QAE@AAV?$allocator@U_Container_proxy@std@@@1@AAU_Container_base12@1@@Z 0040e260 f i BackgroundTileObject.obj
 0001:0000d2e0       ??0?$_Ptr_base@VRawImageData@@@std@@IAE@XZ 0040e2e0 f i BackgroundTileObject.obj
 0001:0000d310       ??0?$_Ref_count@VRawImageData@@@std@@QAE@PAVRawImageData@@@Z 0040e310 f i BackgroundTileObject.obj
 0001:0000d360       ??0?$_String_val@U?$_Simple_types@D@std@@@std@@QAE@XZ 0040e360 f i BackgroundTileObject.obj
 0001:0000d3b0       ??0?$_Temporary_owner@VRawImageData@@@std@@QAE@QAVRawImageData@@@Z 0040e3b0 f i BackgroundTileObject.obj
 0001:0000d3d0       ??0?$_Tree@V?$_Tmap_traits@V?$basic_string@DU?$char_traits@D@std@@V?$allocator@D@2@@std@@V?$shared_ptr@VRawImageData@@@2@U?$less@V?$basic_string@DU?$char_traits@D@std@@V?$allocator@D@2@@std@@@2@V?$allocator@U?$pair@$$CBV?$basic_string@DU?$char_traits@D@std@@V?$allocator@D@2@@std@@V?$shared_ptr@VRawImageData@@@2@@std@@@2@$0A@@std@@@std@@QAE@ABU?$less@V?$basic_string@DU?$char_traits@D@std@@V?$allocator@D@2@@std@@@1@@Z 0040e3d0 f i BackgroundTileObject.obj
 0001:0000d410       ??0?$_Tree@V?$_Tmap_traits@V?$basic_string@DU?$char_traits@D@std@@V?$allocator@D@2@@std@@V?$weak_ptr@VRawImageData@@@2@U?$less@V?$basic_string@DU?$char_traits@D@std@@V?$allocator@D@2@@std@@@2@V?$allocator@U?$pair@$$CBV?$basic_string@DU?$char_traits@D@std@@V?$allocator@D@2@@std@@V?$weak_ptr@VRawImageData@@@2@@std@@@2@$0A@@std@@@std@@QAE@ABU?$less@V?$basic_string@DU?$char_traits@D@std@@V?$allocator@D@2@@std@@@1@@Z 0040e410 f i BackgroundTileObject.obj
 0001:0000d450       ??0?$_Tree_const_iterator@V?$_Tree_val@U?$_Tree_simple_types@U?$pair@$$CBV?$basic_string@DU?$char_traits@D@std@@V?$allocator@D@2@@std@@V?$shared_ptr@VRawImageData@@@2@@std@@@std@@@std@@@std@@QAE@$$QAV01@@Z 0040e450 f i BackgroundTileObject.obj
 0001:0000d480       ??0?$_Tree_const_iterator@V?$_Tree_val@U?$_Tree_simple_types@U?$pair@$$CBV?$basic_string@DU?$char_traits@D@std@@V?$allocator@D@2@@std@@V?$shared_ptr@VRawImageData@@@2@@std@@@std@@@std@@@std@@QAE@PAU?$_Tree_node@U?$pair@$$CBV?$basic_string@DU?$char_traits@D@std@@V?$allocator@D@2@@std@@V?$shared_ptr@VRawImageData@@@2@@std@@PAX@1@PBV?$_Tree_val@U?$_Tree_simple_types@U?$pair@$$CBV?$basic_string@DU?$char_traits@D@std@@V?$allocator@D@2@@std@@V?$shared_ptr@VRawImageData@@@2@@std@@@std@@@1@@Z 0040e480 f i BackgroundTileObject.obj
 0001:0000d4b0       ??0?$_Tree_const_iterator@V?$_Tree_val@U?$_Tree_simple_types@U?$pair@$$CBV?$basic_string@DU?$char_traits@D@std@@V?$allocator@D@2@@std@@V?$weak_ptr@VRawImageData@@@2@@std@@@std@@@std@@@std@@QAE@$$QAV01@@Z 0040e4b0 f i BackgroundTileObject.obj
 0001:0000d4e0       ??0?$_Tree_const_iterator@V?$_Tree_val@U?$_Tree_simple_types@U?$pair@$$CBV?$basic_string@DU?$char_traits@D@std@@V?$allocator@D@2@@std@@V?$weak_ptr@VRawImageData@@@2@@std@@@std@@@std@@@std@@QAE@ABV01@@Z 0040e4e0 f i BackgroundTileObject.obj
 0001:0000d510       ??0?$_Tree_const_iterator@V?$_Tree_val@U?$_Tree_simple_types@U?$pair@$$CBV?$basic_string@DU?$char_traits@D@std@@V?$allocator@D@2@@std@@V?$weak_ptr@VRawImageData@@@2@@std@@@std@@@std@@@std@@QAE@PAU?$_Tree_node@U?$pair@$$CBV?$basic_string@DU?$char_traits@D@std@@V?$allocator@D@2@@std@@V?$weak_ptr@VRawImageData@@@2@@std@@PAX@1@PBV?$_Tree_val@U?$_Tree_simple_types@U?$pair@$$CBV?$basic_string@DU?$char_traits@D@std@@V?$allocator@D@2@@std@@V?$weak_ptr@VRawImageData@@@2@@std@@@std@@@1@@Z 0040e510 f i BackgroundTileObject.obj
 0001:0000d540       ??0?$_Tree_iterator@V?$_Tree_val@U?$_Tree_simple_types@U?$pair@$$CBV?$basic_string@DU?$char_traits@D@std@@V?$allocator@D@2@@std@@V?$shared_ptr@VRawImageData@@@2@@std@@@std@@@std@@@std@@QAE@$$QAV01@@Z 0040e540 f i BackgroundTileObject.obj
 0001:0000d570       ??0?$_Tree_iterator@V?$_Tree_val@U?$_Tree_simple_types@U?$pair@$$CBV?$basic_string@DU?$char_traits@D@std@@V?$allocator@D@2@@std@@V?$shared_ptr@VRawImageData@@@2@@std@@@std@@@std@@@std@@QAE@PAU?$_Tree_node@U?$pair@$$CBV?$basic_string@DU?$char_traits@D@std@@V?$allocator@D@2@@std@@V?$shared_ptr@VRawImageData@@@2@@std@@PAX@1@PBV?$_Tree_val@U?$_Tree_simple_types@U?$pair@$$CBV?$basic_string@DU?$char_traits@D@std@@V?$allocator@D@2@@std@@V?$shared_ptr@VRawImageData@@@2@@std@@@std@@@1@@Z 0040e570 f i BackgroundTileObject.obj
 0001:0000d5a0       ??0?$_Tree_iterator@V?$_Tree_val@U?$_Tree_simple_types@U?$pair@$$CBV?$basic_string@DU?$char_traits@D@std@@V?$allocator@D@2@@std@@V?$weak_ptr@VRawImageData@@@2@@std@@@std@@@std@@@std@@QAE@$$QAV01@@Z 0040e5a0 f i BackgroundTileObject.obj
 0001:0000d5d0       ??0?$_Tree_iterator@V?$_Tree_val@U?$_Tree_simple_types@U?$pair@$$CBV?$basic_string@DU?$char_traits@D@std@@V?$allocator@D@2@@std@@V?$weak_ptr@VRawImageData@@@2@@std@@@std@@@std@@@std@@QAE@ABV01@@Z 0040e5d0 f i BackgroundTileObject.obj
 0001:0000d600       ??0?$_Tree_iterator@V?$_Tree_val@U?$_Tree_simple_types@U?$pair@$$CBV?$basic_string@DU?$char_traits@D@std@@V?$allocator@D@2@@std@@V?$weak_ptr@VRawImageData@@@2@@std@@@std@@@std@@@std@@QAE@PAU?$_Tree_node@U?$pair@$$CBV?$basic_string@DU?$char_traits@D@std@@V?$allocator@D@2@@std@@V?$weak_ptr@VRawImageData@@@2@@std@@PAX@1@PBV?$_Tree_val@U?$_Tree_simple_types@U?$pair@$$CBV?$basic_string@DU?$char_traits@D@std@@V?$allocator@D@2@@std@@V?$weak_ptr@VRawImageData@@@2@@std@@@std@@@1@@Z 0040e600 f i BackgroundTileObject.obj
 0001:0000d630       ??0?$_Tree_temp_node_alloc@V?$allocator@U?$_Tree_node@U?$pair@$$CBV?$basic_string@DU?$char_traits@D@std@@V?$allocator@D@2@@std@@V?$shared_ptr@VRawImageData@@@2@@std@@PAX@std@@@std@@@std@@QAE@AAV?$allocator@U?$_Tree_node@U?$pair@$$CBV?$basic_string@DU?$char_traits@D@std@@V?$allocator@D@2@@std@@V?$shared_ptr@VRawImageData@@@2@@std@@PAX@std@@@1@@Z 0040e630 f i BackgroundTileObject.obj
 0001:0000d6b0       ??0?$_Tree_temp_node_alloc@V?$allocator@U?$_Tree_node@U?$pair@$$CBV?$basic_string@DU?$char_traits@D@std@@V?$allocator@D@2@@std@@V?$weak_ptr@VRawImageData@@@2@@std@@PAX@std@@@std@@@std@@QAE@AAV?$allocator@U?$_Tree_node@U?$pair@$$CBV?$basic_string@DU?$char_traits@D@std@@V?$allocator@D@2@@std@@V?$weak_ptr@VRawImageData@@@2@@std@@PAX@std@@@1@@Z 0040e6b0 f i BackgroundTileObject.obj
 0001:0000d730       ??0?$_Tree_unchecked_const_iterator@V?$_Tree_val@U?$_Tree_simple_types@U?$pair@$$CBV?$basic_string@DU?$char_traits@D@std@@V?$allocator@D@2@@std@@V?$shared_ptr@VRawImageData@@@2@@std@@@std@@@std@@U_Iterator_base12@2@@std@@QAE@$$QAV01@@Z 0040e730 f i BackgroundTileObject.obj
 0001:0000d770       ??0?$_Tree_unchecked_const_iterator@V?$_Tree_val@U?$_Tree_simple_types@U?$pair@$$CBV?$basic_string@DU?$char_traits@D@std@@V?$allocator@D@2@@std@@V?$shared_ptr@VRawImageData@@@2@@std@@@std@@@std@@U_Iterator_base12@2@@std@@QAE@PAU?$_Tree_node@U?$pair@$$CBV?$basic_string@DU?$char_traits@D@std@@V?$allocator@D@2@@std@@V?$shared_ptr@VRawImageData@@@2@@std@@PAX@1@PBV?$_Tree_val@U?$_Tree_simple_types@U?$pair@$$CBV?$basic_string@DU?$char_traits@D@std@@V?$allocator@D@2@@std@@V?$shared_ptr@VRawImageData@@@2@@std@@@std@@@1@@Z 0040e770 f i BackgroundTileObject.obj
 0001:0000d7b0       ??0?$_Tree_unchecked_const_iterator@V?$_Tree_val@U?$_Tree_simple_types@U?$pair@$$CBV?$basic_string@DU?$char_traits@D@std@@V?$allocator@D@2@@std@@V?$weak_ptr@VRawImageData@@@2@@std@@@std@@@std@@U_Iterator_base0@2@@std@@QAE@PAU?$_Tree_node@U?$pair@$$CBV?$basic_string@DU?$char_traits@D@std@@V?$allocator@D@2@@std@@V?$weak_ptr@VRawImageData@@@2@@std@@PAX@1@PBV?$_Tree_val@U?$_Tree_simple_types@U?$pair@$$CBV?$basic_string@DU?$char_traits@D@std@@V?$allocator@D@2@@std@@V?$weak_ptr@VRawImageData@@@2@@std@@@std@@@1@@Z 0040e7b0 f i BackgroundTileObject.obj
 0001:0000d7e0       ??0?$_Tree_unchecked_const_iterator@V?$_Tree_val@U?$_Tree_simple_types@U?$pair@$$CBV?$basic_string@DU?$char_traits@D@std@@V?$allocator@D@2@@std@@V?$weak_ptr@VRawImageData@@@2@@std@@@std@@@std@@U_Iterator_base12@2@@std@@QAE@$$QAV01@@Z 0040e7e0 f i BackgroundTileObject.obj
 0001:0000d820       ??0?$_Tree_unchecked_const_iterator@V?$_Tree_val@U?$_Tree_simple_types@U?$pair@$$CBV?$basic_string@DU?$char_traits@D@std@@V?$allocator@D@2@@std@@V?$weak_ptr@VRawImageData@@@2@@std@@@std@@@std@@U_Iterator_base12@2@@std@@QAE@ABV01@@Z 0040e820 f i BackgroundTileObject.obj
 0001:0000d860       ??0?$_Tree_unchecked_const_iterator@V?$_Tree_val@U?$_Tree_simple_types@U?$pair@$$CBV?$basic_string@DU?$char_traits@D@std@@V?$allocator@D@2@@std@@V?$weak_ptr@VRawImageData@@@2@@std@@@std@@@std@@U_Iterator_base12@2@@std@@QAE@PAU?$_Tree_node@U?$pair@$$CBV?$basic_string@DU?$char_traits@D@std@@V?$allocator@D@2@@std@@V?$weak_ptr@VRawImageData@@@2@@std@@PAX@1@PBV?$_Tree_val@U?$_Tree_simple_types@U?$pair@$$CBV?$basic_string@DU?$char_traits@D@std@@V?$allocator@D@2@@std@@V?$weak_ptr@VRawImageData@@@2@@std@@@std@@@1@@Z 0040e860 f i BackgroundTileObject.obj
 0001:0000d8a0       ??0?$_Tree_unchecked_iterator@V?$_Tree_val@U?$_Tree_simple_types@U?$pair@$$CBV?$basic_string@DU?$char_traits@D@std@@V?$allocator@D@2@@std@@V?$weak_ptr@VRawImageData@@@2@@std@@@std@@@std@@@std@@QAE@PAU?$_Tree_node@U?$pair@$$CBV?$basic_string@DU?$char_traits@D@std@@V?$allocator@D@2@@std@@V?$weak_ptr@VRawImageData@@@2@@std@@PAX@1@PBV?$_Tree_val@U?$_Tree_simple_types@U?$pair@$$CBV?$basic_string@DU?$char_traits@D@std@@V?$allocator@D@2@@std@@V?$weak_ptr@VRawImageData@@@2@@std@@@std@@@1@@Z 0040e8a0 f i BackgroundTileObject.obj
 0001:0000d8d0       ??0?$_Tree_val@U?$_Tree_simple_types@U?$pair@$$CBV?$basic_string@DU?$char_traits@D@std@@V?$allocator@D@2@@std@@V?$shared_ptr@VRawImageData@@@2@@std@@@std@@@std@@QAE@XZ 0040e8d0 f i BackgroundTileObject.obj
 0001:0000d910       ??0?$_Tree_val@U?$_Tree_simple_types@U?$pair@$$CBV?$basic_string@DU?$char_traits@D@std@@V?$allocator@D@2@@std@@V?$weak_ptr@VRawImageData@@@2@@std@@@std@@@std@@QAE@XZ 0040e910 f i BackgroundTileObject.obj
 0001:0000d950       ??0?$_Uninitialized_backout_al@V?$allocator@H@std@@@std@@QAE@PAHAAV?$allocator@H@1@@Z 0040e950 f i BackgroundTileObject.obj
 0001:0000d990       ??0?$_Uninitialized_backout_al@V?$allocator@V?$vector@HV?$allocator@H@std@@@std@@@std@@@std@@QAE@PAV?$vector@HV?$allocator@H@std@@@1@AAV?$allocator@V?$vector@HV?$allocator@H@std@@@std@@@1@@Z 0040e990 f i BackgroundTileObject.obj
 0001:0000d9d0       ??0?$_Vector_val@U?$_Simple_types@H@std@@@std@@QAE@PAH00@Z 0040e9d0 f i BackgroundTileObject.obj
 0001:0000da10       ??0?$_Vector_val@U?$_Simple_types@H@std@@@std@@QAE@XZ 0040ea10 f i BackgroundTileObject.obj
 0001:0000da60       ??0?$_Vector_val@U?$_Simple_types@V?$vector@HV?$allocator@H@std@@@std@@@std@@@std@@QAE@XZ 0040ea60 f i BackgroundTileObject.obj
 0001:0000dab0       ??0?$allocator@D@std@@QAE@XZ 0040eab0 f i BackgroundTileObject.obj
 0001:0000dad0       ??0?$allocator@H@std@@QAE@XZ 0040ead0 f i BackgroundTileObject.obj
 0001:0000daf0       ??0?$allocator@U?$_Tree_node@U?$pair@$$CBV?$basic_string@DU?$char_traits@D@std@@V?$allocator@D@2@@std@@V?$shared_ptr@VRawImageData@@@2@@std@@PAX@std@@@std@@QAE@XZ 0040eaf0 f i BackgroundTileObject.obj
 0001:0000db10       ??0?$allocator@U?$_Tree_node@U?$pair@$$CBV?$basic_string@DU?$char_traits@D@std@@V?$allocator@D@2@@std@@V?$weak_ptr@VRawImageData@@@2@@std@@PAX@std@@@std@@QAE@XZ 0040eb10 f i BackgroundTileObject.obj
 0001:0000db30       ??0?$allocator@V?$vector@HV?$allocator@H@std@@@std@@@std@@QAE@XZ 0040eb30 f i BackgroundTileObject.obj
 0001:0000db50       ??0?$basic_filebuf@DU?$char_traits@D@std@@@std@@QAE@XZ 0040eb50 f i BackgroundTileObject.obj
 0001:0000db90       ??0?$basic_ifstream@DU?$char_traits@D@std@@@std@@QAE@ABV?$basic_string@DU?$char_traits@D@std@@V?$allocator@D@2@@1@HH@Z 0040eb90 f i BackgroundTileObject.obj
 0001:0000dc00       ??0?$basic_ifstream@DU?$char_traits@D@std@@@std@@QAE@PBDHH@Z 0040ec00 f i BackgroundTileObject.obj
 0001:0000dd50       ??0?$basic_string@DU?$char_traits@D@std@@V?$allocator@D@2@@std@@QAE@$$QAV01@@Z 0040ed50 f i BackgroundTileObject.obj
 0001:0000de00       ??0?$basic_string@DU?$char_traits@D@std@@V?$allocator@D@2@@std@@QAE@ABV01@@Z 0040ee00 f i BackgroundTileObject.obj
 0001:0000deb0       ??0?$basic_string@DU?$char_traits@D@std@@V?$allocator@D@2@@std@@QAE@QBD@Z 0040eeb0 f i BackgroundTileObject.obj
 0001:0000df50       ??0?$basic_string@DU?$char_traits@D@std@@V?$allocator@D@2@@std@@QAE@U_String_constructor_concat_tag@1@ABV01@QBDI2I@Z 0040ef50 f i BackgroundTileObject.obj
 0001:0000e130       ??0?$basic_string@DU?$char_traits@D@std@@V?$allocator@D@2@@std@@QAE@XZ 0040f130 f i BackgroundTileObject.obj
 0001:0000e1a0       ??0?$basic_stringbuf@DU?$char_traits@D@std@@V?$allocator@D@2@@std@@QAE@ABV?$basic_string@DU?$char_traits@D@std@@V?$allocator@D@2@@1@H@Z 0040f1a0 f i BackgroundTileObject.obj
 0001:0000e260       ??0?$basic_stringstream@DU?$char_traits@D@std@@V?$allocator@D@2@@std@@QAE@ABV?$basic_string@DU?$char_traits@D@std@@V?$allocator@D@2@@1@H@Z 0040f260 f i BackgroundTileObject.obj
 0001:0000e380       ??0?$fpos@U_Mbstatet@@@std@@QAE@U_Mbstatet@@_J@Z 0040f380 f i BackgroundTileObject.obj
 0001:0000e3d0       ??0?$fpos@U_Mbstatet@@@std@@QAE@_J@Z 0040f3d0 f i BackgroundTileObject.obj
 0001:0000e420       ??0?$map@V?$basic_string@DU?$char_traits@D@std@@V?$allocator@D@2@@std@@V?$shared_ptr@VRawImageData@@@2@U?$less@V?$basic_string@DU?$char_traits@D@std@@V?$allocator@D@2@@std@@@2@V?$allocator@U?$pair@$$CBV?$basic_string@DU?$char_traits@D@std@@V?$allocator@D@2@@std@@V?$shared_ptr@VRawImageData@@@2@@std@@@2@@std@@QAE@XZ 0040f420 f i BackgroundTileObject.obj
 0001:0000e450       ??0?$map@V?$basic_string@DU?$char_traits@D@std@@V?$allocator@D@2@@std@@V?$weak_ptr@VRawImageData@@@2@U?$less@V?$basic_string@DU?$char_traits@D@std@@V?$allocator@D@2@@std@@@2@V?$allocator@U?$pair@$$CBV?$basic_string@DU?$char_traits@D@std@@V?$allocator@D@2@@std@@V?$weak_ptr@VRawImageData@@@2@@std@@@2@@std@@QAE@XZ 0040f450 f i BackgroundTileObject.obj
 0001:0000e480       ??0?$shared_ptr@VRawImageData@@@std@@QAE@$$QAV01@@Z 0040f480 f i BackgroundTileObject.obj
 0001:0000e4c0       ??0?$shared_ptr@VRawImageData@@@std@@QAE@$$T@Z 0040f4c0 f i BackgroundTileObject.obj
 0001:0000e4e0       ??0?$shared_ptr@VRawImageData@@@std@@QAE@ABV01@@Z 0040f4e0 f i BackgroundTileObject.obj
 0001:0000e510       ??0?$shared_ptr@VRawImageData@@@std@@QAE@XZ 0040f510 f i BackgroundTileObject.obj
 0001:0000e530       ??0?$vector@HV?$allocator@H@std@@@std@@QAE@$$QAV01@@Z 0040f530 f i BackgroundTileObject.obj
 0001:0000e660       ??0?$vector@HV?$allocator@H@std@@@std@@QAE@ABV01@@Z 0040f660 f i BackgroundTileObject.obj
 0001:0000e6f0       ??0?$vector@HV?$allocator@H@std@@@std@@QAE@XZ 0040f6f0 f i BackgroundTileObject.obj
 0001:0000e780       ??0?$vector@V?$vector@HV?$allocator@H@std@@@std@@V?$allocator@V?$vector@HV?$allocator@H@std@@@std@@@2@@std@@QAE@XZ 0040f780 f i BackgroundTileObject.obj
 0001:0000e810       ??0?$weak_ptr@VRawImageData@@@std@@QAE@$$QAV01@@Z 0040f810 f i BackgroundTileObject.obj
 0001:0000e850       ??0?$weak_ptr@VRawImageData@@@std@@QAE@ABV01@@Z 0040f850 f i BackgroundTileObject.obj
 0001:0000e880       ??0BackgroundTileManager@@QAE@XZ 0040f880 f i BackgroundTileObject.obj
 0001:0000e930       ??0ImageManager@@QAE@XZ    0040f930 f i BackgroundTileObject.obj
 0001:0000e9a0       ??0RawImageData@@QAE@V?$basic_string@DU?$char_traits@D@std@@V?$allocator@D@2@@std@@@Z 0040f9a0 f i BackgroundTileObject.obj
 0001:0000ea50       ??0TileManager@@QAE@HHHH@Z 0040fa50 f i BackgroundTileObject.obj
 0001:0000eae0       ??0_Basic_container_proxy_ptr12@std@@IAE@XZ 0040fae0 f i BackgroundTileObject.obj
 0001:0000eb00       ??0_Bxty@?$_String_val@U?$_Simple_types@D@std@@@std@@QAE@XZ 0040fb00 f i BackgroundTileObject.obj
 0001:0000eb30       ??0_Container_base12@std@@QAE@XZ 0040fb30 f i BackgroundTileObject.obj
 0001:0000eb50       ??0_Container_proxy@std@@QAE@PAU_Container_base12@1@@Z 0040fb50 f i BackgroundTileObject.obj
 0001:0000eb80       ??0_Iterator_base12@std@@QAE@ABU01@@Z 0040fb80 f i BackgroundTileObject.obj
 0001:0000ebc0       ??0_Iterator_base12@std@@QAE@XZ 0040fbc0 f i BackgroundTileObject.obj
 0001:0000ebf0       ??0_Ref_count_base@std@@IAE@XZ 0040fbf0 f i BackgroundTileObject.obj
 0001:0000ec20       ??0_Sentry_base@?$basic_istream@DU?$char_traits@D@std@@@std@@QAE@AAV12@@Z 0040fc20 f i BackgroundTileObject.obj
 0001:0000ec80       ??0_Sentry_base@?$basic_ostream@DU?$char_traits@D@std@@@std@@QAE@AAV12@@Z 0040fc80 f i BackgroundTileObject.obj
 0001:0000ece0       ??0bad_alloc@std@@AAE@QBD@Z 0040fce0 f i BackgroundTileObject.obj
 0001:0000ed10       ??0bad_alloc@std@@QAE@ABV01@@Z 0040fd10 f i BackgroundTileObject.obj
 0001:0000ed40       ??0bad_array_new_length@std@@QAE@ABV01@@Z 0040fd40 f i BackgroundTileObject.obj
 0001:0000ed70       ??0bad_array_new_length@std@@QAE@XZ 0040fd70 f i BackgroundTileObject.obj
 0001:0000eda0       ??0bad_cast@std@@QAE@ABV01@@Z 0040fda0 f i BackgroundTileObject.obj
 0001:0000edd0       ??0bad_cast@std@@QAE@XZ    0040fdd0 f i BackgroundTileObject.obj
 0001:0000ee00       ??0exception@std@@QAE@ABV01@@Z 0040fe00 f i BackgroundTileObject.obj
 0001:0000ee50       ??0exception@std@@QAE@QBDH@Z 0040fe50 f i BackgroundTileObject.obj
 0001:0000ee90       ??0sentry@?$basic_istream@DU?$char_traits@D@std@@@std@@QAE@AAV12@_N@Z 0040fe90 f i BackgroundTileObject.obj
 0001:0000ef20       ??0sentry@?$basic_ostream@DU?$char_traits@D@std@@@std@@QAE@AAV12@@Z 0040ff20 f i BackgroundTileObject.obj
 0001:0000f020       ??1?$_Alloc_construct_ptr@V?$allocator@U?$_Tree_node@U?$pair@$$CBV?$basic_string@DU?$char_traits@D@std@@V?$allocator@D@2@@std@@V?$shared_ptr@VRawImageData@@@2@@std@@PAX@std@@@std@@@std@@QAE@XZ 00410020 f i BackgroundTileObject.obj
 0001:0000f090       ??1?$_Alloc_construct_ptr@V?$allocator@U?$_Tree_node@U?$pair@$$CBV?$basic_string@DU?$char_traits@D@std@@V?$allocator@D@2@@std@@V?$weak_ptr@VRawImageData@@@2@@std@@PAX@std@@@std@@@std@@QAE@XZ 00410090 f i BackgroundTileObject.obj
 0001:0000f100       ??1?$_Compressed_pair@V?$allocator@D@std@@V?$_String_val@U?$_Simple_types@D@std@@@2@$00@std@@QAE@XZ 00410100 f i BackgroundTileObject.obj
 0001:0000f120       ??1?$_Container_proxy_ptr12@V?$allocator@U_Container_proxy@std@@@std@@@std@@QAE@XZ 00410120 f i BackgroundTileObject.obj
 0001:0000f160       ??1?$_Ref_count@VRawImageData@@@std@@UAE@XZ 00410160 f i BackgroundTileObject.obj
 0001:0000f180       ??1?$_String_val@U?$_Simple_types@D@std@@@std@@QAE@XZ 00410180 f i BackgroundTileObject.obj
 0001:0000f1a0       ??1?$_Temporary_owner@VRawImageData@@@std@@QAE@XZ 004101a0 f i BackgroundTileObject.obj
 0001:0000f1e0       ??1?$_Tidy_guard@V?$vector@HV?$allocator@H@std@@@std@@@std@@QAE@XZ 004101e0 f i BackgroundTileObject.obj
 0001:0000f210       ??1?$_Tree@V?$_Tmap_traits@V?$basic_string@DU?$char_traits@D@std@@V?$allocator@D@2@@std@@V?$weak_ptr@VRawImageData@@@2@U?$less@V?$basic_string@DU?$char_traits@D@std@@V?$allocator@D@2@@std@@@2@V?$allocator@U?$pair@$$CBV?$basic_string@DU?$char_traits@D@std@@V?$allocator@D@2@@std@@V?$weak_ptr@VRawImageData@@@2@@std@@@2@$0A@@std@@@std@@QAE@XZ 00410210 f i BackgroundTileObject.obj
 0001:0000f280       ??1?$_Tree_const_iterator@V?$_Tree_val@U?$_Tree_simple_types@U?$pair@$$CBV?$basic_string@DU?$char_traits@D@std@@V?$allocator@D@2@@std@@V?$shared_ptr@VRawImageData@@@2@@std@@@std@@@std@@@std@@QAE@XZ 00410280 f i BackgroundTileObject.obj
 0001:0000f2a0       ??1?$_Tree_const_iterator@V?$_Tree_val@U?$_Tree_simple_types@U?$pair@$$CBV?$basic_string@DU?$char_traits@D@std@@V?$allocator@D@2@@std@@V?$weak_ptr@VRawImageData@@@2@@std@@@std@@@std@@@std@@QAE@XZ 004102a0 f i BackgroundTileObject.obj
 0001:0000f2c0       ??1?$_Tree_iterator@V?$_Tree_val@U?$_Tree_simple_types@U?$pair@$$CBV?$basic_string@DU?$char_traits@D@std@@V?$allocator@D@2@@std@@V?$shared_ptr@VRawImageData@@@2@@std@@@std@@@std@@@std@@QAE@XZ 004102c0 f i BackgroundTileObject.obj
 0001:0000f2e0       ??1?$_Tree_iterator@V?$_Tree_val@U?$_Tree_simple_types@U?$pair@$$CBV?$basic_string@DU?$char_traits@D@std@@V?$allocator@D@2@@std@@V?$weak_ptr@VRawImageData@@@2@@std@@@std@@@std@@@std@@QAE@XZ 004102e0 f i BackgroundTileObject.obj
 0001:0000f300       ??1?$_Tree_temp_node@V?$allocator@U?$_Tree_node@U?$pair@$$CBV?$basic_string@DU?$char_traits@D@std@@V?$allocator@D@2@@std@@V?$shared_ptr@VRawImageData@@@2@@std@@PAX@std@@@std@@@std@@QAE@XZ 00410300 f i BackgroundTileObject.obj
 0001:0000f3d0       ??1?$_Tree_temp_node@V?$allocator@U?$_Tree_node@U?$pair@$$CBV?$basic_string@DU?$char_traits@D@std@@V?$allocator@D@2@@std@@V?$weak_ptr@VRawImageData@@@2@@std@@PAX@std@@@std@@@std@@QAE@XZ 004103d0 f i BackgroundTileObject.obj
 0001:0000f4a0       ??1?$_Tree_temp_node_alloc@V?$allocator@U?$_Tree_node@U?$pair@$$CBV?$basic_string@DU?$char_traits@D@std@@V?$allocator@D@2@@std@@V?$shared_ptr@VRawImageData@@@2@@std@@PAX@std@@@std@@@std@@QAE@XZ 004104a0 f i BackgroundTileObject.obj
 0001:0000f4c0       ??1?$_Tree_temp_node_alloc@V?$allocator@U?$_Tree_node@U?$pair@$$CBV?$basic_string@DU?$char_traits@D@std@@V?$allocator@D@2@@std@@V?$weak_ptr@VRawImageData@@@2@@std@@PAX@std@@@std@@@std@@QAE@XZ 004104c0 f i BackgroundTileObject.obj
 0001:0000f4e0       ??1?$_Tree_unchecked_const_iterator@V?$_Tree_val@U?$_Tree_simple_types@U?$pair@$$CBV?$basic_string@DU?$char_traits@D@std@@V?$allocator@D@2@@std@@V?$shared_ptr@VRawImageData@@@2@@std@@@std@@@std@@U_Iterator_base12@2@@std@@QAE@XZ 004104e0 f i BackgroundTileObject.obj
 0001:0000f500       ??1?$_Tree_unchecked_const_iterator@V?$_Tree_val@U?$_Tree_simple_types@U?$pair@$$CBV?$basic_string@DU?$char_traits@D@std@@V?$allocator@D@2@@std@@V?$weak_ptr@VRawImageData@@@2@@std@@@std@@@std@@U_Iterator_base12@2@@std@@QAE@XZ 00410500 f i BackgroundTileObject.obj
 0001:0000f520       ??1?$_Uninitialized_backout_al@V?$allocator@H@std@@@std@@QAE@XZ 00410520 f i BackgroundTileObject.obj
 0001:0000f550       ??1?$_Uninitialized_backout_al@V?$allocator@V?$vector@HV?$allocator@H@std@@@std@@@std@@@std@@QAE@XZ 00410550 f i BackgroundTileObject.obj
 0001:0000f580       ??1?$basic_filebuf@DU?$char_traits@D@std@@@std@@UAE@XZ 00410580 f i BackgroundTileObject.obj
 0001:0000f610       ??1?$basic_ifstream@DU?$char_traits@D@std@@@std@@UAE@XZ 00410610 f i BackgroundTileObject.obj
 0001:0000f680       ??1?$basic_string@DU?$char_traits@D@std@@V?$allocator@D@2@@std@@QAE@XZ 00410680 f i BackgroundTileObject.obj
 0001:0000f6f0       ??1?$basic_stringbuf@DU?$char_traits@D@std@@V?$allocator@D@2@@std@@UAE@XZ 004106f0 f i BackgroundTileObject.obj
 0001:0000f720       ??1?$basic_stringstream@DU?$char_traits@D@std@@V?$allocator@D@2@@std@@UAE@XZ 00410720 f i BackgroundTileObject.obj
 0001:0000f790       ??1?$map@V?$basic_string@DU?$char_traits@D@std@@V?$allocator@D@2@@std@@V?$weak_ptr@VRawImageData@@@2@U?$less@V?$basic_string@DU?$char_traits@D@std@@V?$allocator@D@2@@std@@@2@V?$allocator@U?$pair@$$CBV?$basic_string@DU?$char_traits@D@std@@V?$allocator@D@2@@std@@V?$weak_ptr@VRawImageData@@@2@@std@@@2@@std@@QAE@XZ 00410790 f i BackgroundTileObject.obj
 0001:0000f7b0       ??1?$pair@$$CBV?$basic_string@DU?$char_traits@D@std@@V?$allocator@D@2@@std@@V?$shared_ptr@VRawImageData@@@2@@std@@QAE@XZ 004107b0 f i BackgroundTileObject.obj
 0001:0000f7e0       ??1?$pair@$$CBV?$basic_string@DU?$char_traits@D@std@@V?$allocator@D@2@@std@@V?$weak_ptr@VRawImageData@@@2@@std@@QAE@XZ 004107e0 f i BackgroundTileObject.obj
 0001:0000f810       ??1?$pair@V?$_Tree_iterator@V?$_Tree_val@U?$_Tree_simple_types@U?$pair@$$CBV?$basic_string@DU?$char_traits@D@std@@V?$allocator@D@2@@std@@V?$shared_ptr@VRawImageData@@@2@@std@@@std@@@std@@@std@@_N@std@@QAE@XZ 00410810 f i BackgroundTileObject.obj
 0001:0000f830       ??1?$pair@V?$_Tree_iterator@V?$_Tree_val@U?$_Tree_simple_types@U?$pair@$$CBV?$basic_string@DU?$char_traits@D@std@@V?$allocator@D@2@@std@@V?$weak_ptr@VRawImageData@@@2@@std@@@std@@@std@@@std@@_N@std@@QAE@XZ 00410830 f i BackgroundTileObject.obj
 0001:0000f850       ??1?$pair@V?$basic_string@DU?$char_traits@D@std@@V?$allocator@D@2@@std@@V?$shared_ptr@VRawImageData@@@2@@std@@QAE@XZ 00410850 f i BackgroundTileObject.obj
 0001:0000f880       ??1?$pair@V?$basic_string@DU?$char_traits@D@std@@V?$allocator@D@2@@std@@V?$weak_ptr@VRawImageData@@@2@@std@@QAE@XZ 00410880 f i BackgroundTileObject.obj
 0001:0000f8b0       ??1?$shared_ptr@VRawImageData@@@std@@QAE@XZ 004108b0 f i BackgroundTileObject.obj
 0001:0000f8d0       ??1?$unique_ptr@V_Facet_base@std@@U?$default_delete@V_Facet_base@std@@@2@@std@@QAE@XZ 004108d0 f i BackgroundTileObject.obj
 0001:0000f910       ??1?$vector@HV?$allocator@H@std@@@std@@QAE@XZ 00410910 f i BackgroundTileObject.obj
 0001:0000f980       ??1?$vector@V?$vector@HV?$allocator@H@std@@@std@@V?$allocator@V?$vector@HV?$allocator@H@std@@@std@@@2@@std@@QAE@XZ 00410980 f i BackgroundTileObject.obj
 0001:0000f9f0       ??1?$weak_ptr@VRawImageData@@@std@@QAE@XZ 004109f0 f i BackgroundTileObject.obj
 0001:0000fa10       ??1BackgroundTileManager@@UAE@XZ 00410a10 f i BackgroundTileObject.obj
 0001:0000fa40       ??1BackgroundTileObject@@UAE@XZ 00410a40 f i BackgroundTileObject.obj
 0001:0000fae0       ??1BaseEntity@@UAE@XZ      00410ae0 f i BackgroundTileObject.obj
 0001:0000fb40       ??1DrawingSurface@@QAE@XZ  00410b40 f i BackgroundTileObject.obj
 0001:0000fb50       ??1RawImageData@@QAE@XZ    00410b50 f i BackgroundTileObject.obj
 0001:0000fbc0       ??1SimpleImage@@QAE@XZ     00410bc0 f i BackgroundTileObject.obj
 0001:0000fc10       ??1TileManager@@UAE@XZ     00410c10 f i BackgroundTileObject.obj
 0001:0000fc60       ??1_Bxty@?$_String_val@U?$_Simple_types@D@std@@@std@@QAE@XZ 00410c60 f i BackgroundTileObject.obj
 0001:0000fc70       ??1_Iterator_base12@std@@QAE@XZ 00410c70 f i BackgroundTileObject.obj
 0001:0000fc90       ??1_Ref_count_base@std@@UAE@XZ 00410c90 f i BackgroundTileObject.obj
 0001:0000fca0       ??1_Sentry_base@?$basic_istream@DU?$char_traits@D@std@@@std@@QAE@XZ 00410ca0 f i BackgroundTileObject.obj
 0001:0000fd30       ??1_Sentry_base@?$basic_ostream@DU?$char_traits@D@std@@@std@@QAE@XZ 00410d30 f i BackgroundTileObject.obj
 0001:0000fdc0       ??1bad_alloc@std@@UAE@XZ   00410dc0 f i BackgroundTileObject.obj
 0001:0000fde0       ??1bad_array_new_length@std@@UAE@XZ 00410de0 f i BackgroundTileObject.obj
 0001:0000fe00       ??1bad_cast@std@@UAE@XZ    00410e00 f i BackgroundTileObject.obj
 0001:0000fe20       ??1exception@std@@UAE@XZ   00410e20 f i BackgroundTileObject.obj
 0001:0000fe50       ??1locale@std@@QAE@XZ      00410e50 f i BackgroundTileObject.obj
 0001:0000feb0       ??1sentry@?$basic_istream@DU?$char_traits@D@std@@@std@@QAE@XZ 00410eb0 f i BackgroundTileObject.obj
 0001:0000fed0       ??1sentry@?$basic_ostream@DU?$char_traits@D@std@@@std@@QAE@XZ 00410ed0 f i BackgroundTileObject.obj
 0001:0000ff30       ??2@YAPAXIPAX@Z            00410f30 f i BackgroundTileObject.obj
 0001:0000ff40       ??4?$basic_string@DU?$char_traits@D@std@@V?$allocator@D@2@@std@@QAEAAV01@QBD@Z 00410f40 f i BackgroundTileObject.obj
 0001:0000ff60       ??4_Iterator_base12@std@@QAEAAU01@ABU01@@Z 00410f60 f i BackgroundTileObject.obj
 0001:0000ff90       ??8?$_Tree_const_iterator@V?$_Tree_val@U?$_Tree_simple_types@U?$pair@$$CBV?$basic_string@DU?$char_traits@D@std@@V?$allocator@D@2@@std@@V?$weak_ptr@VRawImageData@@@2@@std@@@std@@@std@@@std@@QBE_NABV01@@Z 00410f90 f i BackgroundTileObject.obj
 0001:00010050       ??9?$_Tree_const_iterator@V?$_Tree_val@U?$_Tree_simple_types@U?$pair@$$CBV?$basic_string@DU?$char_traits@D@std@@V?$allocator@D@2@@std@@V?$weak_ptr@VRawImageData@@@2@@std@@@std@@@std@@@std@@QBE_NABV01@@Z 00411050 f i BackgroundTileObject.obj
 0001:000100a0       ??B?$fpos@U_Mbstatet@@@std@@QBE_JXZ 004110a0 f i BackgroundTileObject.obj
 0001:000100d0       ??Bsentry@?$basic_istream@DU?$char_traits@D@std@@@std@@QBE_NXZ 004110d0 f i BackgroundTileObject.obj
 0001:000100f0       ??Bsentry@?$basic_ostream@DU?$char_traits@D@std@@@std@@QBE_NXZ 004110f0 f i BackgroundTileObject.obj
 0001:00010110       ??C?$_Tree_iterator@V?$_Tree_val@U?$_Tree_simple_types@U?$pair@$$CBV?$basic_string@DU?$char_traits@D@std@@V?$allocator@D@2@@std@@V?$weak_ptr@VRawImageData@@@2@@std@@@std@@@std@@@std@@QBEPAU?$pair@$$CBV?$basic_string@DU?$char_traits@D@std@@V?$allocator@D@2@@std@@V?$weak_ptr@VRawImageData@@@2@@1@XZ 00411110 f i BackgroundTileObject.obj
 0001:00010140       ??D?$_Tree_const_iterator@V?$_Tree_val@U?$_Tree_simple_types@U?$pair@$$CBV?$basic_string@DU?$char_traits@D@std@@V?$allocator@D@2@@std@@V?$weak_ptr@VRawImageData@@@2@@std@@@std@@@std@@@std@@QBEABU?$pair@$$CBV?$basic_string@DU?$char_traits@D@std@@V?$allocator@D@2@@std@@V?$weak_ptr@VRawImageData@@@2@@1@XZ 00411140 f i BackgroundTileObject.obj
 0001:00010250       ??D?$_Tree_iterator@V?$_Tree_val@U?$_Tree_simple_types@U?$pair@$$CBV?$basic_string@DU?$char_traits@D@std@@V?$allocator@D@2@@std@@V?$weak_ptr@VRawImageData@@@2@@std@@@std@@@std@@@std@@QBEAAU?$pair@$$CBV?$basic_string@DU?$char_traits@D@std@@V?$allocator@D@2@@std@@V?$weak_ptr@VRawImageData@@@2@@1@XZ 00411250 f i BackgroundTileObject.obj
 0001:00010270       ??E?$_Tree_unchecked_const_iterator@V?$_Tree_val@U?$_Tree_simple_types@U?$pair@$$CBV?$basic_string@DU?$char_traits@D@std@@V?$allocator@D@2@@std@@V?$weak_ptr@VRawImageData@@@2@@std@@@std@@@std@@U_Iterator_base0@2@@std@@QAEAAV01@XZ 00411270 f i BackgroundTileObject.obj
 0001:00010300       ??R<lambda_15711c68e099a15a58f4d77303cb286d>@@QBE@QADQBDID@Z 00411300 f i BackgroundTileObject.obj
 0001:00010370       ??R<lambda_9366063389c5f42a00a5088cf24e69de>@@QBE@QADIQBD@Z 00411370 f i BackgroundTileObject.obj
 0001:000103c0       ??R<lambda_ab246b20b9526e2ef7792587e4298a77>@@QBE@QADQBDI1I@Z 004113c0 f i BackgroundTileObject.obj
 0001:00010430       ??R?$default_delete@V_Facet_base@std@@@std@@QBEXPAV_Facet_base@1@@Z 00411430 f i BackgroundTileObject.obj
 0001:00010480       ??R?$less@V?$basic_string@DU?$char_traits@D@std@@V?$allocator@D@2@@std@@@std@@QBE_NABV?$basic_string@DU?$char_traits@D@std@@V?$allocator@D@2@@1@0@Z 00411480 f i BackgroundTileObject.obj
 0001:000104b0       ??Y?$basic_string@DU?$char_traits@D@std@@V?$allocator@D@2@@std@@QAEAAV01@D@Z 004114b0 f i BackgroundTileObject.obj
 0001:000104e0       ??_D?$basic_ifstream@DU?$char_traits@D@std@@@std@@QAEXXZ 004114e0 f i BackgroundTileObject.obj
 0001:00010510       ??_D?$basic_stringstream@DU?$char_traits@D@std@@V?$allocator@D@2@@std@@QAEXXZ 00411510 f i BackgroundTileObject.obj
 0001:0001053b       ??_E?$basic_ifstream@DU?$char_traits@D@std@@@std@@$4PPPPPPPM@A@AEPAXI@Z 0041153b f i BackgroundTileObject.obj
 0001:00010545       ??_E?$basic_stringstream@DU?$char_traits@D@std@@V?$allocator@D@2@@std@@$4PPPPPPPM@A@AEPAXI@Z 00411545 f i BackgroundTileObject.obj
 0001:00010550       ??_E?$_Ref_count@VRawImageData@@@std@@UAEPAXI@Z 00411550 f i BackgroundTileObject.obj
 0001:00010550       ??_G?$_Ref_count@VRawImageData@@@std@@UAEPAXI@Z 00411550 f i BackgroundTileObject.obj
 0001:00010590       ??_E?$basic_filebuf@DU?$char_traits@D@std@@@std@@UAEPAXI@Z 00411590 f i BackgroundTileObject.obj
 0001:00010590       ??_G?$basic_filebuf@DU?$char_traits@D@std@@@std@@UAEPAXI@Z 00411590 f i BackgroundTileObject.obj
 0001:000105d0       ??_E?$basic_ifstream@DU?$char_traits@D@std@@@std@@UAEPAXI@Z 004115d0 f i BackgroundTileObject.obj
 0001:000105d0       ??_G?$basic_ifstream@DU?$char_traits@D@std@@@std@@UAEPAXI@Z 004115d0 f i BackgroundTileObject.obj
 0001:00010620       ??_E?$basic_stringbuf@DU?$char_traits@D@std@@V?$allocator@D@2@@std@@UAEPAXI@Z 00411620 f i BackgroundTileObject.obj
 0001:00010620       ??_G?$basic_stringbuf@DU?$char_traits@D@std@@V?$allocator@D@2@@std@@UAEPAXI@Z 00411620 f i BackgroundTileObject.obj
 0001:00010660       ??_E?$basic_stringstream@DU?$char_traits@D@std@@V?$allocator@D@2@@std@@UAEPAXI@Z 00411660 f i BackgroundTileObject.obj
 0001:00010660       ??_G?$basic_stringstream@DU?$char_traits@D@std@@V?$allocator@D@2@@std@@UAEPAXI@Z 00411660 f i BackgroundTileObject.obj
 0001:000106b0       ??_G?$pair@$$CBV?$basic_string@DU?$char_traits@D@std@@V?$allocator@D@2@@std@@V?$shared_ptr@VRawImageData@@@2@@std@@QAEPAXI@Z 004116b0 f i BackgroundTileObject.obj
 0001:000106f0       ??_G?$pair@$$CBV?$basic_string@DU?$char_traits@D@std@@V?$allocator@D@2@@std@@V?$weak_ptr@VRawImageData@@@2@@std@@QAEPAXI@Z 004116f0 f i BackgroundTileObject.obj
 0001:00010730       ??_G?$vector@HV?$allocator@H@std@@@std@@QAEPAXI@Z 00411730 f i BackgroundTileObject.obj
 0001:00010770       ??_EBackgroundTileManager@@UAEPAXI@Z 00411770 f i BackgroundTileObject.obj
 0001:00010770       ??_GBackgroundTileManager@@UAEPAXI@Z 00411770 f i BackgroundTileObject.obj
 0001:000107b0       ??_EBackgroundTileObject@@UAEPAXI@Z 004117b0 f i BackgroundTileObject.obj
 0001:000107b0       ??_GBackgroundTileObject@@UAEPAXI@Z 004117b0 f i BackgroundTileObject.obj
 0001:000107f0       ??_EBaseEntity@@UAEPAXI@Z  004117f0 f i BackgroundTileObject.obj
 0001:000107f0       ??_GBaseEntity@@UAEPAXI@Z  004117f0 f i BackgroundTileObject.obj
 0001:00010830       ??_GDrawingSurface@@QAEPAXI@Z 00411830 f i BackgroundTileObject.obj
 0001:00010870       ??_GRawImageData@@QAEPAXI@Z 00411870 f i BackgroundTileObject.obj
 0001:000108b0       ??_ETileManager@@UAEPAXI@Z 004118b0 f i BackgroundTileObject.obj
 0001:000108b0       ??_GTileManager@@UAEPAXI@Z 004118b0 f i BackgroundTileObject.obj
 0001:000108f0       ??_Ebad_alloc@std@@UAEPAXI@Z 004118f0 f i BackgroundTileObject.obj
 0001:000108f0       ??_Gbad_alloc@std@@UAEPAXI@Z 004118f0 f i BackgroundTileObject.obj
 0001:00010930       ??_Ebad_array_new_length@std@@UAEPAXI@Z 00411930 f i BackgroundTileObject.obj
 0001:00010930       ??_Gbad_array_new_length@std@@UAEPAXI@Z 00411930 f i BackgroundTileObject.obj
 0001:00010970       ??_Ebad_cast@std@@UAEPAXI@Z 00411970 f i BackgroundTileObject.obj
 0001:00010970       ??_Gbad_cast@std@@UAEPAXI@Z 00411970 f i BackgroundTileObject.obj
 0001:000109b0       ??_Eexception@std@@UAEPAXI@Z 004119b0 f i BackgroundTileObject.obj
 0001:000109b0       ??_Gexception@std@@UAEPAXI@Z 004119b0 f i BackgroundTileObject.obj
 0001:000109f0       ?_Activate_SSO_buffer@?$_String_val@U?$_Simple_types@D@std@@@std@@QAEXXZ 004119f0 f i BackgroundTileObject.obj
 0001:00010a00       ?_Adjust_manually_vector_aligned@std@@YAXAAPAXAAI@Z 00411a00 f i BackgroundTileObject.obj
 0001:00010b50       ?_Adopt@_Iterator_base0@std@@QAEXPBX@Z 00411b50 f i BackgroundTileObject.obj
 0001:00010b60       ?_Adopt@_Iterator_base12@std@@QAEXPBU_Container_base12@2@@Z 00411b60 f i BackgroundTileObject.obj
 0001:00010b80       ?_Adopt_locked@_Iterator_base12@std@@AAEXPBU_Container_base12@2@@Z 00411b80 f i BackgroundTileObject.obj
 0001:00010bc0       ?_Adopt_unlocked@_Iterator_base12@std@@AAEXPBU_Container_base12@2@@Z 00411bc0 f i BackgroundTileObject.obj
 0001:00010c40       ?_Alloc_sentinel_and_proxy@?$_Tree@V?$_Tmap_traits@V?$basic_string@DU?$char_traits@D@std@@V?$allocator@D@2@@std@@V?$shared_ptr@VRawImageData@@@2@U?$less@V?$basic_string@DU?$char_traits@D@std@@V?$allocator@D@2@@std@@@2@V?$allocator@U?$pair@$$CBV?$basic_string@DU?$char_traits@D@std@@V?$allocator@D@2@@std@@V?$shared_ptr@VRawImageData@@@2@@std@@@2@$0A@@std@@@std@@IAEXXZ 00411c40 f i BackgroundTileObject.obj
 0001:00010d10       ?_Alloc_sentinel_and_proxy@?$_Tree@V?$_Tmap_traits@V?$basic_string@DU?$char_traits@D@std@@V?$allocator@D@2@@std@@V?$weak_ptr@VRawImageData@@@2@U?$less@V?$basic_string@DU?$char_traits@D@std@@V?$allocator@D@2@@std@@@2@V?$allocator@U?$pair@$$CBV?$basic_string@DU?$char_traits@D@std@@V?$allocator@D@2@@std@@V?$weak_ptr@VRawImageData@@@2@@std@@@2@$0A@@std@@@std@@IAEXXZ 00411d10 f i BackgroundTileObject.obj
 0001:00010de0       ?_Allocate@?$_Alloc_construct_ptr@V?$allocator@U?$_Tree_node@U?$pair@$$CBV?$basic_string@DU?$char_traits@D@std@@V?$allocator@D@2@@std@@V?$shared_ptr@VRawImageData@@@2@@std@@PAX@std@@@std@@@std@@QAEXXZ 00411de0 f i BackgroundTileObject.obj
 0001:00010e10       ?_Allocate@?$_Alloc_construct_ptr@V?$allocator@U?$_Tree_node@U?$pair@$$CBV?$basic_string@DU?$char_traits@D@std@@V?$allocator@D@2@@std@@V?$weak_ptr@VRawImageData@@@2@@std@@PAX@std@@@std@@@std@@QAEXXZ 00411e10 f i BackgroundTileObject.obj
 0001:00010e40       ?_Allocate@_Default_allocate_traits@std@@SAPAXI@Z 00411e40 f i BackgroundTileObject.obj
 0001:00010e60       ?_Assign_locked@_Iterator_base12@std@@AAEXABU12@@Z 00411e60 f i BackgroundTileObject.obj
 0001:00010ea0       ?_Assign_unlocked@_Iterator_base12@std@@AAEXABU12@@Z 00411ea0 f i BackgroundTileObject.obj
 0001:00010ef0       ?_Buy_nonzero@?$vector@HV?$allocator@H@std@@@std@@AAEXI@Z 00411ef0 f i BackgroundTileObject.obj
 0001:00010f30       ?_Buy_raw@?$vector@HV?$allocator@H@std@@@std@@AAEXI@Z 00411f30 f i BackgroundTileObject.obj
 0001:00010fb0       ?_Calculate_growth@?$basic_string@DU?$char_traits@D@std@@V?$allocator@D@2@@std@@ABEII@Z 00411fb0 f i BackgroundTileObject.obj
 0001:00010ff0       ?_Calculate_growth@?$basic_string@DU?$char_traits@D@std@@V?$allocator@D@2@@std@@CAIIII@Z 00411ff0 f i BackgroundTileObject.obj
 0001:00011060       ?_Calculate_growth@?$vector@HV?$allocator@H@std@@@std@@ABEII@Z 00412060 f i BackgroundTileObject.obj
 0001:000110d0       ?_Calculate_growth@?$vector@V?$vector@HV?$allocator@H@std@@@std@@V?$allocator@V?$vector@HV?$allocator@H@std@@@std@@@2@@std@@ABEII@Z 004120d0 f i BackgroundTileObject.obj
 0001:00011140       ?_Change_array@?$vector@HV?$allocator@H@std@@@std@@AAEXQAHII@Z 00412140 f i BackgroundTileObject.obj
 0001:00011210       ?_Change_array@?$vector@V?$vector@HV?$allocator@H@std@@@std@@V?$allocator@V?$vector@HV?$allocator@H@std@@@std@@@2@@std@@AAEXQAV?$vector@HV?$allocator@H@std@@@2@II@Z 00412210 f i BackgroundTileObject.obj
 0001:000112e0       ?_Check_grow_by_1@?$_Tree@V?$_Tmap_traits@V?$basic_string@DU?$char_traits@D@std@@V?$allocator@D@2@@std@@V?$shared_ptr@VRawImageData@@@2@U?$less@V?$basic_string@DU?$char_traits@D@std@@V?$allocator@D@2@@std@@@2@V?$allocator@U?$pair@$$CBV?$basic_string@DU?$char_traits@D@std@@V?$allocator@D@2@@std@@V?$shared_ptr@VRawImageData@@@2@@std@@@2@$0A@@std@@@std@@IAEXXZ 004122e0 f i BackgroundTileObject.obj
 0001:00011320       ?_Check_grow_by_1@?$_Tree@V?$_Tmap_traits@V?$basic_string@DU?$char_traits@D@std@@V?$allocator@D@2@@std@@V?$weak_ptr@VRawImageData@@@2@U?$less@V?$basic_string@DU?$char_traits@D@std@@V?$allocator@D@2@@std@@@2@V?$allocator@U?$pair@$$CBV?$basic_string@DU?$char_traits@D@std@@V?$allocator@D@2@@std@@V?$weak_ptr@VRawImageData@@@2@@std@@@2@$0A@@std@@@std@@IAEXXZ 00412320 f i BackgroundTileObject.obj
 0001:00011360       ?_Check_offset@?$_String_val@U?$_Simple_types@D@std@@@std@@QBEXI@Z 00412360 f i BackgroundTileObject.obj
 0001:00011390       ?_Clamp_suffix_size@?$_String_val@U?$_Simple_types@D@std@@@std@@QBEIII@Z 00412390 f i BackgroundTileObject.obj
 0001:000113d0       ?_Construct_empty@?$basic_string@DU?$char_traits@D@std@@V?$allocator@D@2@@std@@AAEXXZ 004123d0 f i BackgroundTileObject.obj
 0001:00011460       ?_Deallocate_for_capacity@?$basic_string@DU?$char_traits@D@std@@V?$allocator@D@2@@std@@CAXAAV?$allocator@D@2@QADI@Z 00412460 f i BackgroundTileObject.obj
 0001:000114c0       ?_Decref@?$_Ptr_base@VRawImageData@@@std@@IAEXXZ 004124c0 f i BackgroundTileObject.obj
 0001:000114f0       ?_Decref@_Ref_count_base@std@@QAEXXZ 004124f0 f i BackgroundTileObject.obj
 0001:00011530       ?_Decwref@?$_Ptr_base@VRawImageData@@@std@@IAEXXZ 00412530 f i BackgroundTileObject.obj
 0001:00011560       ?_Decwref@_Ref_count_base@std@@QAEXXZ 00412560 f i BackgroundTileObject.obj
 0001:000115a0       ?_Delete_this@?$_Ref_count@VRawImageData@@@std@@EAEXXZ 004125a0 f i BackgroundTileObject.obj
 0001:000115f0       ?_Destroy@?$_Ref_count@VRawImageData@@@std@@EAEXXZ 004125f0 f i BackgroundTileObject.obj
 0001:00011630       ?_Endwrite@?$basic_filebuf@DU?$char_traits@D@std@@@std@@IAE_NXZ 00412630 f i BackgroundTileObject.obj
 0001:00011780       ?_Eos@?$basic_string@DU?$char_traits@D@std@@V?$allocator@D@2@@std@@AAEXI@Z 00412780 f i BackgroundTileObject.obj
 0001:000117d0       ?_Erase_noexcept@?$basic_string@DU?$char_traits@D@std@@V?$allocator@D@2@@std@@AAEAAV12@II@Z 004127d0 f i BackgroundTileObject.obj
 0001:00011860       ?_Erase_unchecked@?$_Tree@V?$_Tmap_traits@V?$basic_string@DU?$char_traits@D@std@@V?$allocator@D@2@@std@@V?$weak_ptr@VRawImageData@@@2@U?$less@V?$basic_string@DU?$char_traits@D@std@@V?$allocator@D@2@@std@@@2@V?$allocator@U?$pair@$$CBV?$basic_string@DU?$char_traits@D@std@@V?$allocator@D@2@@std@@V?$weak_ptr@VRawImageData@@@2@@std@@@2@$0A@@std@@@std@@AAEPAU?$_Tree_node@U?$pair@$$CBV?$basic_string@DU?$char_traits@D@std@@V?$allocator@D@2@@std@@V?$weak_ptr@VRawImageData@@@2@@std@@PAX@2@V?$_Tree_unchecked_const_iterator@V?$_Tree_val@U?$_Tree_simple_types@U?$pair@$$CBV?$basic_string@DU?$char_traits@D@std@@V?$allocator@D@2@@std@@V?$weak_ptr@VRawImageData@@@2@@std@@@std@@@std@@U_Iterator_base0@2@@2@@Z 00412860 f i BackgroundTileObject.obj
 0001:000118e0       ?_Extract@?$_In_place_key_extract_map@V?$basic_string@DU?$char_traits@D@std@@V?$allocator@D@2@@std@@U?$pair@V?$basic_string@DU?$char_traits@D@std@@V?$allocator@D@2@@std@@V?$shared_ptr@VRawImageData@@@2@@2@@std@@SAABV?$basic_string@DU?$char_traits@D@std@@V?$allocator@D@2@@2@ABU?$pair@V?$basic_string@DU?$char_traits@D@std@@V?$allocator@D@2@@std@@V?$shared_ptr@VRawImageData@@@2@@2@@Z 004128e0 f i BackgroundTileObject.obj
 0001:000118f0       ?_Extract@?$_In_place_key_extract_map@V?$basic_string@DU?$char_traits@D@std@@V?$allocator@D@2@@std@@U?$pair@V?$basic_string@DU?$char_traits@D@std@@V?$allocator@D@2@@std@@V?$weak_ptr@VRawImageData@@@2@@2@@std@@SAABV?$basic_string@DU?$char_traits@D@std@@V?$allocator@D@2@@2@ABU?$pair@V?$basic_string@DU?$char_traits@D@std@@V?$allocator@D@2@@std@@V?$weak_ptr@VRawImageData@@@2@@2@@Z 004128f0 f i BackgroundTileObject.obj
 0001:00011900       ?_Extract@?$_Tree_val@U?$_Tree_simple_types@U?$pair@$$CBV?$basic_string@DU?$char_traits@D@std@@V?$allocator@D@2@@std@@V?$weak_ptr@VRawImageData@@@2@@std@@@std@@@std@@QAEPAU?$_Tree_node@U?$pair@$$CBV?$basic_string@DU?$char_traits@D@std@@V?$allocator@D@2@@std@@V?$weak_ptr@VRawImageData@@@2@@std@@PAX@2@V?$_Tree_unchecked_const_iterator@V?$_Tree_val@U?$_Tree_simple_types@U?$pair@$$CBV?$basic_string@DU?$char_traits@D@std@@V?$allocator@D@2@@std@@V?$weak_ptr@VRawImageData@@@2@@std@@@std@@@std@@U_Iterator_base0@2@@2@@Z 00412900 f i BackgroundTileObject.obj
 0001:00011e40       ?_Get_deleter@_Ref_count_base@std@@UBEPAXABVtype_info@@@Z 00412e40 f i BackgroundTileObject.obj
 0001:00011e60       ?_Get_first@?$_Compressed_pair@U?$default_delete@V_Facet_base@std@@@std@@PAV_Facet_base@2@$00@std@@QAEAAU?$default_delete@V_Facet_base@std@@@2@XZ 00412e60 f i BackgroundTileObject.obj
 0001:00011e80       ?_Get_first@?$_Compressed_pair@U?$less@V?$basic_string@DU?$char_traits@D@std@@V?$allocator@D@2@@std@@@std@@V?$_Compressed_pair@V?$allocator@U?$_Tree_node@U?$pair@$$CBV?$basic_string@DU?$char_traits@D@std@@V?$allocator@D@2@@std@@V?$shared_ptr@VRawImageData@@@2@@std@@PAX@std@@@std@@V?$_Tree_val@U?$_Tree_simple_types@U?$pair@$$CBV?$basic_string@DU?$char_traits@D@std@@V?$allocator@D@2@@std@@V?$shared_ptr@VRawImageData@@@2@@std@@@std@@@2@$00@2@$00@std@@QBEABU?$less@V?$basic_string@DU?$char_traits@D@std@@V?$allocator@D@2@@std@@@2@XZ 00412e80 f i BackgroundTileObject.obj
 0001:00011ea0       ?_Get_first@?$_Compressed_pair@U?$less@V?$basic_string@DU?$char_traits@D@std@@V?$allocator@D@2@@std@@@std@@V?$_Compressed_pair@V?$allocator@U?$_Tree_node@U?$pair@$$CBV?$basic_string@DU?$char_traits@D@std@@V?$allocator@D@2@@std@@V?$weak_ptr@VRawImageData@@@2@@std@@PAX@std@@@std@@V?$_Tree_val@U?$_Tree_simple_types@U?$pair@$$CBV?$basic_string@DU?$char_traits@D@std@@V?$allocator@D@2@@std@@V?$weak_ptr@VRawImageData@@@2@@std@@@std@@@2@$00@2@$00@std@@QBEABU?$less@V?$basic_string@DU?$char_traits@D@std@@V?$allocator@D@2@@std@@@2@XZ 00412ea0 f i BackgroundTileObject.obj
 0001:00011ec0       ?_Get_first@?$_Compressed_pair@V?$allocator@D@std@@V?$_String_val@U?$_Simple_types@D@std@@@2@$00@std@@QAEAAV?$allocator@D@2@XZ 00412ec0 f i BackgroundTileObject.obj
 0001:00011ee0       ?_Get_first@?$_Compressed_pair@V?$allocator@D@std@@V?$_String_val@U?$_Simple_types@D@std@@@2@$00@std@@QBEABV?$allocator@D@2@XZ 00412ee0 f i BackgroundTileObject.obj
 0001:00011f00       ?_Get_first@?$_Compressed_pair@V?$allocator@H@std@@V?$_Vector_val@U?$_Simple_types@H@std@@@2@$00@std@@QAEAAV?$allocator@H@2@XZ 00412f00 f i BackgroundTileObject.obj
 0001:00011f20       ?_Get_first@?$_Compressed_pair@V?$allocator@H@std@@V?$_Vector_val@U?$_Simple_types@H@std@@@2@$00@std@@QBEABV?$allocator@H@2@XZ 00412f20 f i BackgroundTileObject.obj
 0001:00011f40       ?_Get_first@?$_Compressed_pair@V?$allocator@U?$_Tree_node@U?$pair@$$CBV?$basic_string@DU?$char_traits@D@std@@V?$allocator@D@2@@std@@V?$shared_ptr@VRawImageData@@@2@@std@@PAX@std@@@std@@V?$_Tree_val@U?$_Tree_simple_types@U?$pair@$$CBV?$basic_string@DU?$char_traits@D@std@@V?$allocator@D@2@@std@@V?$shared_ptr@VRawImageData@@@2@@std@@@std@@@2@$00@std@@QAEAAV?$allocator@U?$_Tree_node@U?$pair@$$CBV?$basic_string@DU?$char_traits@D@std@@V?$allocator@D@2@@std@@V?$shared_ptr@VRawImageData@@@2@@std@@PAX@std@@@2@XZ 00412f40 f i BackgroundTileObject.obj
 0001:00011f60       ?_Get_first@?$_Compressed_pair@V?$allocator@U?$_Tree_node@U?$pair@$$CBV?$basic_string@DU?$char_traits@D@std@@V?$allocator@D@2@@std@@V?$shared_ptr@VRawImageData@@@2@@std@@PAX@std@@@std@@V?$_Tree_val@U?$_Tree_simple_types@U?$pair@$$CBV?$basic_string@DU?$char_traits@D@std@@V?$allocator@D@2@@std@@V?$shared_ptr@VRawImageData@@@2@@std@@@std@@@2@$00@std@@QBEABV?$allocator@U?$_Tree_node@U?$pair@$$CBV?$basic_string@DU?$char_traits@D@std@@V?$allocator@D@2@@std@@V?$shared_ptr@VRawImageData@@@2@@std@@PAX@std@@@2@XZ 00412f60 f i BackgroundTileObject.obj
 0001:00011f80       ?_Get_first@?$_Compressed_pair@V?$allocator@U?$_Tree_node@U?$pair@$$CBV?$basic_string@DU?$char_traits@D@std@@V?$allocator@D@2@@std@@V?$weak_ptr@VRawImageData@@@2@@std@@PAX@std@@@std@@V?$_Tree_val@U?$_Tree_simple_types@U?$pair@$$CBV?$basic_string@DU?$char_traits@D@std@@V?$allocator@D@2@@std@@V?$weak_ptr@VRawImageData@@@2@@std@@@std@@@2@$00@std@@QAEAAV?$allocator@U?$_Tree_node@U?$pair@$$CBV?$basic_string@DU?$char_traits@D@std@@V?$allocator@D@2@@std@@V?$weak_ptr@VRawImageData@@@2@@std@@PAX@std@@@2@XZ 00412f80 f i BackgroundTileObject.obj
 0001:00011fa0       ?_Get_first@?$_Compressed_pair@V?$allocator@U?$_Tree_node@U?$pair@$$CBV?$basic_string@DU?$char_traits@D@std@@V?$allocator@D@2@@std@@V?$weak_ptr@VRawImageData@@@2@@std@@PAX@std@@@std@@V?$_Tree_val@U?$_Tree_simple_types@U?$pair@$$CBV?$basic_string@DU?$char_traits@D@std@@V?$allocator@D@2@@std@@V?$weak_ptr@VRawImageData@@@2@@std@@@std@@@2@$00@std@@QBEABV?$allocator@U?$_Tree_node@U?$pair@$$CBV?$basic_string@DU?$char_traits@D@std@@V?$allocator@D@2@@std@@V?$weak_ptr@VRawImageData@@@2@@std@@PAX@std@@@2@XZ 00412fa0 f i BackgroundTileObject.obj
 0001:00011fc0       ?_Get_first@?$_Compressed_pair@V?$allocator@V?$vector@HV?$allocator@H@std@@@std@@@std@@V?$_Vector_val@U?$_Simple_types@V?$vector@HV?$allocator@H@std@@@std@@@std@@@2@$00@std@@QAEAAV?$allocator@V?$vector@HV?$allocator@H@std@@@std@@@2@XZ 00412fc0 f i BackgroundTileObject.obj
 0001:00011fe0       ?_Get_first@?$_Compressed_pair@V?$allocator@V?$vector@HV?$allocator@H@std@@@std@@@std@@V?$_Vector_val@U?$_Simple_types@V?$vector@HV?$allocator@H@std@@@std@@@std@@@2@$00@std@@QBEABV?$allocator@V?$vector@HV?$allocator@H@std@@@std@@@2@XZ 00412fe0 f i BackgroundTileObject.obj
 0001:00012000       ?_Get_scary@?$_Tree@V?$_Tmap_traits@V?$basic_string@DU?$char_traits@D@std@@V?$allocator@D@2@@std@@V?$shared_ptr@VRawImageData@@@2@U?$less@V?$basic_string@DU?$char_traits@D@std@@V?$allocator@D@2@@std@@@2@V?$allocator@U?$pair@$$CBV?$basic_string@DU?$char_traits@D@std@@V?$allocator@D@2@@std@@V?$shared_ptr@VRawImageData@@@2@@std@@@2@$0A@@std@@@std@@IAEPAV?$_Tree_val@U?$_Tree_simple_types@U?$pair@$$CBV?$basic_string@DU?$char_traits@D@std@@V?$allocator@D@2@@std@@V?$shared_ptr@VRawImageData@@@2@@std@@@std@@@2@XZ 00413000 f i BackgroundTileObject.obj
 0001:00012020       ?_Get_scary@?$_Tree@V?$_Tmap_traits@V?$basic_string@DU?$char_traits@D@std@@V?$allocator@D@2@@std@@V?$shared_ptr@VRawImageData@@@2@U?$less@V?$basic_string@DU?$char_traits@D@std@@V?$allocator@D@2@@std@@@2@V?$allocator@U?$pair@$$CBV?$basic_string@DU?$char_traits@D@std@@V?$allocator@D@2@@std@@V?$shared_ptr@VRawImageData@@@2@@std@@@2@$0A@@std@@@std@@IBEPBV?$_Tree_val@U?$_Tree_simple_types@U?$pair@$$CBV?$basic_string@DU?$char_traits@D@std@@V?$allocator@D@2@@std@@V?$shared_ptr@VRawImageData@@@2@@std@@@std@@@2@XZ 00413020 f i BackgroundTileObject.obj
 0001:00012040       ?_Get_scary@?$_Tree@V?$_Tmap_traits@V?$basic_string@DU?$char_traits@D@std@@V?$allocator@D@2@@std@@V?$weak_ptr@VRawImageData@@@2@U?$less@V?$basic_string@DU?$char_traits@D@std@@V?$allocator@D@2@@std@@@2@V?$allocator@U?$pair@$$CBV?$basic_string@DU?$char_traits@D@std@@V?$allocator@D@2@@std@@V?$weak_ptr@VRawImageData@@@2@@std@@@2@$0A@@std@@@std@@IAEPAV?$_Tree_val@U?$_Tree_simple_types@U?$pair@$$CBV?$basic_string@DU?$char_traits@D@std@@V?$allocator@D@2@@std@@V?$weak_ptr@VRawImageData@@@2@@std@@@std@@@2@XZ 00413040 f i BackgroundTileObject.obj
 0001:00012060       ?_Get_scary@?$_Tree@V?$_Tmap_traits@V?$basic_string@DU?$char_traits@D@std@@V?$allocator@D@2@@std@@V?$weak_ptr@VRawImageData@@@2@U?$less@V?$basic_string@DU?$char_traits@D@std@@V?$allocator@D@2@@std@@@2@V?$allocator@U?$pair@$$CBV?$basic_string@DU?$char_traits@D@std@@V?$allocator@D@2@@std@@V?$weak_ptr@VRawImageData@@@2@@std@@@2@$0A@@std@@@std@@IBEPBV?$_Tree_val@U?$_Tree_simple_types@U?$pair@$$CBV?$basic_string@DU?$char_traits@D@std@@V?$allocator@D@2@@std@@V?$weak_ptr@VRawImageData@@@2@@std@@@std@@@2@XZ 00413060 f i BackgroundTileObject.obj
 0001:00012080       ?_Getal@?$_Tree@V?$_Tmap_traits@V?$basic_string@DU?$char_traits@D@std@@V?$allocator@D@2@@std@@V?$shared_ptr@VRawImageData@@@2@U?$less@V?$basic_string@DU?$char_traits@D@std@@V?$allocator@D@2@@std@@@2@V?$allocator@U?$pair@$$CBV?$basic_string@DU?$char_traits@D@std@@V?$allocator@D@2@@std@@V?$shared_ptr@VRawImageData@@@2@@std@@@2@$0A@@std@@@std@@IAEAAV?$allocator@U?$_Tree_node@U?$pair@$$CBV?$basic_string@DU?$char_traits@D@std@@V?$allocator@D@2@@std@@V?$shared_ptr@VRawImageData@@@2@@std@@PAX@std@@@2@XZ 00413080 f i BackgroundTileObject.obj
 0001:000120a0       ?_Getal@?$_Tree@V?$_Tmap_traits@V?$basic_string@DU?$char_traits@D@std@@V?$allocator@D@2@@std@@V?$shared_ptr@VRawImageData@@@2@U?$less@V?$basic_string@DU?$char_traits@D@std@@V?$allocator@D@2@@std@@@2@V?$allocator@U?$pair@$$CBV?$basic_string@DU?$char_traits@D@std@@V?$allocator@D@2@@std@@V?$shared_ptr@VRawImageData@@@2@@std@@@2@$0A@@std@@@std@@IBEABV?$allocator@U?$_Tree_node@U?$pair@$$CBV?$basic_string@DU?$char_traits@D@std@@V?$allocator@D@2@@std@@V?$shared_ptr@VRawImageData@@@2@@std@@PAX@std@@@2@XZ 004130a0 f i BackgroundTileObject.obj
 0001:000120c0       ?_Getal@?$_Tree@V?$_Tmap_traits@V?$basic_string@DU?$char_traits@D@std@@V?$allocator@D@2@@std@@V?$weak_ptr@VRawImageData@@@2@U?$less@V?$basic_string@DU?$char_traits@D@std@@V?$allocator@D@2@@std@@@2@V?$allocator@U?$pair@$$CBV?$basic_string@DU?$char_traits@D@std@@V?$allocator@D@2@@std@@V?$weak_ptr@VRawImageData@@@2@@std@@@2@$0A@@std@@@std@@IAEAAV?$allocator@U?$_Tree_node@U?$pair@$$CBV?$basic_string@DU?$char_traits@D@std@@V?$allocator@D@2@@std@@V?$weak_ptr@VRawImageData@@@2@@std@@PAX@std@@@2@XZ 004130c0 f i BackgroundTileObject.obj
 0001:000120e0       ?_Getal@?$_Tree@V?$_Tmap_traits@V?$basic_string@DU?$char_traits@D@std@@V?$allocator@D@2@@std@@V?$weak_ptr@VRawImageData@@@2@U?$less@V?$basic_string@DU?$char_traits@D@std@@V?$allocator@D@2@@std@@@2@V?$allocator@U?$pair@$$CBV?$basic_string@DU?$char_traits@D@std@@V?$allocator@D@2@@std@@V?$weak_ptr@VRawImageData@@@2@@std@@@2@$0A@@std@@@std@@IBEABV?$allocator@U?$_Tree_node@U?$pair@$$CBV?$basic_string@DU?$char_traits@D@std@@V?$allocator@D@2@@std@@V?$weak_ptr@VRawImageData@@@2@@std@@PAX@std@@@2@XZ 004130e0 f i BackgroundTileObject.obj
 0001:00012100       ?_Getal@?$basic_string@DU?$char_traits@D@std@@V?$allocator@D@2@@std@@AAEAAV?$allocator@D@2@XZ 00413100 f i BackgroundTileObject.obj
 0001:00012120       ?_Getal@?$basic_string@DU?$char_traits@D@std@@V?$allocator@D@2@@std@@ABEABV?$allocator@D@2@XZ 00413120 f i BackgroundTileObject.obj
 0001:00012140       ?_Getal@?$vector@HV?$allocator@H@std@@@std@@AAEAAV?$allocator@H@2@XZ 00413140 f i BackgroundTileObject.obj
 0001:00012160       ?_Getal@?$vector@HV?$allocator@H@std@@@std@@ABEABV?$allocator@H@2@XZ 00413160 f i BackgroundTileObject.obj
 0001:00012180       ?_Getal@?$vector@V?$vector@HV?$allocator@H@std@@@std@@V?$allocator@V?$vector@HV?$allocator@H@std@@@std@@@2@@std@@AAEAAV?$allocator@V?$vector@HV?$allocator@H@std@@@std@@@2@XZ 00413180 f i BackgroundTileObject.obj
 0001:000121a0       ?_Getal@?$vector@V?$vector@HV?$allocator@H@std@@@std@@V?$allocator@V?$vector@HV?$allocator@H@std@@@std@@@2@@std@@ABEABV?$allocator@V?$vector@HV?$allocator@H@std@@@std@@@2@XZ 004131a0 f i BackgroundTileObject.obj
 0001:000121c0       ?_Getcomp@?$_Tree@V?$_Tmap_traits@V?$basic_string@DU?$char_traits@D@std@@V?$allocator@D@2@@std@@V?$shared_ptr@VRawImageData@@@2@U?$less@V?$basic_string@DU?$char_traits@D@std@@V?$allocator@D@2@@std@@@2@V?$allocator@U?$pair@$$CBV?$basic_string@DU?$char_traits@D@std@@V?$allocator@D@2@@std@@V?$shared_ptr@VRawImageData@@@2@@std@@@2@$0A@@std@@@std@@IBEABU?$less@V?$basic_string@DU?$char_traits@D@std@@V?$allocator@D@2@@std@@@2@XZ 004131c0 f i BackgroundTileObject.obj
 0001:000121e0       ?_Getcomp@?$_Tree@V?$_Tmap_traits@V?$basic_string@DU?$char_traits@D@std@@V?$allocator@D@2@@std@@V?$weak_ptr@VRawImageData@@@2@U?$less@V?$basic_string@DU?$char_traits@D@std@@V?$allocator@D@2@@std@@@2@V?$allocator@U?$pair@$$CBV?$basic_string@DU?$char_traits@D@std@@V?$allocator@D@2@@std@@V?$weak_ptr@VRawImageData@@@2@@std@@@2@$0A@@std@@@std@@IBEABU?$less@V?$basic_string@DU?$char_traits@D@std@@V?$allocator@D@2@@std@@@2@XZ 004131e0 f i BackgroundTileObject.obj
 0001:00012200       ?_Getcont@_Iterator_base12@std@@QBEPBU_Container_base12@2@XZ 00413200 f i BackgroundTileObject.obj
 0001:00012240       ?_Getfacet@locale@std@@QBEPBVfacet@12@I@Z 00413240 f i BackgroundTileObject.obj
 0001:000122e0       ?_Getstate@?$basic_stringbuf@DU?$char_traits@D@std@@V?$allocator@D@2@@std@@CAHH@Z 004132e0 f i BackgroundTileObject.obj
 0001:00012350       ?_Incref@?$_Ptr_base@VRawImageData@@@std@@IBEXXZ 00413350 f i BackgroundTileObject.obj
 0001:00012380       ?_Incref@_Ref_count_base@std@@QAEXXZ 00413380 f i BackgroundTileObject.obj
 0001:000123a0       ?_Incref_nz@_Ref_count_base@std@@QAE_NXZ 004133a0 f i BackgroundTileObject.obj
 0001:00012410       ?_Incwref@_Ref_count_base@std@@QAEXXZ 00413410 f i BackgroundTileObject.obj
 0001:00012430       ?_Init@?$basic_filebuf@DU?$char_traits@D@std@@@std@@IAEXPAU_iobuf@@W4_Initfl@12@@Z 00413430 f i BackgroundTileObject.obj
 0001:00012530       ?_Init@?$basic_stringbuf@DU?$char_traits@D@std@@V?$allocator@D@2@@std@@IAEXPBDIH@Z 00413530 f i BackgroundTileObject.obj
 0001:000126a0       ?_Initcvt@?$basic_filebuf@DU?$char_traits@D@std@@@std@@IAEXABV?$codecvt@DDU_Mbstatet@@@2@@Z 004136a0 f i BackgroundTileObject.obj
 0001:00012700       ?_Insert_node@?$_Tree_val@U?$_Tree_simple_types@U?$pair@$$CBV?$basic_string@DU?$char_traits@D@std@@V?$allocator@D@2@@std@@V?$shared_ptr@VRawImageData@@@2@@std@@@std@@@std@@QAEPAU?$_Tree_node@U?$pair@$$CBV?$basic_string@DU?$char_traits@D@std@@V?$allocator@D@2@@std@@V?$shared_ptr@VRawImageData@@@2@@std@@PAX@2@U?$_Tree_id@PAU?$_Tree_node@U?$pair@$$CBV?$basic_string@DU?$char_traits@D@std@@V?$allocator@D@2@@std@@V?$shared_ptr@VRawImageData@@@2@@std@@PAX@std@@@2@QAU32@@Z 00413700 f i BackgroundTileObject.obj
 0001:00012990       ?_Insert_node@?$_Tree_val@U?$_Tree_simple_types@U?$pair@$$CBV?$basic_string@DU?$char_traits@D@std@@V?$allocator@D@2@@std@@V?$weak_ptr@VRawImageData@@@2@@std@@@std@@@std@@QAEPAU?$_Tree_node@U?$pair@$$CBV?$basic_string@DU?$char_traits@D@std@@V?$allocator@D@2@@std@@V?$weak_ptr@VRawImageData@@@2@@std@@PAX@2@U?$_Tree_id@PAU?$_Tree_node@U?$pair@$$CBV?$basic_string@DU?$char_traits@D@std@@V?$allocator@D@2@@std@@V?$weak_ptr@VRawImageData@@@2@@std@@PAX@std@@@2@QAU32@@Z 00413990 f i BackgroundTileObject.obj
 0001:00012c20       ?_Large_mode_engaged@?$_String_val@U?$_Simple_types@D@std@@@std@@QBE_NXZ 00413c20 f i BackgroundTileObject.obj
 0001:00012c60       ?_Lock@?$basic_filebuf@DU?$char_traits@D@std@@@std@@UAEXXZ 00413c60 f i BackgroundTileObject.obj
 0001:00012c90       ?_Lrotate@?$_Tree_val@U?$_Tree_simple_types@U?$pair@$$CBV?$basic_string@DU?$char_traits@D@std@@V?$allocator@D@2@@std@@V?$shared_ptr@VRawImageData@@@2@@std@@@std@@@std@@QAEXPAU?$_Tree_node@U?$pair@$$CBV?$basic_string@DU?$char_traits@D@std@@V?$allocator@D@2@@std@@V?$shared_ptr@VRawImageData@@@2@@std@@PAX@2@@Z 00413c90 f i BackgroundTileObject.obj
 0001:00012d50       ?_Lrotate@?$_Tree_val@U?$_Tree_simple_types@U?$pair@$$CBV?$basic_string@DU?$char_traits@D@std@@V?$allocator@D@2@@std@@V?$weak_ptr@VRawImageData@@@2@@std@@@std@@@std@@QAEXPAU?$_Tree_node@U?$pair@$$CBV?$basic_string@DU?$char_traits@D@std@@V?$allocator@D@2@@std@@V?$weak_ptr@VRawImageData@@@2@@std@@PAX@2@@Z 00413d50 f i BackgroundTileObject.obj
 0001:00012e10       ?_Max@?$_Tree_val@U?$_Tree_simple_types@U?$pair@$$CBV?$basic_string@DU?$char_traits@D@std@@V?$allocator@D@2@@std@@V?$weak_ptr@VRawImageData@@@2@@std@@@std@@@std@@SAPAU?$_Tree_node@U?$pair@$$CBV?$basic_string@DU?$char_traits@D@std@@V?$allocator@D@2@@std@@V?$weak_ptr@VRawImageData@@@2@@std@@PAX@2@PAU32@@Z 00413e10 f i BackgroundTileObject.obj
 0001:00012e40       ?_Min@?$_Tree_val@U?$_Tree_simple_types@U?$pair@$$CBV?$basic_string@DU?$char_traits@D@std@@V?$allocator@D@2@@std@@V?$weak_ptr@VRawImageData@@@2@@std@@@std@@@std@@SAPAU?$_Tree_node@U?$pair@$$CBV?$basic_string@DU?$char_traits@D@std@@V?$allocator@D@2@@std@@V?$weak_ptr@VRawImageData@@@2@@std@@PAX@2@PAU32@@Z 00413e40 f i BackgroundTileObject.obj
 0001:00012e70       ?_Myptr@?$_String_val@U?$_Simple_types@D@std@@@std@@QAEPADXZ 00413e70 f i BackgroundTileObject.obj
 0001:00012ec0       ?_Myptr@?$_String_val@U?$_Simple_types@D@std@@@std@@QBEPBDXZ 00413ec0 f i BackgroundTileObject.obj
 0001:00012f10       ?_Orphan_all@_Container_base12@std@@QAEXXZ 00413f10 f i BackgroundTileObject.obj
 0001:00012f30       ?_Orphan_all_locked_v3@_Container_base12@std@@AAEXXZ 00413f30 f i BackgroundTileObject.obj
 0001:00012f70       ?_Orphan_all_unlocked_v3@_Container_base12@std@@AAEXXZ 00413f70 f i BackgroundTileObject.obj
 0001:00012fe0       ?_Orphan_me_locked_v3@_Iterator_base12@std@@AAEXXZ 00413fe0 f i BackgroundTileObject.obj
 0001:00013020       ?_Orphan_me_unlocked_v3@_Iterator_base12@std@@AAEXXZ 00414020 f i BackgroundTileObject.obj
 0001:00013100       ?_Orphan_ptr@?$_Tree_val@U?$_Tree_simple_types@U?$pair@$$CBV?$basic_string@DU?$char_traits@D@std@@V?$allocator@D@2@@std@@V?$weak_ptr@VRawImageData@@@2@@std@@@std@@@std@@QAEXQAU?$_Tree_node@U?$pair@$$CBV?$basic_string@DU?$char_traits@D@std@@V?$allocator@D@2@@std@@V?$weak_ptr@VRawImageData@@@2@@std@@PAX@2@@Z 00414100 f i BackgroundTileObject.obj
 0001:000131b0       ?_Orphan_range@?$vector@HV?$allocator@H@std@@@std@@ABEXPAH0@Z 004141b0 f i BackgroundTileObject.obj
 0001:000131e0       ?_Orphan_range@?$vector@V?$vector@HV?$allocator@H@std@@@std@@V?$allocator@V?$vector@HV?$allocator@H@std@@@std@@@2@@std@@ABEXPAV?$vector@HV?$allocator@H@std@@@2@0@Z 004141e0 f i BackgroundTileObject.obj
 0001:00013210       ?_Orphan_range_locked@?$vector@HV?$allocator@H@std@@@std@@ABEXPAH0@Z 00414210 f i BackgroundTileObject.obj
 0001:000132a0       ?_Orphan_range_locked@?$vector@V?$vector@HV?$allocator@H@std@@@std@@V?$allocator@V?$vector@HV?$allocator@H@std@@@std@@@2@@std@@ABEXPAV?$vector@HV?$allocator@H@std@@@2@0@Z 004142a0 f i BackgroundTileObject.obj
 0001:00013330       ?_Orphan_range_unlocked@?$vector@HV?$allocator@H@std@@@std@@ABEXPAH0@Z 00414330 f i BackgroundTileObject.obj
 0001:000133b0       ?_Orphan_range_unlocked@?$vector@V?$vector@HV?$allocator@H@std@@@std@@V?$allocator@V?$vector@HV?$allocator@H@std@@@std@@@2@@std@@ABEXPAV?$vector@HV?$allocator@H@std@@@2@0@Z 004143b0 f i BackgroundTileObject.obj
 0001:00013430       ?_Release@?$_Alloc_construct_ptr@V?$allocator@U?$_Tree_node@U?$pair@$$CBV?$basic_string@DU?$char_traits@D@std@@V?$allocator@D@2@@std@@V?$shared_ptr@VRawImageData@@@2@@std@@PAX@std@@@std@@@std@@QAEPAU?$_Tree_node@U?$pair@$$CBV?$basic_string@DU?$char_traits@D@std@@V?$allocator@D@2@@std@@V?$shared_ptr@VRawImageData@@@2@@std@@PAX@2@XZ 00414430 f i BackgroundTileObject.obj
 0001:00013460       ?_Release@?$_Alloc_construct_ptr@V?$allocator@U?$_Tree_node@U?$pair@$$CBV?$basic_string@DU?$char_traits@D@std@@V?$allocator@D@2@@std@@V?$weak_ptr@VRawImageData@@@2@@std@@PAX@std@@@std@@@std@@QAEPAU?$_Tree_node@U?$pair@$$CBV?$basic_string@DU?$char_traits@D@std@@V?$allocator@D@2@@std@@V?$weak_ptr@VRawImageData@@@2@@std@@PAX@2@XZ 00414460 f i BackgroundTileObject.obj
 0001:00013490       ?_Release@?$_Uninitialized_backout_al@V?$allocator@H@std@@@std@@QAEPAHXZ 00414490 f i BackgroundTileObject.obj
 0001:000134c0       ?_Release@?$_Uninitialized_backout_al@V?$allocator@V?$vector@HV?$allocator@H@std@@@std@@@std@@@std@@QAEPAV?$vector@HV?$allocator@H@std@@@2@XZ 004144c0 f i BackgroundTileObject.obj
 0001:000134f0       ?_Release@_Basic_container_proxy_ptr12@std@@QAEXXZ 004144f0 f i BackgroundTileObject.obj
 0001:00013510       ?_Reset_back@?$basic_filebuf@DU?$char_traits@D@std@@@std@@AAEXXZ 00414510 f i BackgroundTileObject.obj
 0001:00013560       ?_Rrotate@?$_Tree_val@U?$_Tree_simple_types@U?$pair@$$CBV?$basic_string@DU?$char_traits@D@std@@V?$allocator@D@2@@std@@V?$shared_ptr@VRawImageData@@@2@@std@@@std@@@std@@QAEXPAU?$_Tree_node@U?$pair@$$CBV?$basic_string@DU?$char_traits@D@std@@V?$allocator@D@2@@std@@V?$shared_ptr@VRawImageData@@@2@@std@@PAX@2@@Z 00414560 f i BackgroundTileObject.obj
 0001:00013630       ?_Rrotate@?$_Tree_val@U?$_Tree_simple_types@U?$pair@$$CBV?$basic_string@DU?$char_traits@D@std@@V?$allocator@D@2@@std@@V?$weak_ptr@VRawImageData@@@2@@std@@@std@@@std@@QAEXPAU?$_Tree_node@U?$pair@$$CBV?$basic_string@DU?$char_traits@D@std@@V?$allocator@D@2@@std@@V?$weak_ptr@VRawImageData@@@2@@std@@PAX@2@@Z 00414630 f i BackgroundTileObject.obj
 0001:00013700       ?_Set_back@?$basic_filebuf@DU?$char_traits@D@std@@@std@@AAEXXZ 00414700 f i BackgroundTileObject.obj
 0001:00013780       ?_Swap_proxy_and_iterators@?$basic_string@DU?$char_traits@D@std@@V?$allocator@D@2@@std@@AAEXAAV12@@Z 00414780 f i BackgroundTileObject.obj
 0001:000137a0       ?_Swap_proxy_and_iterators@_Container_base12@std@@QAEXAAU12@@Z 004147a0 f i BackgroundTileObject.obj
 0001:000137c0       ?_Swap_proxy_and_iterators_locked@_Container_base12@std@@AAEXAAU12@@Z 004147c0 f i BackgroundTileObject.obj
 0001:00013800       ?_Swap_proxy_and_iterators_unlocked@_Container_base12@std@@AAEXAAU12@@Z 00414800 f i BackgroundTileObject.obj
 0001:00013860       ?_Switch_to_buf@_Bxty@?$_String_val@U?$_Simple_types@D@std@@@std@@QAEXXZ 00414860 f i BackgroundTileObject.obj
 0001:00013880       ?_Take_contents@?$basic_string@DU?$char_traits@D@std@@V?$allocator@D@2@@std@@AAEXAAV12@@Z 00414880 f i BackgroundTileObject.obj
 0001:00013a60       ?_Throw_bad_array_new_length@std@@YAXXZ 00414a60 f i BackgroundTileObject.obj
 0001:00013a90       ?_Throw_bad_cast@std@@YAXXZ 00414a90 f i BackgroundTileObject.obj
 0001:00013ac0       ?_Throw_tree_length_error@std@@YAXXZ 00414ac0 f i BackgroundTileObject.obj
 0001:00013ae0       ?_Tidy@?$basic_stringbuf@DU?$char_traits@D@std@@V?$allocator@D@2@@std@@IAEXXZ 00414ae0 f i BackgroundTileObject.obj
 0001:00013bf0       ?_Tidy@?$vector@HV?$allocator@H@std@@@std@@AAEXXZ 00414bf0 f i BackgroundTileObject.obj
 0001:00013cf0       ?_Tidy@?$vector@V?$vector@HV?$allocator@H@std@@@std@@V?$allocator@V?$vector@HV?$allocator@H@std@@@std@@@2@@std@@AAEXXZ 00414cf0 f i BackgroundTileObject.obj
 0001:00013df0       ?_Tidy_deallocate@?$basic_string@DU?$char_traits@D@std@@V?$allocator@D@2@@std@@AAEXXZ 00414df0 f i BackgroundTileObject.obj
 0001:00013eb0       ?_Unlock@?$basic_filebuf@DU?$char_traits@D@std@@@std@@UAEXXZ 00414eb0 f i BackgroundTileObject.obj
 0001:00013ee0       ?_Unwrapped@?$_Tree_iterator@V?$_Tree_val@U?$_Tree_simple_types@U?$pair@$$CBV?$basic_string@DU?$char_traits@D@std@@V?$allocator@D@2@@std@@V?$weak_ptr@VRawImageData@@@2@@std@@@std@@@std@@@std@@QBE?AV?$_Tree_unchecked_iterator@V?$_Tree_val@U?$_Tree_simple_types@U?$pair@$$CBV?$basic_string@DU?$char_traits@D@std@@V?$allocator@D@2@@std@@V?$weak_ptr@VRawImageData@@@2@@std@@@std@@@std@@@2@XZ 00414ee0 f i BackgroundTileObject.obj
 0001:00013f20       ?_Use_count@_Ref_count_base@std@@QBEJXZ 00414f20 f i BackgroundTileObject.obj
 0001:00013f40       ?_Xlen_string@std@@YAXXZ   00414f40 f i BackgroundTileObject.obj
 0001:00013f60       ?_Xlength@?$vector@HV?$allocator@H@std@@@std@@CAXXZ 00414f60 f i BackgroundTileObject.obj
 0001:00013f80       ?_Xlength@?$vector@V?$vector@HV?$allocator@H@std@@@std@@V?$allocator@V?$vector@HV?$allocator@H@std@@@std@@@2@@std@@CAXXZ 00414f80 f i BackgroundTileObject.obj
 0001:00013fa0       ?_Xran@?$_String_val@U?$_Simple_types@D@std@@@std@@SAXXZ 00414fa0 f i BackgroundTileObject.obj
 0001:00013fc0       ?_Xrange@?$vector@HV?$allocator@H@std@@@std@@CAXXZ 00414fc0 f i BackgroundTileObject.obj
 0001:00013fe0       ?_Xrange@?$vector@V?$vector@HV?$allocator@H@std@@@std@@V?$allocator@V?$vector@HV?$allocator@H@std@@@std@@@2@@std@@CAXXZ 00414fe0 f i BackgroundTileObject.obj
 0001:00014000       ?allocate@?$allocator@D@std@@QAEPADI@Z 00415000 f i BackgroundTileObject.obj
 0001:00014030       ?allocate@?$allocator@H@std@@QAEPAHI@Z 00415030 f i BackgroundTileObject.obj
 0001:00014060       ?allocate@?$allocator@U?$_Tree_node@U?$pair@$$CBV?$basic_string@DU?$char_traits@D@std@@V?$allocator@D@2@@std@@V?$shared_ptr@VRawImageData@@@2@@std@@PAX@std@@@std@@QAEPAU?$_Tree_node@U?$pair@$$CBV?$basic_string@DU?$char_traits@D@std@@V?$allocator@D@2@@std@@V?$shared_ptr@VRawImageData@@@2@@std@@PAX@2@I@Z 00415060 f i BackgroundTileObject.obj
 0001:00014090       ?allocate@?$allocator@U?$_Tree_node@U?$pair@$$CBV?$basic_string@DU?$char_traits@D@std@@V?$allocator@D@2@@std@@V?$weak_ptr@VRawImageData@@@2@@std@@PAX@std@@@std@@QAEPAU?$_Tree_node@U?$pair@$$CBV?$basic_string@DU?$char_traits@D@std@@V?$allocator@D@2@@std@@V?$weak_ptr@VRawImageData@@@2@@std@@PAX@2@I@Z 00415090 f i BackgroundTileObject.obj
 0001:000140c0       ?allocate@?$allocator@U_Container_proxy@std@@@std@@QAEPAU_Container_proxy@2@I@Z 004150c0 f i BackgroundTileObject.obj
 0001:000140f0       ?allocate@?$allocator@V?$vector@HV?$allocator@H@std@@@std@@@std@@QAEPAV?$vector@HV?$allocator@H@std@@@2@I@Z 004150f0 f i BackgroundTileObject.obj
 0001:00014120       ?append@?$basic_string@DU?$char_traits@D@std@@V?$allocator@D@2@@std@@QAEAAV12@QBD@Z 00415120 f i BackgroundTileObject.obj
 0001:00014160       ?append@?$basic_string@DU?$char_traits@D@std@@V?$allocator@D@2@@std@@QAEAAV12@QBDI@Z 00415160 f i BackgroundTileObject.obj
 0001:00014220       ?assign@?$_Narrow_char_traits@DH@std@@SAXAADABD@Z 00415220 f i BackgroundTileObject.obj
 0001:00014240       ?assign@?$basic_string@DU?$char_traits@D@std@@V?$allocator@D@2@@std@@QAEAAV12@QBD@Z 00415240 f i BackgroundTileObject.obj
 0001:00014280       ?assign@?$basic_string@DU?$char_traits@D@std@@V?$allocator@D@2@@std@@QAEAAV12@QBDI@Z 00415280 f i BackgroundTileObject.obj
 0001:00014320       ?at@?$vector@HV?$allocator@H@std@@@std@@QAEAAHI@Z 00415320 f i BackgroundTileObject.obj
 0001:00014370       ?at@?$vector@V?$vector@HV?$allocator@H@std@@@std@@V?$allocator@V?$vector@HV?$allocator@H@std@@@std@@@2@@std@@QAEAAV?$vector@HV?$allocator@H@std@@@2@I@Z 00415370 f i BackgroundTileObject.obj
 0001:000143c0       ?c_str@?$basic_string@DU?$char_traits@D@std@@V?$allocator@D@2@@std@@QBEPBDXZ 004153c0 f i BackgroundTileObject.obj
 0001:000143e0       ?capacity@?$vector@HV?$allocator@H@std@@@std@@QBEIXZ 004153e0 f i BackgroundTileObject.obj
 0001:00014410       ?capacity@?$vector@V?$vector@HV?$allocator@H@std@@@std@@V?$allocator@V?$vector@HV?$allocator@H@std@@@std@@@2@@std@@QBEIXZ 00415410 f i BackgroundTileObject.obj
 0001:00014440       ?changeState@BaseEntity@@UAEXW4AnimationState@1@@Z 00415440 f i BackgroundTileObject.obj
 0001:00014450       ?clear@?$vector@HV?$allocator@H@std@@@std@@QAEXXZ 00415450 f i BackgroundTileObject.obj
 0001:000144d0       ?clear@?$vector@V?$vector@HV?$allocator@H@std@@@std@@V?$allocator@V?$vector@HV?$allocator@H@std@@@std@@@2@@std@@QAEXXZ 004154d0 f i BackgroundTileObject.obj
 0001:00014550       ?close@?$basic_filebuf@DU?$char_traits@D@std@@@std@@QAEPAV12@XZ 00415550 f i BackgroundTileObject.obj
 0001:000145e0       ?close@?$basic_ifstream@DU?$char_traits@D@std@@@std@@QAEXXZ 004155e0 f i BackgroundTileObject.obj
 0001:00014620       ?compare@?$_Narrow_char_traits@DH@std@@SAHQBD0I@Z 00415620 f i BackgroundTileObject.obj
 0001:00014640       ?compare@?$basic_string@DU?$char_traits@D@std@@V?$allocator@D@2@@std@@QBEHABV12@@Z 00415640 f i BackgroundTileObject.obj
 0001:00014690       ?coordOutBounds@BackgroundTileObject@@QBE_NHH@Z 00415690 f i BackgroundTileObject.obj
 0001:000146f0       ?copy@?$_Char_traits@DH@std@@SAPADQADQBDI@Z 004156f0 f i BackgroundTileObject.obj
 0001:00014720       ?createSurface@DrawingSurface@@QAEXHH@Z 00415720 f i BackgroundTileObject.obj
 0001:00014770       ?data@?$basic_string@DU?$char_traits@D@std@@V?$allocator@D@2@@std@@QBEPBDXZ 00415770 f i BackgroundTileObject.obj
 0001:00014790       ?deallocate@?$_Default_allocator_traits@V?$allocator@U?$_Tree_node@U?$pair@$$CBV?$basic_string@DU?$char_traits@D@std@@V?$allocator@D@2@@std@@V?$weak_ptr@VRawImageData@@@2@@std@@PAX@std@@@std@@@std@@SAXAAV?$allocator@U?$_Tree_node@U?$pair@$$CBV?$basic_string@DU?$char_traits@D@std@@V?$allocator@D@2@@std@@V?$weak_ptr@VRawImageData@@@2@@std@@PAX@std@@@2@QAU?$_Tree_node@U?$pair@$$CBV?$basic_string@DU?$char_traits@D@std@@V?$allocator@D@2@@std@@V?$weak_ptr@VRawImageData@@@2@@std@@PAX@2@I@Z 00415790 f i BackgroundTileObject.obj
 0001:000147b0       ?deallocate@?$_Default_allocator_traits@V?$allocator@U_Container_proxy@std@@@std@@@std@@SAXAAV?$allocator@U_Container_proxy@std@@@2@QAU_Container_proxy@2@I@Z 004157b0 f i BackgroundTileObject.obj
 0001:000147d0       ?deallocate@?$allocator@D@std@@QAEXQADI@Z 004157d0 f i BackgroundTileObject.obj
 0001:00014870       ?deallocate@?$allocator@H@std@@QAEXQAHI@Z 00415870 f i BackgroundTileObject.obj
 0001:00014910       ?deallocate@?$allocator@U?$_Tree_node@U?$pair@$$CBV?$basic_string@DU?$char_traits@D@std@@V?$allocator@D@2@@std@@V?$shared_ptr@VRawImageData@@@2@@std@@PAX@std@@@std@@QAEXQAU?$_Tree_node@U?$pair@$$CBV?$basic_string@DU?$char_traits@D@std@@V?$allocator@D@2@@std@@V?$shared_ptr@VRawImageData@@@2@@std@@PAX@2@I@Z 00415910 f i BackgroundTileObject.obj
 0001:000149b0       ?deallocate@?$allocator@U?$_Tree_node@U?$pair@$$CBV?$basic_string@DU?$char_traits@D@std@@V?$allocator@D@2@@std@@V?$weak_ptr@VRawImageData@@@2@@std@@PAX@std@@@std@@QAEXQAU?$_Tree_node@U?$pair@$$CBV?$basic_string@DU?$char_traits@D@std@@V?$allocator@D@2@@std@@V?$weak_ptr@VRawImageData@@@2@@std@@PAX@2@I@Z 004159b0 f i BackgroundTileObject.obj
 0001:00014a50       ?deallocate@?$allocator@V?$vector@HV?$allocator@H@std@@@std@@@std@@QAEXQAV?$vector@HV?$allocator@H@std@@@2@I@Z 00415a50 f i BackgroundTileObject.obj
 0001:00014af0       ?deleteOnRemoval@DisplayableObject@@UBE_NXZ 00415af0 f i BackgroundTileObject.obj
 0001:00014b10       ?end@?$_Tree@V?$_Tmap_traits@V?$basic_string@DU?$char_traits@D@std@@V?$allocator@D@2@@std@@V?$weak_ptr@VRawImageData@@@2@U?$less@V?$basic_string@DU?$char_traits@D@std@@V?$allocator@D@2@@std@@@2@V?$allocator@U?$pair@$$CBV?$basic_string@DU?$char_traits@D@std@@V?$allocator@D@2@@std@@V?$weak_ptr@VRawImageData@@@2@@std@@@2@$0A@@std@@@std@@QAE?AV?$_Tree_iterator@V?$_Tree_val@U?$_Tree_simple_types@U?$pair@$$CBV?$basic_string@DU?$char_traits@D@std@@V?$allocator@D@2@@std@@V?$weak_ptr@VRawImageData@@@2@@std@@@std@@@std@@@2@XZ 00415b10 f i BackgroundTileObject.obj
 0001:00014b50       ?eof@?$_Narrow_char_traits@DH@std@@SAHXZ 00415b50 f i BackgroundTileObject.obj
 0001:00014b60       ?eq@?$_Narrow_char_traits@DH@std@@SA_NDD@Z 00415b60 f i BackgroundTileObject.obj
 0001:00014ba0       ?eq_int_type@?$_Narrow_char_traits@DH@std@@SA_NHH@Z 00415ba0 f i BackgroundTileObject.obj
 0001:00014bd0       ?erase@?$basic_string@DU?$char_traits@D@std@@V?$allocator@D@2@@std@@QAEAAV12@I@Z 00415bd0 f i BackgroundTileObject.obj
 0001:00014c10       ?erase@?$basic_string@DU?$char_traits@D@std@@V?$allocator@D@2@@std@@QAEAAV12@II@Z 00415c10 f i BackgroundTileObject.obj
 0001:00014c50       ?expired@?$weak_ptr@VRawImageData@@@std@@QBE_NXZ 00415c50 f i BackgroundTileObject.obj
 0001:00014c90       ?fillSurface@DrawingSurface@@QAEXI@Z 00415c90 f i BackgroundTileObject.obj
 0001:00014d30       ?find@?$_Tree@V?$_Tmap_traits@V?$basic_string@DU?$char_traits@D@std@@V?$allocator@D@2@@std@@V?$weak_ptr@VRawImageData@@@2@U?$less@V?$basic_string@DU?$char_traits@D@std@@V?$allocator@D@2@@std@@@2@V?$allocator@U?$pair@$$CBV?$basic_string@DU?$char_traits@D@std@@V?$allocator@D@2@@std@@V?$weak_ptr@VRawImageData@@@2@@std@@@2@$0A@@std@@@std@@QAE?AV?$_Tree_iterator@V?$_Tree_val@U?$_Tree_simple_types@U?$pair@$$CBV?$basic_string@DU?$char_traits@D@std@@V?$allocator@D@2@@std@@V?$weak_ptr@VRawImageData@@@2@@std@@@std@@@std@@@2@ABV?$basic_string@DU?$char_traits@D@std@@V?$allocator@D@2@@2@@Z 00415d30 f i BackgroundTileObject.obj
 0001:00014d80       ?freeSurface@RawImageData@@QAEXXZ 00415d80 f i BackgroundTileObject.obj
 0001:00014e00       ?front@?$basic_string@DU?$char_traits@D@std@@V?$allocator@D@2@@std@@QAEAADXZ 00415e00 f i BackgroundTileObject.obj
 0001:00014ea0       ?get@?$_Ptr_base@VRawImageData@@@std@@IBEPAVRawImageData@@XZ 00415ea0 f i BackgroundTileObject.obj
 0001:00014ec0       ?get@ImageManager@@SAPAV1@XZ 00415ec0 f i BackgroundTileObject.obj
 0001:00014f70       ?getBackgroundSurface@BaseEngine@@QAEPAVDrawingSurface@@XZ 00415f70 f i BackgroundTileObject.obj
 0001:00014f90       ?getCanMove@PlayerObject@@QAE_NXZ 00415f90 f i BackgroundTileObject.obj
 0001:00014fb0       ?getEngine@DisplayableObject@@QBEPAVBaseEngine@@XZ 00415fb0 f i BackgroundTileObject.obj
 0001:00014fd0       ?getHitBoxMaxX@PlayerObject@@QAEHXZ 00415fd0 f i BackgroundTileObject.obj
 0001:00014ff0       ?getHitBoxMaxY@PlayerObject@@QAEHXZ 00415ff0 f i BackgroundTileObject.obj
 0001:00015010       ?getHitBoxMinX@PlayerObject@@QAEHXZ 00416010 f i BackgroundTileObject.obj
 0001:00015030       ?getHitBoxMinY@PlayerObject@@QAEHXZ 00416030 f i BackgroundTileObject.obj
 0001:00015050       ?getImagePtrbyURL@ImageManager@@QAE?AV?$shared_ptr@VRawImageData@@@std@@V?$basic_string@DU?$char_traits@D@std@@V?$allocator@D@2@@3@_N1@Z 00416050 f i BackgroundTileObject.obj
 0001:00015490       ?getImagebyURL@ImageManager@@QAE?AVSimpleImage@@V?$basic_string@DU?$char_traits@D@std@@V?$allocator@D@2@@std@@_N1@Z 00416490 f i BackgroundTileObject.obj
 0001:00015560       ?getPlayer@GameEngine@@QAEPAVPlayerObject@@XZ 00416560 f i BackgroundTileObject.obj
 0001:00015580       ?getSurfaceHeight@DrawingSurface@@QBEHXZ 00416580 f i BackgroundTileObject.obj
 0001:000155a0       ?getSurfaceWidth@DrawingSurface@@QBEHXZ 004165a0 f i BackgroundTileObject.obj
 0001:000155c0       ?getXForRotationAndCrop@RawImageData@@SAHHHHHHH@Z 004165c0 f i BackgroundTileObject.obj
 0001:00015630       ?getYForRotationAndCrop@RawImageData@@SAHHHHHHH@Z 00416630 f i BackgroundTileObject.obj
 0001:000156a0       ?get_allocator@?$basic_string@DU?$char_traits@D@std@@V?$allocator@D@2@@std@@QBE?AV?$allocator@D@2@XZ 004166a0 f i BackgroundTileObject.obj
 0001:000156c0       ?imbue@?$basic_filebuf@DU?$char_traits@D@std@@@std@@MAEXABVlocale@2@@Z 004166c0 f i BackgroundTileObject.obj
 0001:000156f0       ?isVisible@DisplayableObject@@QBE_NXZ 004166f0 f i BackgroundTileObject.obj
 0001:00015710       ?length@?$_Narrow_char_traits@DH@std@@SAIQBD@Z 00416710 f i BackgroundTileObject.obj
 0001:00015730       ?loadAsNew@ImageManager@@QAE?AV?$shared_ptr@VRawImageData@@@std@@V?$basic_string@DU?$char_traits@D@std@@V?$allocator@D@2@@3@@Z 00416730 f i BackgroundTileObject.obj
 0001:00015900       ?loadImage@ImageManager@@SA?AVSimpleImage@@V?$basic_string@DU?$char_traits@D@std@@V?$allocator@D@2@@std@@_N@Z 00416900 f i BackgroundTileObject.obj
 0001:000159c0       ?loadImage@RawImageData@@QAE_NV?$basic_string@DU?$char_traits@D@std@@V?$allocator@D@2@@std@@HHHHH_N@Z 004169c0 f i BackgroundTileObject.obj
 0001:00015cd0       ?lock@?$weak_ptr@VRawImageData@@@std@@QBE?AV?$shared_ptr@VRawImageData@@@2@XZ 00416cd0 f i BackgroundTileObject.obj
 0001:00015d20       ?max_size@?$_Default_allocator_traits@V?$allocator@D@std@@@std@@SAIABV?$allocator@D@2@@Z 00416d20 f i BackgroundTileObject.obj
 0001:00015d30       ?max_size@?$_Default_allocator_traits@V?$allocator@H@std@@@std@@SAIABV?$allocator@H@2@@Z 00416d30 f i BackgroundTileObject.obj
 0001:00015d40       ?max_size@?$_Default_allocator_traits@V?$allocator@U?$_Tree_node@U?$pair@$$CBV?$basic_string@DU?$char_traits@D@std@@V?$allocator@D@2@@std@@V?$shared_ptr@VRawImageData@@@2@@std@@PAX@std@@@std@@@std@@SAIABV?$allocator@U?$_Tree_node@U?$pair@$$CBV?$basic_string@DU?$char_traits@D@std@@V?$allocator@D@2@@std@@V?$shared_ptr@VRawImageData@@@2@@std@@PAX@std@@@2@@Z 00416d40 f i BackgroundTileObject.obj
 0001:00015d50       ?max_size@?$_Default_allocator_traits@V?$allocator@U?$_Tree_node@U?$pair@$$CBV?$basic_string@DU?$char_traits@D@std@@V?$allocator@D@2@@std@@V?$weak_ptr@VRawImageData@@@2@@std@@PAX@std@@@std@@@std@@SAIABV?$allocator@U?$_Tree_node@U?$pair@$$CBV?$basic_string@DU?$char_traits@D@std@@V?$allocator@D@2@@std@@V?$weak_ptr@VRawImageData@@@2@@std@@PAX@std@@@2@@Z 00416d50 f i BackgroundTileObject.obj
 0001:00015d60       ?max_size@?$_Default_allocator_traits@V?$allocator@V?$vector@HV?$allocator@H@std@@@std@@@std@@@std@@SAIABV?$allocator@V?$vector@HV?$allocator@H@std@@@std@@@2@@Z 00416d60 f i BackgroundTileObject.obj
 0001:00015d70       ?max_size@?$_Tree@V?$_Tmap_traits@V?$basic_string@DU?$char_traits@D@std@@V?$allocator@D@2@@std@@V?$shared_ptr@VRawImageData@@@2@U?$less@V?$basic_string@DU?$char_traits@D@std@@V?$allocator@D@2@@std@@@2@V?$allocator@U?$pair@$$CBV?$basic_string@DU?$char_traits@D@std@@V?$allocator@D@2@@std@@V?$shared_ptr@VRawImageData@@@2@@std@@@2@$0A@@std@@@std@@QBEIXZ 00416d70 f i BackgroundTileObject.obj
 0001:00015dc0       ?max_size@?$_Tree@V?$_Tmap_traits@V?$basic_string@DU?$char_traits@D@std@@V?$allocator@D@2@@std@@V?$weak_ptr@VRawImageData@@@2@U?$less@V?$basic_string@DU?$char_traits@D@std@@V?$allocator@D@2@@std@@@2@V?$allocator@U?$pair@$$CBV?$basic_string@DU?$char_traits@D@std@@V?$allocator@D@2@@std@@V?$weak_ptr@VRawImageData@@@2@@std@@@2@$0A@@std@@@std@@QBEIXZ 00416dc0 f i BackgroundTileObject.obj
 0001:00015e10       ?max_size@?$basic_string@DU?$char_traits@D@std@@V?$allocator@D@2@@std@@QBEIXZ 00416e10 f i BackgroundTileObject.obj
 0001:00015e90       ?max_size@?$vector@HV?$allocator@H@std@@@std@@QBEIXZ 00416e90 f i BackgroundTileObject.obj
 0001:00015ee0       ?max_size@?$vector@V?$vector@HV?$allocator@H@std@@@std@@V?$allocator@V?$vector@HV?$allocator@H@std@@@std@@@2@@std@@QBEIXZ 00416ee0 f i BackgroundTileObject.obj
 0001:00015f30       ?move@?$_Char_traits@DH@std@@SAPADQADQBDI@Z 00416f30 f i BackgroundTileObject.obj
 0001:00015f60       ?mySDLTempRelockSurface@DrawingSurface@@QAEXXZ 00416f60 f i BackgroundTileObject.obj
 0001:00015fb0       ?mySDLTempUnlockSurface@DrawingSurface@@QAEXXZ 00416fb0 f i BackgroundTileObject.obj
 0001:00016000       ?not_eof@?$_Narrow_char_traits@DH@std@@SAHH@Z 00417000 f i BackgroundTileObject.obj
 0001:00016050       ?open@?$basic_filebuf@DU?$char_traits@D@std@@@std@@QAEPAV12@PBDHH@Z 00417050 f i BackgroundTileObject.obj
 0001:00016140       ?overflow@?$basic_filebuf@DU?$char_traits@D@std@@@std@@MAEHH@Z 00417140 f i BackgroundTileObject.obj
 0001:00016390       ?overflow@?$basic_stringbuf@DU?$char_traits@D@std@@V?$allocator@D@2@@std@@MAEHH@Z 00417390 f i BackgroundTileObject.obj
 0001:00016610       ?pbackfail@?$basic_filebuf@DU?$char_traits@D@std@@@std@@MAEHH@Z 00417610 f i BackgroundTileObject.obj
 0001:000167b0       ?pbackfail@?$basic_stringbuf@DU?$char_traits@D@std@@V?$allocator@D@2@@std@@MAEHH@Z 004177b0 f i BackgroundTileObject.obj
 0001:000168c0       ?pointer_to@?$pointer_traits@PAD@std@@SAPADAAD@Z 004178c0 f i BackgroundTileObject.obj
 0001:000168e0       ?pointer_to@?$pointer_traits@PAU?$pair@$$CBV?$basic_string@DU?$char_traits@D@std@@V?$allocator@D@2@@std@@V?$weak_ptr@VRawImageData@@@2@@std@@@std@@SAPAU?$pair@$$CBV?$basic_string@DU?$char_traits@D@std@@V?$allocator@D@2@@std@@V?$weak_ptr@VRawImageData@@@2@@2@AAU32@@Z 004178e0 f i BackgroundTileObject.obj
 0001:00016900       ?push_back@?$basic_string@DU?$char_traits@D@std@@V?$allocator@D@2@@std@@QAEXD@Z 00417900 f i BackgroundTileObject.obj
 0001:000169b0       ?push_back@?$vector@HV?$allocator@H@std@@@std@@QAEX$$QAH@Z 004179b0 f i BackgroundTileObject.obj
 0001:000169e0       ?push_back@?$vector@V?$vector@HV?$allocator@H@std@@@std@@V?$allocator@V?$vector@HV?$allocator@H@std@@@std@@@2@@std@@QAEXABV?$vector@HV?$allocator@H@std@@@2@@Z 004179e0 f i BackgroundTileObject.obj
 0001:00016a00       ?release@?$unique_ptr@V_Facet_base@std@@U?$default_delete@V_Facet_base@std@@@2@@std@@QAEPAV_Facet_base@2@XZ 00417a00 f i BackgroundTileObject.obj
 0001:00016a30       ?seekoff@?$basic_filebuf@DU?$char_traits@D@std@@@std@@MAE?AV?$fpos@U_Mbstatet@@@2@_JHH@Z 00417a30 f i BackgroundTileObject.obj
 0001:00016b40       ?seekoff@?$basic_stringbuf@DU?$char_traits@D@std@@V?$allocator@D@2@@std@@MAE?AV?$fpos@U_Mbstatet@@@2@_JHH@Z 00417b40 f i BackgroundTileObject.obj
 0001:00016e50       ?seekpos@?$basic_filebuf@DU?$char_traits@D@std@@@std@@MAE?AV?$fpos@U_Mbstatet@@@2@V32@H@Z 00417e50 f i BackgroundTileObject.obj
 0001:00016f20       ?seekpos@?$basic_stringbuf@DU?$char_traits@D@std@@V?$allocator@D@2@@std@@MAE?AV?$fpos@U_Mbstatet@@@2@V32@H@Z 00417f20 f i BackgroundTileObject.obj
 0001:00017150       ?select_on_container_copy_construction@?$_Default_allocator_traits@V?$allocator@D@std@@@std@@SA?AV?$allocator@D@2@ABV32@@Z 00418150 f i BackgroundTileObject.obj
 0001:00017160       ?select_on_container_copy_construction@?$_Default_allocator_traits@V?$allocator@H@std@@@std@@SA?AV?$allocator@H@2@ABV32@@Z 00418160 f i BackgroundTileObject.obj
 0001:00017170       ?setDrawPointsFilter@DrawingSurface@@QAEXPAVFilterPoints@@@Z 00418170 f i BackgroundTileObject.obj
 0001:00017190       ?setMapSize@TileManager@@QAEXHH@Z 00418190 f i BackgroundTileObject.obj
 0001:00017240       ?setMapValue@TileManager@@QAEHHHH@Z 00418240 f i BackgroundTileObject.obj
 0001:00017280       ?setPosition@DisplayableObject@@UAEXHH@Z 00418280 f i BackgroundTileObject.obj
 0001:000172c0       ?setTopLeftPositionOnScreen@TileManager@@QAEXHH@Z 004182c0 f i BackgroundTileObject.obj
 0001:000172f0       ?setVisible@DisplayableObject@@QAEX_N@Z 004182f0 f i BackgroundTileObject.obj
 0001:00017310       ?setbuf@?$basic_filebuf@DU?$char_traits@D@std@@@std@@MAEPAV?$basic_streambuf@DU?$char_traits@D@std@@@2@PAD_J@Z 00418310 f i BackgroundTileObject.obj
 0001:000173b0       ?size@?$basic_string@DU?$char_traits@D@std@@V?$allocator@D@2@@std@@QBEIXZ 004183b0 f i BackgroundTileObject.obj
 0001:000173d0       ?size@?$vector@HV?$allocator@H@std@@@std@@QBEIXZ 004183d0 f i BackgroundTileObject.obj
 0001:00017400       ?size@?$vector@V?$vector@HV?$allocator@H@std@@@std@@V?$allocator@V?$vector@HV?$allocator@H@std@@@std@@@2@@std@@QBEIXZ 00418400 f i BackgroundTileObject.obj
 0001:00017430       ?state@?$fpos@U_Mbstatet@@@std@@QBE?AU_Mbstatet@@XZ 00418430 f i BackgroundTileObject.obj
 0001:00017460       ?stoi@std@@YAHABV?$basic_string@DU?$char_traits@D@std@@V?$allocator@D@2@@1@PAIH@Z 00418460 f i BackgroundTileObject.obj
 0001:00017500       ?sync@?$basic_filebuf@DU?$char_traits@D@std@@@std@@MAEHXZ 00418500 f i BackgroundTileObject.obj
 0001:00017570       ?to_char_type@?$_Narrow_char_traits@DH@std@@SADH@Z 00418570 f i BackgroundTileObject.obj
 0001:00017580       ?to_int_type@?$_Narrow_char_traits@DH@std@@SAHD@Z 00418580 f i BackgroundTileObject.obj
 0001:00017590       ?uflow@?$basic_filebuf@DU?$char_traits@D@std@@@std@@MAEHXZ 00418590 f i BackgroundTileObject.obj
 0001:000178b0       ?underflow@?$basic_filebuf@DU?$char_traits@D@std@@@std@@MAEHXZ 004188b0 f i BackgroundTileObject.obj
 0001:00017970       ?underflow@?$basic_stringbuf@DU?$char_traits@D@std@@V?$allocator@D@2@@std@@MAEHXZ 00418970 f i BackgroundTileObject.obj
 0001:00017a80       ?use_count@?$_Ptr_base@VRawImageData@@@std@@QBEJXZ 00418a80 f i BackgroundTileObject.obj
 0001:00017ac0       ?virtAnimate@BaseEntity@@UAEXXZ 00418ac0 f i BackgroundTileObject.obj
 0001:00017ad0       ?virtIsPositionWithinObject@DisplayableObject@@UAE_NHH@Z 00418ad0 f i BackgroundTileObject.obj
 0001:00017b60       ?virtKeyDown@DisplayableObject@@UAEXH@Z 00418b60 f i BackgroundTileObject.obj
 0001:00017b70       ?virtKeyUp@DisplayableObject@@UAEXH@Z 00418b70 f i BackgroundTileObject.obj
 0001:00017b80       ?virtMouseDown@DisplayableObject@@UAEXHHH@Z 00418b80 f i BackgroundTileObject.obj
 0001:00017b90       ?virtMouseMoved@DisplayableObject@@UAEXHH@Z 00418b90 f i BackgroundTileObject.obj
 0001:00017ba0       ?virtMouseUp@DisplayableObject@@UAEXHHH@Z 00418ba0 f i BackgroundTileObject.obj
 0001:00017bb0       ?virtMove@BaseEntity@@UAEXH@Z 00418bb0 f i BackgroundTileObject.obj
 0001:00017bc0       ?virtSingleItemMouseDown@DisplayableObject@@UAE_NHHH@Z 00418bc0 f i BackgroundTileObject.obj
 0001:00017be0       ?what@exception@std@@UBEPBDXZ 00418be0 f i BackgroundTileObject.obj
 0001:00017c20       ?xsgetn@?$basic_filebuf@DU?$char_traits@D@std@@@std@@MAE_JPAD_J@Z 00418c20 f i BackgroundTileObject.obj
 0001:00017de0       ?xsputn@?$basic_filebuf@DU?$char_traits@D@std@@@std@@MAE_JPBD_J@Z 00418de0 f i BackgroundTileObject.obj
 0001:00017f40       ___local_stdio_printf_options 00418f40 f i BackgroundTileObject.obj
 0001:00017f50       __vfprintf_l               00418f50 f i BackgroundTileObject.obj
 0001:00017f90       _printf                    00418f90 f i BackgroundTileObject.obj
 0001:00017fe0       ??0BaseButton@@QAE@PAVGameEngine@@HHHHPBD@Z 00418fe0 f   BaseButton.obj
 0001:000180a0       ??1BaseButton@@UAE@XZ      004190a0 f   BaseButton.obj
 0001:00018110       ?virtDraw@BaseButton@@UAEXXZ 00419110 f   BaseButton.obj
 0001:00018290       ?setSignal@BaseButton@@QAEXH@Z 00419290 f   BaseButton.obj
 0001:000182b0       ?virtNotify@BaseButton@@UAEJHHH@Z 004192b0 f   BaseButton.obj
 0001:000182f0       ?virtDoUpdate@BaseButton@@UAEXH@Z 004192f0 f   BaseButton.obj
 0001:00018320       ?virtMouseMoved@BaseButton@@UAEXHH@Z 00419320 f   BaseButton.obj
 0001:00018380       ?virtMouseDown@BaseButton@@UAEXHHH@Z 00419380 f   BaseButton.obj
 0001:000183c0       ?virtMouseUp@BaseButton@@UAEXHHH@Z 004193c0 f   BaseButton.obj
 0001:00018510       ??$_Adl_verify_range@V?$_Vector_iterator@V?$_Vector_val@U?$_Simple_types@PAVDisplayableObject@@@std@@@std@@@std@@V12@@std@@YAXABV?$_Vector_iterator@V?$_Vector_val@U?$_Simple_types@PAVDisplayableObject@@@std@@@std@@@0@0@Z 00419510 f i BaseButton.obj
 0001:00018530       ??$_Copy_memmove@PAPAVDisplayableObject@@PAPAV1@@std@@YAPAPAVDisplayableObject@@PAPAV1@00@Z 00419530 f i BaseButton.obj
 0001:000185c0       ??$_Could_compare_equal_to_value_type@PAPAVDisplayableObject@@PAV1@@std@@YA_NABQAVDisplayableObject@@@Z 004195c0 f i BaseButton.obj
 0001:000185d0       ??$_Find_unchecked@PAPAVDisplayableObject@@PAV1@@std@@YAPAPAVDisplayableObject@@PAPAV1@QAPAV1@ABQAV1@@Z 004195d0 f i BaseButton.obj
 0001:00018670       ??$_Find_vectorized@PAVDisplayableObject@@PAV1@@std@@YAPAPAVDisplayableObject@@QAPAV1@0QAV1@@Z 00419670 f i BaseButton.obj
 0001:00018690       ??$_Get_unwrapped@AAV?$_Vector_iterator@V?$_Vector_val@U?$_Simple_types@PAVDisplayableObject@@@std@@@std@@@std@@@std@@YA?A_TAAV?$_Vector_iterator@V?$_Vector_val@U?$_Simple_types@PAVDisplayableObject@@@std@@@std@@@0@@Z 00419690 f i BaseButton.obj
 0001:000186a0       ??$_Get_unwrapped@ABV?$_Vector_iterator@V?$_Vector_val@U?$_Simple_types@PAVDisplayableObject@@@std@@@std@@@std@@@std@@YA?A_TABV?$_Vector_iterator@V?$_Vector_val@U?$_Simple_types@PAVDisplayableObject@@@std@@@std@@@0@@Z 004196a0 f i BaseButton.obj
 0001:000186b0       ??$_Move_unchecked@PAPAVDisplayableObject@@PAPAV1@@std@@YAPAPAVDisplayableObject@@PAPAV1@00@Z 004196b0 f i BaseButton.obj
 0001:00018720       ??$_Refancy_maybe_null@PAPAVDisplayableObject@@$0A@@std@@YAPAPAVDisplayableObject@@PAPAV1@@Z 00419720 f i BaseButton.obj
 0001:00018730       ??$_Seek_wrapped@V?$_Vector_iterator@V?$_Vector_val@U?$_Simple_types@PAVDisplayableObject@@@std@@@std@@@std@@PAPAVDisplayableObject@@@std@@YAXAAV?$_Vector_iterator@V?$_Vector_val@U?$_Simple_types@PAVDisplayableObject@@@std@@@std@@@0@$$QAPAPAVDisplayableObject@@@Z 00419730 f i BaseButton.obj
 0001:00018760       ??$_To_address@PAPAVDisplayableObject@@@std@@YA?A_PABQAPAVDisplayableObject@@@Z 00419760 f i BaseButton.obj
 0001:00018770       ??$_Unfancy@PAVDisplayableObject@@@std@@YAPAPAVDisplayableObject@@PAPAV1@@Z 00419770 f i BaseButton.obj
 0001:00018780       ??$_Unfancy_maybe_null@PAVDisplayableObject@@@std@@YAPAPAVDisplayableObject@@PAPAV1@@Z 00419780 f i BaseButton.obj
 0001:00018790       ??$addressof@V?$_Vector_val@U?$_Simple_types@PAVDisplayableObject@@@std@@@std@@@std@@YAPAV?$_Vector_val@U?$_Simple_types@PAVDisplayableObject@@@std@@@0@AAV10@@Z 00419790 f i BaseButton.obj
 0001:000187a0       ??$destroy@PAVDisplayableObject@@@?$_Default_allocator_traits@V?$allocator@PAVDisplayableObject@@@std@@@std@@SAXAAV?$allocator@PAVDisplayableObject@@@1@QAPAVDisplayableObject@@@Z 004197a0 f i BaseButton.obj
 0001:000187b0       ??$find@V?$_Vector_iterator@V?$_Vector_val@U?$_Simple_types@PAVDisplayableObject@@@std@@@std@@@std@@PAVDisplayableObject@@@std@@YA?AV?$_Vector_iterator@V?$_Vector_val@U?$_Simple_types@PAVDisplayableObject@@@std@@@std@@@0@V10@V10@ABQAVDisplayableObject@@@Z 004197b0 f i BaseButton.obj
 0001:000188d0       ??$forward@PAPAVDisplayableObject@@@std@@YA$$QAPAPAVDisplayableObject@@AAPAPAV1@@Z 004198d0 f i BaseButton.obj
 0001:000188e0       ??$move@AAPAVDisplayableObject@@@std@@YA$$QAPAVDisplayableObject@@AAPAV1@@Z 004198e0 f i BaseButton.obj
 0001:000188f0       ??0?$_Vector_const_iterator@V?$_Vector_val@U?$_Simple_types@PAVDisplayableObject@@@std@@@std@@@std@@QAE@$$QAV01@@Z 004198f0 f i BaseButton.obj
 0001:00018930       ??0?$_Vector_const_iterator@V?$_Vector_val@U?$_Simple_types@PAVDisplayableObject@@@std@@@std@@@std@@QAE@ABV01@@Z 00419930 f i BaseButton.obj
 0001:00018970       ??0?$_Vector_const_iterator@V?$_Vector_val@U?$_Simple_types@PAVDisplayableObject@@@std@@@std@@@std@@QAE@PAPAVDisplayableObject@@PBU_Container_base12@1@@Z 00419970 f i BaseButton.obj
 0001:000189b0       ??0?$_Vector_iterator@V?$_Vector_val@U?$_Simple_types@PAVDisplayableObject@@@std@@@std@@@std@@QAE@$$QAV01@@Z 004199b0 f i BaseButton.obj
 0001:000189e0       ??0?$_Vector_iterator@V?$_Vector_val@U?$_Simple_types@PAVDisplayableObject@@@std@@@std@@@std@@QAE@PAPAVDisplayableObject@@PBU_Container_base12@1@@Z 004199e0 f i BaseButton.obj
 0001:00018a10       ??1?$_Vector_const_iterator@V?$_Vector_val@U?$_Simple_types@PAVDisplayableObject@@@std@@@std@@@std@@QAE@XZ 00419a10 f i BaseButton.obj
 0001:00018a30       ??1?$_Vector_iterator@V?$_Vector_val@U?$_Simple_types@PAVDisplayableObject@@@std@@@std@@@std@@QAE@XZ 00419a30 f i BaseButton.obj
 0001:00018a50       ??8?$_Vector_const_iterator@V?$_Vector_val@U?$_Simple_types@PAVDisplayableObject@@@std@@@std@@@std@@QBE_NABV01@@Z 00419a50 f i BaseButton.obj
 0001:00018aa0       ??9?$_Vector_const_iterator@V?$_Vector_val@U?$_Simple_types@PAVDisplayableObject@@@std@@@std@@@std@@QBE_NABV01@@Z 00419aa0 f i BaseButton.obj
 0001:00018af0       ??_EBaseButton@@UAEPAXI@Z  00419af0 f i BaseButton.obj
 0001:00018af0       ??_GBaseButton@@UAEPAXI@Z  00419af0 f i BaseButton.obj
 0001:00018b30       ?_Compat@?$_Vector_const_iterator@V?$_Vector_val@U?$_Simple_types@PAVDisplayableObject@@@std@@@std@@@std@@QBEXABV12@@Z 00419b30 f i BaseButton.obj
 0001:00018bd0       ?_Get_first@?$_Compressed_pair@V?$allocator@PAVDisplayableObject@@@std@@V?$_Vector_val@U?$_Simple_types@PAVDisplayableObject@@@std@@@2@$00@std@@QAEAAV?$allocator@PAVDisplayableObject@@@2@XZ 00419bd0 f i BaseButton.obj
 0001:00018bf0       ?_Getal@?$vector@PAVDisplayableObject@@V?$allocator@PAVDisplayableObject@@@std@@@std@@AAEAAV?$allocator@PAVDisplayableObject@@@2@XZ 00419bf0 f i BaseButton.obj
 0001:00018c10       ?_Orphan_range@?$vector@PAVDisplayableObject@@V?$allocator@PAVDisplayableObject@@@std@@@std@@ABEXPAPAVDisplayableObject@@0@Z 00419c10 f i BaseButton.obj
 0001:00018c40       ?_Orphan_range_locked@?$vector@PAVDisplayableObject@@V?$allocator@PAVDisplayableObject@@@std@@@std@@ABEXPAPAVDisplayableObject@@0@Z 00419c40 f i BaseButton.obj
 0001:00018cd0       ?_Orphan_range_unlocked@?$vector@PAVDisplayableObject@@V?$allocator@PAVDisplayableObject@@@std@@@std@@ABEXPAPAVDisplayableObject@@0@Z 00419cd0 f i BaseButton.obj
 0001:00018d50       ?_Seek_to@?$_Vector_const_iterator@V?$_Vector_val@U?$_Simple_types@PAVDisplayableObject@@@std@@@std@@@std@@QAEXPBQAVDisplayableObject@@@Z 00419d50 f i BaseButton.obj
 0001:00018d80       ?_Unwrapped@?$_Vector_iterator@V?$_Vector_val@U?$_Simple_types@PAVDisplayableObject@@@std@@@std@@@std@@QBEPAPAVDisplayableObject@@XZ 00419d80 f i BaseButton.obj
 0001:00018da0       ?_Verify_range@std@@YAXABV?$_Vector_const_iterator@V?$_Vector_val@U?$_Simple_types@PAVDisplayableObject@@@std@@@std@@@1@0@Z 00419da0 f i BaseButton.obj
 0001:00018ea0       ?begin@?$vector@PAVDisplayableObject@@V?$allocator@PAVDisplayableObject@@@std@@@std@@QAE?AV?$_Vector_iterator@V?$_Vector_val@U?$_Simple_types@PAVDisplayableObject@@@std@@@std@@@2@XZ 00419ea0 f i BaseButton.obj
 0001:00018ef0       ?drawableObjectsChanged@DisplayableObjectContainer@@QAEXXZ 00419ef0 f i BaseButton.obj
 0001:00018f10       ?end@?$vector@PAVDisplayableObject@@V?$allocator@PAVDisplayableObject@@@std@@@std@@QAE?AV?$_Vector_iterator@V?$_Vector_val@U?$_Simple_types@PAVDisplayableObject@@@std@@@std@@@2@XZ 00419f10 f i BaseButton.obj
 0001:00018f60       ?erase@?$vector@PAVDisplayableObject@@V?$allocator@PAVDisplayableObject@@@std@@@std@@QAE?AV?$_Vector_iterator@V?$_Vector_val@U?$_Simple_types@PAVDisplayableObject@@@std@@@std@@@2@V?$_Vector_const_iterator@V?$_Vector_val@U?$_Simple_types@PAVDisplayableObject@@@std@@@std@@@2@@Z 00419f60 f i BaseButton.obj
 0001:00019110       ?getFont@BaseEngine@@QAEPAVFont@@PBDH@Z 0041a110 f i BaseButton.obj
 0001:00019140       ?getForegroundSurface@BaseEngine@@QAEPAVDrawingSurface@@XZ 0041a140 f i BaseButton.obj
 0001:00019160       ?onClick@BaseButton@@UAEXXZ 0041a160 f i BaseButton.obj
 0001:00019170       ?removeDisplayableObject@DisplayableObjectContainer@@QAE_NPAVDisplayableObject@@@Z 0041a170 f i BaseButton.obj
 0001:00019280       ??0BaseDisplay@@QAE@PAVGameEngine@@@Z 0041a280 f   BaseDisplay.obj
 0001:000192f0       ?virtDraw@BaseDisplay@@UAEXXZ 0041a2f0 f   BaseDisplay.obj
 0001:00019340       ?drawText@BaseDisplay@@UAEXPBDHHPAVFont@@H@Z 0041a340 f   BaseDisplay.obj
 0001:00019380       ?virtDoUpdate@BaseDisplay@@UAEXH@Z 0041a380 f   BaseDisplay.obj
 0001:000193b0       ?virtNotify@BaseDisplay@@UAEJHHH@Z 0041a3b0 f   BaseDisplay.obj
 0001:00019440       ??1BaseDisplay@@UAE@XZ     0041a440 f i BaseDisplay.obj
 0001:00019460       ??_EBaseDisplay@@UAEPAXI@Z 0041a460 f i BaseDisplay.obj
 0001:00019460       ??_GBaseDisplay@@UAEPAXI@Z 0041a460 f i BaseDisplay.obj
 0001:000194a0       ??0BaseEntity@@QAE@PAVGameEngine@@@Z 0041a4a0 f   BaseEntity.obj
 0001:00019630       ?virtDoUpdate@BaseEntity@@UAEXH@Z 0041a630 f   BaseEntity.obj
 0001:00019740       ?matchBackgroundMovement@BaseEntity@@QAEXH@Z 0041a740 f   BaseEntity.obj
 0001:00019830       ?virtNotify@BaseEntity@@UAEJHHH@Z 0041a830 f   BaseEntity.obj
 0001:000199d0       ??$?CVRawImageData@@$0A@@?$shared_ptr@VRawImageData@@@std@@QBEPAVRawImageData@@XZ 0041a9d0 f i BaseEntity.obj
 0001:000199f0       ??0ImagePixelMapping@@QAE@XZ 0041a9f0 f i BaseEntity.obj
 0001:00019a10       ??0ImagePixelMappingShiftXY@@QAE@NN@Z 0041aa10 f i BaseEntity.obj
 0001:00019a60       ??0MirrorImagePixelMapping@@QAE@NN_N@Z 0041aa60 f i BaseEntity.obj
 0001:00019ac0       ?changePixelColour@ImagePixelMapping@@UAE_NHHAAHPAVDrawingSurface@@@Z 0041aac0 f i BaseEntity.obj
 0001:00019ae0       ?changePixelColour@MirrorImagePixelMapping@@UAE_NHHAAHPAVDrawingSurface@@@Z 0041aae0 f i BaseEntity.obj
 0001:00019b10       ?getBackground@GameEngine@@QAEPAVBackgroundTileObject@@XZ 0041ab10 f i BaseEntity.obj
 0001:00019b30       ?getHeight@RawImageData@@QBEHXZ 0041ab30 f i BaseEntity.obj
 0001:00019b50       ?getHeight@SimpleImage@@QBEHXZ 0041ab50 f i BaseEntity.obj
 0001:00019b80       ?getPlayerAgainstWall@BackgroundTileObject@@QAEHXZ 0041ab80 f i BaseEntity.obj
 0001:00019ba0       ?getWidth@RawImageData@@QBEHXZ 0041aba0 f i BaseEntity.obj
 0001:00019bc0       ?getWidth@SimpleImage@@QBEHXZ 0041abc0 f i BaseEntity.obj
 0001:00019bf0       ?mapCoordinates@ImagePixelMappingShiftXY@@UAE_NAAN0ABVSimpleImage@@@Z 0041abf0 f i BaseEntity.obj
 0001:00019dc0       ?mapCoordinates@MirrorImagePixelMapping@@UAE_NAAN0ABVSimpleImage@@@Z 0041adc0 f i BaseEntity.obj
 0001:00019ec0       ?redrawDisplay@BaseEngine@@QAEXXZ 0041aec0 f i BaseEntity.obj
 0001:00019ee0       ?updateSprite@BaseEntity@@QAEXXZ 0041aee0 f i BaseEntity.obj
 0001:00019f10       ??0BaseEnemy@@QAE@PAVGameEngine@@@Z 0041af10 f   BaseEnemy.obj
 0001:0001a070       ?virtDraw@BaseEnemy@@UAEXXZ 0041b070 f   BaseEnemy.obj
 0001:0001a120       ?virtMove@BaseEnemy@@UAEXH@Z 0041b120 f   BaseEnemy.obj
 0001:0001a210       ?ChasePlayer@BaseEnemy@@QAE_NXZ 0041b210 f   BaseEnemy.obj
 0001:0001a440       ?MeleeAttack@BaseEnemy@@QAEXXZ 0041b440 f   BaseEnemy.obj
 0001:0001a4c0       ?TrackCooldowns@BaseEnemy@@QAEXH@Z 0041b4c0 f   BaseEnemy.obj
 0001:0001a550       ?checkInBoundingBox@BaseEnemy@@QAE_NHH@Z 0041b550 f   BaseEnemy.obj
 0001:0001a5a0       ?takeDamage@BaseEnemy@@QAEXH@Z 0041b5a0 f   BaseEnemy.obj
 0001:0001a5f0       ?checkImmune@BaseEnemy@@QAE_NXZ 0041b5f0 f   BaseEnemy.obj
 0001:0001a620       ?givePoints@BaseEnemy@@QAEXXZ 0041b620 f   BaseEnemy.obj
 0001:0001a820       ??$move@AAPAVRawImageData@@@std@@YA$$QAPAVRawImageData@@AAPAV1@@Z 0041b820 f i BaseEnemy.obj
 0001:0001a830       ??$move@AAPAV_Ref_count_base@std@@@std@@YA$$QAPAV_Ref_count_base@0@AAPAV10@@Z 0041b830 f i BaseEnemy.obj
 0001:0001a840       ??$swap@PAVRawImageData@@$0A@@std@@YAXAAPAVRawImageData@@0@Z 0041b840 f i BaseEnemy.obj
 0001:0001a890       ??$swap@PAV_Ref_count_base@std@@$0A@@std@@YAXAAPAV_Ref_count_base@0@0@Z 0041b890 f i BaseEnemy.obj
 0001:0001a8e0       ??1BaseEnemy@@UAE@XZ       0041b8e0 f i BaseEnemy.obj
 0001:0001a900       ??4?$shared_ptr@VRawImageData@@@std@@QAEAAV01@ABV01@@Z 0041b900 f i BaseEnemy.obj
 0001:0001a940       ??4SimpleImage@@QAEAAV0@ABV0@@Z 0041b940 f i BaseEnemy.obj
 0001:0001a990       ??_EBaseEnemy@@UAEPAXI@Z   0041b990 f i BaseEnemy.obj
 0001:0001a990       ??_GBaseEnemy@@UAEPAXI@Z   0041b990 f i BaseEnemy.obj
 0001:0001a9d0       ?_Swap@?$_Ptr_base@VRawImageData@@@std@@IAEXAAV12@@Z 0041b9d0 f i BaseEnemy.obj
 0001:0001aa10       ?checkCircles@CollisionDetection@@SA_NHHHHH@Z 0041ba10 f i BaseEnemy.obj
 0001:0001aa70       ?getPlayerX@PlayerObject@@QAEHXZ 0041ba70 f i BaseEnemy.obj
 0001:0001aa90       ?getPlayerY@PlayerObject@@QAEHXZ 0041ba90 f i BaseEnemy.obj
 0001:0001aab0       ?getTopLeftX@BaseEntity@@QAEHXZ 0041bab0 f i BaseEnemy.obj
 0001:0001aad0       ?getTopLeftY@BaseEntity@@QAEHXZ 0041bad0 f i BaseEnemy.obj
 0001:0001aaf0       ?getXCentre@DisplayableObject@@QBEHXZ 0041baf0 f i BaseEnemy.obj
 0001:0001ab20       ?getYCentre@DisplayableObject@@QBEHXZ 0041bb20 f i BaseEnemy.obj
 0001:0001ab50       ?performAttack@BaseEnemy@@UAEXXZ 0041bb50 f i BaseEnemy.obj
 0001:0001ab60       ?performDead@BaseEnemy@@UAEXXZ 0041bb60 f i BaseEnemy.obj
 0001:0001ab70       ?performHurt@BaseEnemy@@UAEXXZ 0041bb70 f i BaseEnemy.obj
 0001:0001ab80       ?performIdle@BaseEnemy@@UAEXXZ 0041bb80 f i BaseEnemy.obj
 0001:0001ab90       ?performMoving@BaseEnemy@@UAEXXZ 0041bb90 f i BaseEnemy.obj
 0001:0001aba0       ?performSpecialAttack@BaseEnemy@@UAEXXZ 0041bba0 f i BaseEnemy.obj
 0001:0001abb0       ?setFlipped@MirrorImagePixelMapping@@QAEX_N@Z 0041bbb0 f i BaseEnemy.obj
 0001:0001abd0       ?setXShift@ImagePixelMappingShiftXY@@QAEXN@Z 0041bbd0 f i BaseEnemy.obj
 0001:0001abf0       ?setYShift@ImagePixelMappingShiftXY@@QAEXN@Z 0041bbf0 f i BaseEnemy.obj
 0001:0001ac10       ?sqrt@@YAMM@Z              0041bc10 f i BaseEnemy.obj
 0001:0001ac30       ?swap@?$shared_ptr@VRawImageData@@@std@@QAEXAAV12@@Z 0041bc30 f i BaseEnemy.obj
 0001:0001ac50       _sqrtf                     0041bc50 f i BaseEnemy.obj
 0001:0001ac80       ??0BaseRangedAttack@@QAE@PAVGameEngine@@HH@Z 0041bc80 f   BaseRangedAttack.obj
 0001:0001ae00       ?virtMove@BaseRangedAttack@@UAEXH@Z 0041be00 f   BaseRangedAttack.obj
 0001:0001ae60       ?performFlying@BaseRangedAttack@@UAEXXZ 0041be60 f   BaseRangedAttack.obj
 0001:0001af00       ?calculateAngle@BaseRangedAttack@@QAEXXZ 0041bf00 f   BaseRangedAttack.obj
 0001:0001b070       ?virtDraw@BaseRangedAttack@@UAEXXZ 0041c070 f   BaseRangedAttack.obj
 0001:0001b180       ?fly@BaseRangedAttack@@QAEXXZ 0041c180 f   BaseRangedAttack.obj
 0001:0001b4a0       ??0ImagePixelMappingRotate@@QAE@N@Z 0041c4a0 f i BaseRangedAttack.obj
 0001:0001b4e0       ??0RotateAndShiftXYImagePixelMapping@@QAE@NNN@Z 0041c4e0 f i BaseRangedAttack.obj
 0001:0001b5f0       ??1BaseRangedAttack@@UAE@XZ 0041c5f0 f i BaseRangedAttack.obj
 0001:0001b650       ??1RotateAndShiftXYImagePixelMapping@@QAE@XZ 0041c650 f i BaseRangedAttack.obj
 0001:0001b690       ??_EBaseRangedAttack@@UAEPAXI@Z 0041c690 f i BaseRangedAttack.obj
 0001:0001b690       ??_GBaseRangedAttack@@UAEPAXI@Z 0041c690 f i BaseRangedAttack.obj
 0001:0001b6d0       ??_GRotateAndShiftXYImagePixelMapping@@QAEPAXI@Z 0041c6d0 f i BaseRangedAttack.obj
 0001:0001b710       ?atan2@@YAMMM@Z            0041c710 f i BaseRangedAttack.obj
 0001:0001b740       ?changePixelColour@RotateAndShiftXYImagePixelMapping@@UAE_NHHAAHPAVDrawingSurface@@@Z 0041c740 f i BaseRangedAttack.obj
 0001:0001b770       ?changeState@BaseRangedAttack@@UAEXW4RangedAttackState@1@@Z 0041c770 f i BaseRangedAttack.obj
 0001:0001b780       ?mapCoordinates@ImagePixelMappingRotate@@UAE_NAAN0ABVSimpleImage@@@Z 0041c780 f i BaseRangedAttack.obj
 0001:0001ba70       ?mapCoordinates@RotateAndShiftXYImagePixelMapping@@UAE_NAAN0ABVSimpleImage@@@Z 0041ca70 f i BaseRangedAttack.obj
 0001:0001bd60       ?performCast@BaseRangedAttack@@UAEXXZ 0041cd60 f i BaseRangedAttack.obj
 0001:0001bd70       ?performHit@BaseRangedAttack@@UAEXXZ 0041cd70 f i BaseRangedAttack.obj
 0001:0001bd80       ?setCentres@RotateAndShiftXYImagePixelMapping@@QAEXNN@Z 0041cd80 f i BaseRangedAttack.obj
 0001:0001bdd0       ?setFacingLeft@PlayerObject@@QAEX_N@Z 0041cdd0 f i BaseRangedAttack.obj
 0001:0001be00       ?setRotation@ImagePixelMappingRotate@@QAEXN@Z 0041ce00 f i BaseRangedAttack.obj
 0001:0001be20       ?setShifts@RotateAndShiftXYImagePixelMapping@@QAEXNN@Z 0041ce20 f i BaseRangedAttack.obj
 0001:0001be70       _atan2f                    0041ce70 f i BaseRangedAttack.obj
 0001:0001beb0       ?displayObjects@BaseStateManager@@QAEXXZ 0041ceb0 f   BaseStateManager.obj
 0001:0001bf30       ??0StartState@@QAE@PAVGameEngine@@@Z 0041cf30 f   BaseStateManager.obj
 0001:0001bf60       ?virtInitialise@StartState@@UAEXXZ 0041cf60 f   BaseStateManager.obj
 0001:0001bff0       ?handleEscape@StartState@@UAEXXZ 0041cff0 f   BaseStateManager.obj
 0001:0001c010       ??0RunningState@@QAE@PAVGameEngine@@@Z 0041d010 f   BaseStateManager.obj
 0001:0001c040       ?virtInitialise@RunningState@@UAEXXZ 0041d040 f   BaseStateManager.obj
 0001:0001c060       ?handleEscape@RunningState@@UAEXXZ 0041d060 f   BaseStateManager.obj
 0001:0001c080       ??0PausedState@@QAE@PAVGameEngine@@@Z 0041d080 f   BaseStateManager.obj
 0001:0001c0b0       ?virtInitialise@PausedState@@UAEXXZ 0041d0b0 f   BaseStateManager.obj
 0001:0001c140       ?handleEscape@PausedState@@UAEXXZ 0041d140 f   BaseStateManager.obj
 0001:0001c160       ??0EndState@@QAE@PAVGameEngine@@@Z 0041d160 f   BaseStateManager.obj
 0001:0001c1a0       ??1EndState@@UAE@XZ        0041d1a0 f   BaseStateManager.obj
 0001:0001c210       ?virtInitialise@EndState@@UAEXXZ 0041d210 f   BaseStateManager.obj
 0001:0001c2b0       ?notifyValue@EndState@@UAEXH@Z 0041d2b0 f   BaseStateManager.obj
 0001:0001c2d0       ??0ScoreState@@QAE@PAVGameEngine@@@Z 0041d2d0 f   BaseStateManager.obj
 0001:0001c310       ??1ScoreState@@UAE@XZ      0041d310 f   BaseStateManager.obj
 0001:0001c380       ?virtInitialise@ScoreState@@UAEXXZ 0041d380 f   BaseStateManager.obj
 0001:0001c420       ?notifyValue@ScoreState@@UAEXH@Z 0041d420 f   BaseStateManager.obj
 0001:0001c430       ??0OptionsState@@QAE@PAVGameEngine@@@Z 0041d430 f   BaseStateManager.obj
 0001:0001c460       ?virtInitialise@OptionsState@@UAEXXZ 0041d460 f   BaseStateManager.obj
 0001:0001c470       ?handleEscape@OptionsState@@UAEXXZ 0041d470 f   BaseStateManager.obj
 0001:0001c600       ??$_Adl_verify_range@V?$_Vector_const_iterator@V?$_Vector_val@U?$_Simple_types@PAVDisplayableObject@@@std@@@std@@@std@@V12@@std@@YAXABV?$_Vector_const_iterator@V?$_Vector_val@U?$_Simple_types@PAVDisplayableObject@@@std@@@std@@@0@0@Z 0041d600 f i BaseStateManager.obj
 0001:0001c620       ??$_Allocate_at_least_helper@V?$allocator@PAVDisplayableObject@@@std@@@std@@YAPAPAVDisplayableObject@@AAV?$allocator@PAVDisplayableObject@@@0@AAI@Z 0041d620 f i BaseStateManager.obj
 0001:0001c640       ??$_Construct_in_place@PAVDisplayableObject@@ABQAV1@@std@@YAXAAPAVDisplayableObject@@ABQAV1@@Z 0041d640 f i BaseStateManager.obj
 0001:0001c690       ??$_Destroy_range@V?$allocator@PAVDisplayableObject@@@std@@@std@@YAXPAPAVDisplayableObject@@QAPAV1@AAV?$allocator@PAVDisplayableObject@@@0@@Z 0041d690 f i BaseStateManager.obj
 0001:0001c6a0       ??$_Emplace_back@PAVDisplayableObject@@@?$_Uninitialized_backout_al@V?$allocator@PAVDisplayableObject@@@std@@@std@@QAEX$$QAPAVDisplayableObject@@@Z 0041d6a0 f i BaseStateManager.obj
 0001:0001c700       ??$_Emplace_back_with_unused_capacity@ABQAVDisplayableObject@@@?$vector@PAVDisplayableObject@@V?$allocator@PAVDisplayableObject@@@std@@@std@@AAEAAPAVDisplayableObject@@ABQAV2@@Z 0041d700 f i BaseStateManager.obj
 0001:0001c780       ??$_Emplace_one_at_back@ABQAVDisplayableObject@@@?$vector@PAVDisplayableObject@@V?$allocator@PAVDisplayableObject@@@std@@@std@@AAEAAPAVDisplayableObject@@ABQAV2@@Z 0041d780 f i BaseStateManager.obj
 0001:0001c800       ??$_Emplace_reallocate@ABQAVDisplayableObject@@@?$vector@PAVDisplayableObject@@V?$allocator@PAVDisplayableObject@@@std@@@std@@AAEPAPAVDisplayableObject@@QAPAV2@ABQAV2@@Z 0041d800 f i BaseStateManager.obj
 0001:0001ca60       ??$_Get_unwrapped@AAV?$_Vector_const_iterator@V?$_Vector_val@U?$_Simple_types@PAVDisplayableObject@@@std@@@std@@@std@@@std@@YA?A_TAAV?$_Vector_const_iterator@V?$_Vector_val@U?$_Simple_types@PAVDisplayableObject@@@std@@@std@@@0@@Z 0041da60 f i BaseStateManager.obj
 0001:0001ca70       ??$_Get_unwrapped@ABQAPAVDisplayableObject@@@std@@YA?A_TABQAPAVDisplayableObject@@@Z 0041da70 f i BaseStateManager.obj
 0001:0001ca80       ??$_Uninitialized_move@PAPAVDisplayableObject@@V?$allocator@PAVDisplayableObject@@@std@@@std@@YAPAPAVDisplayableObject@@QAPAV1@0PAPAV1@AAV?$allocator@PAVDisplayableObject@@@0@@Z 0041da80 f i BaseStateManager.obj
 0001:0001cba0       ??$addressof@$$CBV?$_Vector_val@U?$_Simple_types@PAVDisplayableObject@@@std@@@std@@@std@@YAPBV?$_Vector_val@U?$_Simple_types@PAVDisplayableObject@@@std@@@0@ABV10@@Z 0041dba0 f i BaseStateManager.obj
 0001:0001cbb0       ??$addressof@PAVDisplayableObject@@@std@@YAPAPAVDisplayableObject@@AAPAV1@@Z 0041dbb0 f i BaseStateManager.obj
 0001:0001cbc0       ??$construct@PAVDisplayableObject@@ABQAV1@@?$_Default_allocator_traits@V?$allocator@PAVDisplayableObject@@@std@@@std@@SAXAAV?$allocator@PAVDisplayableObject@@@1@QAPAVDisplayableObject@@ABQAV3@@Z 0041dbc0 f i BaseStateManager.obj
 0001:0001cc00       ??$construct@PAVDisplayableObject@@PAV1@@?$_Default_allocator_traits@V?$allocator@PAVDisplayableObject@@@std@@@std@@SAXAAV?$allocator@PAVDisplayableObject@@@1@QAPAVDisplayableObject@@$$QAPAV3@@Z 0041dc00 f i BaseStateManager.obj
 0001:0001cc40       ??$for_each@V?$_Vector_const_iterator@V?$_Vector_val@U?$_Simple_types@PAVDisplayableObject@@@std@@@std@@@std@@V<lambda_f8aa3bb37f7bc67aa5620eaa06cd1067>@@@std@@YA?AV<lambda_f8aa3bb37f7bc67aa5620eaa06cd1067>@@V?$_Vector_const_iterator@V?$_Vector_val@U?$_Simple_types@PAVDisplayableObject@@@std@@@std@@@0@0V1@@Z 0041dc40 f i BaseStateManager.obj
 0001:0001cd40       ??$forward@ABQAVDisplayableObject@@@std@@YAABQAVDisplayableObject@@ABQAV1@@Z 0041dd40 f i BaseStateManager.obj
 0001:0001cd50       ??$forward@PAVDisplayableObject@@@std@@YA$$QAPAVDisplayableObject@@AAPAV1@@Z 0041dd50 f i BaseStateManager.obj
 0001:0001cd60       ??0<lambda_f8aa3bb37f7bc67aa5620eaa06cd1067>@@QAE@AAHABH11@Z 0041dd60 f i BaseStateManager.obj
 0001:0001cdb0       ??0?$_Uninitialized_backout_al@V?$allocator@PAVDisplayableObject@@@std@@@std@@QAE@PAPAVDisplayableObject@@AAV?$allocator@PAVDisplayableObject@@@1@@Z 0041ddb0 f i BaseStateManager.obj
 0001:0001cdf0       ??0BaseStateManager@@QAE@PAVGameEngine@@@Z 0041ddf0 f i BaseStateManager.obj
 0001:0001ce40       ??1?$_Uninitialized_backout_al@V?$allocator@PAVDisplayableObject@@@std@@@std@@QAE@XZ 0041de40 f i BaseStateManager.obj
 0001:0001ce70       ??1BaseStateManager@@UAE@XZ 0041de70 f i BaseStateManager.obj
 0001:0001ce90       ??1OptionsState@@UAE@XZ    0041de90 f i BaseStateManager.obj
 0001:0001ceb0       ??1PausedState@@UAE@XZ     0041deb0 f i BaseStateManager.obj
 0001:0001ced0       ??1RunningState@@UAE@XZ    0041ded0 f i BaseStateManager.obj
 0001:0001cef0       ??1StartState@@UAE@XZ      0041def0 f i BaseStateManager.obj
 0001:0001cf10       ??R<lambda_f8aa3bb37f7bc67aa5620eaa06cd1067>@@QBE@PAVDisplayableObject@@@Z 0041df10 f i BaseStateManager.obj
 0001:0001cf70       ??_EBaseStateManager@@UAEPAXI@Z 0041df70 f i BaseStateManager.obj
 0001:0001cf70       ??_GBaseStateManager@@UAEPAXI@Z 0041df70 f i BaseStateManager.obj
 0001:0001cfb0       ??_EEndState@@UAEPAXI@Z    0041dfb0 f i BaseStateManager.obj
 0001:0001cfb0       ??_GEndState@@UAEPAXI@Z    0041dfb0 f i BaseStateManager.obj
 0001:0001cff0       ??_EOptionsState@@UAEPAXI@Z 0041dff0 f i BaseStateManager.obj
 0001:0001cff0       ??_GOptionsState@@UAEPAXI@Z 0041dff0 f i BaseStateManager.obj
 0001:0001d030       ??_EPausedState@@UAEPAXI@Z 0041e030 f i BaseStateManager.obj
 0001:0001d030       ??_GPausedState@@UAEPAXI@Z 0041e030 f i BaseStateManager.obj
 0001:0001d070       ??_ERunningState@@UAEPAXI@Z 0041e070 f i BaseStateManager.obj
 0001:0001d070       ??_GRunningState@@UAEPAXI@Z 0041e070 f i BaseStateManager.obj
 0001:0001d0b0       ??_EScoreState@@UAEPAXI@Z  0041e0b0 f i BaseStateManager.obj
 0001:0001d0b0       ??_GScoreState@@UAEPAXI@Z  0041e0b0 f i BaseStateManager.obj
 0001:0001d0f0       ??_EStartState@@UAEPAXI@Z  0041e0f0 f i BaseStateManager.obj
 0001:0001d0f0       ??_GStartState@@UAEPAXI@Z  0041e0f0 f i BaseStateManager.obj
 0001:0001d130       ?_Calculate_growth@?$vector@PAVDisplayableObject@@V?$allocator@PAVDisplayableObject@@@std@@@std@@ABEII@Z 0041e130 f i BaseStateManager.obj
 0001:0001d1a0       ?_Change_array@?$vector@PAVDisplayableObject@@V?$allocator@PAVDisplayableObject@@@std@@@std@@AAEXQAPAVDisplayableObject@@II@Z 0041e1a0 f i BaseStateManager.obj
 0001:0001d270       ?_Get_first@?$_Compressed_pair@V?$allocator@PAVDisplayableObject@@@std@@V?$_Vector_val@U?$_Simple_types@PAVDisplayableObject@@@std@@@2@$00@std@@QBEABV?$allocator@PAVDisplayableObject@@@2@XZ 0041e270 f i BaseStateManager.obj
 0001:0001d290       ?_Getal@?$vector@PAVDisplayableObject@@V?$allocator@PAVDisplayableObject@@@std@@@std@@ABEABV?$allocator@PAVDisplayableObject@@@2@XZ 0041e290 f i BaseStateManager.obj
 0001:0001d2b0       ?_Release@?$_Uninitialized_backout_al@V?$allocator@PAVDisplayableObject@@@std@@@std@@QAEPAPAVDisplayableObject@@XZ 0041e2b0 f i BaseStateManager.obj
 0001:0001d2e0       ?_Unwrapped@?$_Vector_const_iterator@V?$_Vector_val@U?$_Simple_types@PAVDisplayableObject@@@std@@@std@@@std@@QBEPBQAVDisplayableObject@@XZ 0041e2e0 f i BaseStateManager.obj
 0001:0001d300       ?_Xlength@?$vector@PAVDisplayableObject@@V?$allocator@PAVDisplayableObject@@@std@@@std@@CAXXZ 0041e300 f i BaseStateManager.obj
 0001:0001d320       ?allocate@?$allocator@PAVDisplayableObject@@@std@@QAEPAPAVDisplayableObject@@I@Z 0041e320 f i BaseStateManager.obj
 0001:0001d350       ?appendObjectToArray@DisplayableObjectContainer@@QAEXPAVDisplayableObject@@@Z 0041e350 f i BaseStateManager.obj
 0001:0001d390       ?begin@?$vector@PAVDisplayableObject@@V?$allocator@PAVDisplayableObject@@@std@@@std@@QBE?AV?$_Vector_const_iterator@V?$_Vector_val@U?$_Simple_types@PAVDisplayableObject@@@std@@@std@@@2@XZ 0041e390 f i BaseStateManager.obj
 0001:0001d3e0       ?capacity@?$vector@PAVDisplayableObject@@V?$allocator@PAVDisplayableObject@@@std@@@std@@QBEIXZ 0041e3e0 f i BaseStateManager.obj
 0001:0001d410       ?deallocate@?$allocator@PAVDisplayableObject@@@std@@QAEXQAPAVDisplayableObject@@I@Z 0041e410 f i BaseStateManager.obj
 0001:0001d4b0       ?destroy@EndDisplay@@QAEXXZ 0041e4b0 f i BaseStateManager.obj
 0001:0001d4d0       ?destroy@ScoreDisplay@@QAEXXZ 0041e4d0 f i BaseStateManager.obj
 0001:0001d4f0       ?end@?$vector@PAVDisplayableObject@@V?$allocator@PAVDisplayableObject@@@std@@@std@@QBE?AV?$_Vector_const_iterator@V?$_Vector_val@U?$_Simple_types@PAVDisplayableObject@@@std@@@std@@@2@XZ 0041e4f0 f i BaseStateManager.obj
 0001:0001d540       ?handleEscape@BaseStateManager@@UAEXXZ 0041e540 f i BaseStateManager.obj
 0001:0001d550       ?max_size@?$_Default_allocator_traits@V?$allocator@PAVDisplayableObject@@@std@@@std@@SAIABV?$allocator@PAVDisplayableObject@@@2@@Z 0041e550 f i BaseStateManager.obj
 0001:0001d560       ?max_size@?$vector@PAVDisplayableObject@@V?$allocator@PAVDisplayableObject@@@std@@@std@@QBEIXZ 0041e560 f i BaseStateManager.obj
 0001:0001d5b0       ?notifyAllObjectsGetCountNonZero@DisplayableObjectContainer@@QBEHHHH@Z 0041e5b0 f i BaseStateManager.obj
 0001:0001d650       ?notifyValue@BaseStateManager@@UAEXH@Z 0041e650 f i BaseStateManager.obj
 0001:0001d660       ?push_back@?$vector@PAVDisplayableObject@@V?$allocator@PAVDisplayableObject@@@std@@@std@@QAEXABQAVDisplayableObject@@@Z 0041e660 f i BaseStateManager.obj
 0001:0001d680       ?setExitWithCode@BaseEngine@@QAEXH@Z 0041e680 f i BaseStateManager.obj
 0001:0001d6a0       ?virtInitialise@BaseStateManager@@UAEXXZ 0041e6a0 f i BaseStateManager.obj
 0001:0001d6d0       ??0Overlay@@QAE@PAVGameEngine@@@Z 0041e6d0 f   Overlay.obj
 0001:0001d840       ?virtDraw@Overlay@@UAEXXZ  0041e840 f   Overlay.obj
 0001:0001d8d0       ?virtDoUpdate@Overlay@@UAEXH@Z 0041e8d0 f   Overlay.obj
 0001:0001d970       ?virtNotify@Overlay@@UAEJHHH@Z 0041e970 f   Overlay.obj
 0001:0001d9b0       ?drawHealth@Overlay@@QAEXXZ 0041e9b0 f   Overlay.obj
 0001:0001dac0       ?drawScore@Overlay@@QAEXXZ 0041eac0 f   Overlay.obj
 0001:0001dc20       ?drawTime@Overlay@@QAEXXZ  0041ec20 f   Overlay.obj
 0001:0001de60       ?drawBorder@Overlay@@QAEXXZ 0041ee60 f   Overlay.obj
 0001:0001e170       ??$?0ABV?$allocator@D@std@@$$V@?$_Compressed_pair@V?$allocator@D@std@@V?$_String_val@U?$_Simple_types@D@std@@@2@$00@std@@QAE@U_One_then_variadic_args_t@1@ABV?$allocator@D@1@@Z 0041f170 f i Overlay.obj
 0001:0001e1a0       ??$?6DU?$char_traits@D@std@@@std@@YAAAV?$basic_ostream@DU?$char_traits@D@std@@@0@AAV10@ABU?$_Fillobj@D@0@@Z 0041f1a0 f i Overlay.obj
 0001:0001e1d0       ??$?6DU?$char_traits@D@std@@@std@@YAAAV?$basic_ostream@DU?$char_traits@D@std@@@0@AAV10@ABU?$_Smanip@_J@0@@Z 0041f1d0 f i Overlay.obj
 0001:0001e210       ??$_Getvals@_W@?$time_get@DV?$istreambuf_iterator@DU?$char_traits@D@std@@@std@@@std@@IAEX_WABV_Locinfo@1@@Z 0041f210 f i Overlay.obj
 0001:0001e340       ??$_Getvals@_W@?$time_get@_WV?$istreambuf_iterator@_WU?$char_traits@_W@std@@@std@@@std@@IAEX_WABV_Locinfo@1@@Z 0041f340 f i Overlay.obj
 0001:0001e470       ??$_Maklocstr@D@std@@YAPADPBDPADABU_Cvtvec@@@Z 0041f470 f i Overlay.obj
 0001:0001e510       ??$_Maklocstr@_W@std@@YAPA_WPBDPA_WABU_Cvtvec@@@Z 0041f510 f i Overlay.obj
 0001:0001e680       ??$forward@ABV?$allocator@D@std@@@std@@YAABV?$allocator@D@0@ABV10@@Z 0041f680 f i Overlay.obj
 0001:0001e690       ??$setfill@D@std@@YA?AU?$_Fillobj@D@0@D@Z 0041f690 f i Overlay.obj
 0001:0001e6b0       ??0?$_Fillobj@D@std@@QAE@D@Z 0041f6b0 f i Overlay.obj
 0001:0001e6d0       ??0?$basic_string@DU?$char_traits@D@std@@V?$allocator@D@2@@std@@QAE@ABV?$allocator@D@1@@Z 0041f6d0 f i Overlay.obj
 0001:0001e750       ??0?$basic_stringbuf@DU?$char_traits@D@std@@V?$allocator@D@2@@std@@QAE@H@Z 0041f750 f i Overlay.obj
 0001:0001e7b0       ??0?$basic_stringstream@DU?$char_traits@D@std@@V?$allocator@D@2@@std@@QAE@XZ 0041f7b0 f i Overlay.obj
 0001:0001e8d0       ??1Overlay@@UAE@XZ         0041f8d0 f i Overlay.obj
 0001:0001e910       ??_EOverlay@@UAEPAXI@Z     0041f910 f i Overlay.obj
 0001:0001e910       ??_GOverlay@@UAEPAXI@Z     0041f910 f i Overlay.obj
 0001:0001e950       ?_Get_buffer_view@?$basic_stringbuf@DU?$char_traits@D@std@@V?$allocator@D@2@@std@@QBE?AU_Buffer_view@12@XZ 0041f950 f i Overlay.obj
 0001:0001ea70       ?_Maklocwcs@std@@YAPA_WPB_W@Z 0041fa70 f i Overlay.obj
 0001:0001eaf0       ?getHealth@PlayerObject@@QAEHXZ 0041faf0 f i Overlay.obj
 0001:0001eb10       ?getScore@GameManager@@QAEHXZ 0041fb10 f i Overlay.obj
 0001:0001eb30       ?getWindowHeight@BaseEngine@@QBEHXZ 0041fb30 f i Overlay.obj
 0001:0001eb50       ?getWindowWidth@BaseEngine@@QBEHXZ 0041fb50 f i Overlay.obj
 0001:0001eb70       ?str@?$basic_stringbuf@DU?$char_traits@D@std@@V?$allocator@D@2@@std@@QBE?AV?$basic_string@DU?$char_traits@D@std@@V?$allocator@D@2@@2@XZ 0041fb70 f i Overlay.obj
 0001:0001ec50       ?str@?$basic_stringstream@DU?$char_traits@D@std@@V?$allocator@D@2@@std@@QBE?AV?$basic_string@DU?$char_traits@D@std@@V?$allocator@D@2@@2@XZ 0041fc50 f i Overlay.obj
 0001:0001ec90       __vsnprintf_l              0041fc90 f i Overlay.obj
 0001:0001ed00       __vsprintf_l               0041fd00 f i Overlay.obj
 0001:0001ed30       _sprintf                   0041fd30 f i Overlay.obj
 0001:0001ed70       _wmemcpy                   0041fd70 f i Overlay.obj
 0001:0001eda0       ??0PauseDisplay@@QAE@PAVGameEngine@@@Z 0041fda0 f   PauseDisplay.obj
 0001:0001efc0       ?virtDraw@PauseDisplay@@UAEXXZ 0041ffc0 f   PauseDisplay.obj
 0001:0001f000       ?virtDoUpdate@PauseDisplay@@UAEXH@Z 00420000 f   PauseDisplay.obj
 0001:0001f130       ??1PauseDisplay@@UAE@XZ    00420130 f i PauseDisplay.obj
 0001:0001f150       ??_EPauseDisplay@@UAEPAXI@Z 00420150 f i PauseDisplay.obj
 0001:0001f150       ??_GPauseDisplay@@UAEPAXI@Z 00420150 f i PauseDisplay.obj
 0001:0001f190       ?setClicked@SwitchButton@@QAEX_N@Z 00420190 f i PauseDisplay.obj
 0001:0001f1b0       ??0RatMage@@QAE@PAVGameEngine@@@Z 004201b0 f   RatMage.obj
 0001:0001f270       ?performIdle@RatMage@@UAEXXZ 00420270 f   RatMage.obj
 0001:0001f2a0       ?performMoving@RatMage@@UAEXXZ 004202a0 f   RatMage.obj
 0001:0001f2e0       ?performAttack@RatMage@@UAEXXZ 004202e0 f   RatMage.obj
 0001:0001f340       ?performHurt@RatMage@@UAEXXZ 00420340 f   RatMage.obj
 0001:0001f370       ?changeState@RatMage@@UAEXW4AnimationState@BaseEntity@@@Z 00420370 f   RatMage.obj
 0001:0001f510       ??1RatMage@@UAE@XZ         00420510 f i RatMage.obj
 0001:0001f530       ??_ERatMage@@UAEPAXI@Z     00420530 f i RatMage.obj
 0001:0001f530       ??_GRatMage@@UAEPAXI@Z     00420530 f i RatMage.obj
 0001:0001f570       ??0StartDisplay@@QAE@PAVGameEngine@@@Z 00420570 f   StartDisplay.obj
 0001:0001f8c0       ?virtDraw@StartDisplay@@UAEXXZ 004208c0 f   StartDisplay.obj
 0001:0001f910       ?virtDoUpdate@StartDisplay@@UAEXH@Z 00420910 f   StartDisplay.obj
 0001:0001fb10       ??1StartDisplay@@UAE@XZ    00420b10 f i StartDisplay.obj
 0001:0001fb30       ??_EStartDisplay@@UAEPAXI@Z 00420b30 f i StartDisplay.obj
 0001:0001fb30       ??_GStartDisplay@@UAEPAXI@Z 00420b30 f i StartDisplay.obj
 0001:0001fb70       ??0SubmitButton@@QAE@PAVGameEngine@@HHHHH@Z 00420b70 f   SubmitButton.obj
 0001:0001fbc0       ?onClick@SubmitButton@@UAEXXZ 00420bc0 f   SubmitButton.obj
 0001:0001fbe0       ?isSubmitted@SubmitButton@@QAE_NXZ 00420be0 f   SubmitButton.obj
 0001:0001fc20       ??1SubmitButton@@UAE@XZ    00420c20 f i SubmitButton.obj
 0001:0001fc40       ??_ESubmitButton@@UAEPAXI@Z 00420c40 f i SubmitButton.obj
 0001:0001fc40       ??_GSubmitButton@@UAEPAXI@Z 00420c40 f i SubmitButton.obj
 0001:0001fc80       ??0ChaseObject@@QAE@PAVBaseEngine@@@Z 00420c80 f   ChaseObject.obj
 0001:0001fd80       ?virtDraw@ChaseObject@@UAEXXZ 00420d80 f   ChaseObject.obj
 0001:0001fe20       ?virtDoUpdate@ChaseObject@@UAEXH@Z 00420e20 f   ChaseObject.obj
 0001:000200d0       ??1ChaseObject@@UAE@XZ     004210d0 f i ChaseObject.obj
 0001:00020110       ??_EChaseObject@@UAEPAXI@Z 00421110 f i ChaseObject.obj
 0001:00020110       ??_GChaseObject@@UAEPAXI@Z 00421110 f i ChaseObject.obj
 0001:00020150       ?checkRectangles@CollisionDetection@@SA_NHHHHHHHH@Z 00421150 f i ChaseObject.obj
 0001:000201a0       ?getDrawHeight@DisplayableObject@@QBEHXZ 004211a0 f i ChaseObject.obj
 0001:000201c0       ?getDrawWidth@DisplayableObject@@QBEHXZ 004211c0 f i ChaseObject.obj
 0001:000201e0       ?getEngine@ChaseObject@@QBEPAVPsyjs31Engine@@XZ 004211e0 f i ChaseObject.obj
 0001:00020200       ?getPlayerObject@Psyjs31Engine@@QAEPAVPlayerObject@@XZ 00421200 f i ChaseObject.obj
 0001:00020220       ?virtNotify@DisplayableObject@@UAEJHHH@Z 00421220 f i ChaseObject.obj
 0001:00020240       ?virtSetupBackgroundBuffer@DraggingDemo@@UAEXXZ 00421240 f   DraggingDemo.obj
 0001:00020380       ?virtInitialiseObjects@DraggingDemo@@UAEHXZ 00421380 f   DraggingDemo.obj
 0001:000205e0       ?virtKeyDown@DraggingDemo@@UAEXH@Z 004215e0 f   DraggingDemo.obj
 0001:00020700       ??$_Emplace_back@$$V@?$_Uninitialized_backout_al@V?$allocator@PAVDisplayableObject@@@std@@@std@@QAEXXZ 00421700 f i DraggingDemo.obj
 0001:00020750       ??$_Resize@U_Value_init_tag@std@@@?$vector@PAVDisplayableObject@@V?$allocator@PAVDisplayableObject@@@std@@@std@@AAEXIABU_Value_init_tag@1@@Z 00421750 f i DraggingDemo.obj
 0001:00020880       ??$_Resize_reallocate@U_Value_init_tag@std@@@?$vector@PAVDisplayableObject@@V?$allocator@PAVDisplayableObject@@@std@@@std@@AAEXIABU_Value_init_tag@1@@Z 00421880 f i DraggingDemo.obj
 0001:00020a40       ??$_Uninitialized_value_construct_n@V?$allocator@PAVDisplayableObject@@@std@@@std@@YAPAPAVDisplayableObject@@PAPAV1@IAAV?$allocator@PAVDisplayableObject@@@0@@Z 00421a40 f i DraggingDemo.obj
 0001:00020b30       ??$_Zero_range@PAPAVDisplayableObject@@@std@@YAPAPAVDisplayableObject@@QAPAV1@0@Z 00421b30 f i DraggingDemo.obj
 0001:00020b80       ??$construct@PAVDisplayableObject@@$$V@?$_Default_allocator_traits@V?$allocator@PAVDisplayableObject@@@std@@@std@@SAXAAV?$allocator@PAVDisplayableObject@@@1@QAPAVDisplayableObject@@@Z 00421b80 f i DraggingDemo.obj
 0001:00020bd0       ??0DragableBaseClassObject@@QAE@HHPAVBaseEngine@@HH_N@Z 00421bd0 f i DraggingDemo.obj
 0001:00020c60       ??0DragableBaseClassObject@@QAE@PAVBaseEngine@@HH_N@Z 00421c60 f i DraggingDemo.obj
 0001:00020ce0       ??0DragableImageObject@@QAE@HHPAVBaseEngine@@V?$basic_string@DU?$char_traits@D@std@@V?$allocator@D@2@@std@@_N2@Z 00421ce0 f i DraggingDemo.obj
 0001:00020e80       ??0DragableObject@@QAE@HHPAVBaseEngine@@HH_N1@Z 00421e80 f i DraggingDemo.obj
 0001:00020f30       ??0DragableObject@@QAE@PAVBaseEngine@@HH_N1@Z 00421f30 f i DraggingDemo.obj
 0001:00020fe0       ??0ImageObject@@QAE@HHPAVBaseEngine@@V?$basic_string@DU?$char_traits@D@std@@V?$allocator@D@2@@std@@_N2@Z 00421fe0 f i DraggingDemo.obj
 0001:00021170       ??1DragableBaseClassObject@@UAE@XZ 00422170 f i DraggingDemo.obj
 0001:00021190       ??1DragableImageObject@@UAE@XZ 00422190 f i DraggingDemo.obj
 0001:000211c0       ??1DragableObject@@UAE@XZ  004221c0 f i DraggingDemo.obj
 0001:000211e0       ??1ImageObject@@UAE@XZ     004221e0 f i DraggingDemo.obj
 0001:00021210       ??A?$vector@PAVDisplayableObject@@V?$allocator@PAVDisplayableObject@@@std@@@std@@QAEAAPAVDisplayableObject@@I@Z 00422210 f i DraggingDemo.obj
 0001:000212c0       ??_EDragableBaseClassObject@@UAEPAXI@Z 004222c0 f i DraggingDemo.obj
 0001:000212c0       ??_GDragableBaseClassObject@@UAEPAXI@Z 004222c0 f i DraggingDemo.obj
 0001:00021300       ??_EDragableImageObject@@UAEPAXI@Z 00422300 f i DraggingDemo.obj
 0001:00021300       ??_GDragableImageObject@@UAEPAXI@Z 00422300 f i DraggingDemo.obj
 0001:00021340       ??_EDragableObject@@UAEPAXI@Z 00422340 f i DraggingDemo.obj
 0001:00021340       ??_GDragableObject@@UAEPAXI@Z 00422340 f i DraggingDemo.obj
 0001:00021380       ??_EImageObject@@UAEPAXI@Z 00422380 f i DraggingDemo.obj
 0001:00021380       ??_GImageObject@@UAEPAXI@Z 00422380 f i DraggingDemo.obj
 0001:000213c0       ?checkDoDrag@DragableBaseClassObject@@UAEXHH@Z 004223c0 f i DraggingDemo.obj
 0001:00021440       ?checkFinishDrag@DragableBaseClassObject@@UAEXHH@Z 00422440 f i DraggingDemo.obj
 0001:00021480       ?checkStartDrag@DragableBaseClassObject@@UAEXHH@Z 00422480 f i DraggingDemo.obj
 0001:00021510       ?checkWritable@DrawingSurface@@QAEXXZ 00422510 f i DraggingDemo.obj
 0001:00021560       ?createObjectArray@DisplayableObjectContainer@@QAEXH@Z 00422560 f i DraggingDemo.obj
 0001:000215b0       ?doDragRedraw@DragableBaseClassObject@@UAEXXZ 004225b0 f i DraggingDemo.obj
 0001:000215d0       ?getIntsPerWindowRow@DrawingSurface@@QBEIXZ 004225d0 f i DraggingDemo.obj
 0001:000215f0       ?notifyObjectsAboutMouse@BaseEngine@@QAEX_N@Z 004225f0 f i DraggingDemo.obj
 0001:00021610       ?rawSetPixel@DrawingSurface@@QAEXHHI@Z 00422610 f i DraggingDemo.obj
 0001:000216c0       ?resize@?$vector@PAVDisplayableObject@@V?$allocator@PAVDisplayableObject@@@std@@@std@@QAEXI@Z 004226c0 f i DraggingDemo.obj
 0001:000216f0       ?setBackgroundPixel@BaseEngine@@QAEXHHI@Z 004226f0 f i DraggingDemo.obj
 0001:00021730       ?setPixel@DrawingSurface@@QAEXHHI@Z 00422730 f i DraggingDemo.obj
 0001:000217b0       ?storeObjectInArray@DisplayableObjectContainer@@QAEXHPAVDisplayableObject@@@Z 004227b0 f i DraggingDemo.obj
 0001:000217f0       ?virtDraw@DragableImageObject@@UAEXXZ 004227f0 f i DraggingDemo.obj
 0001:00021870       ?virtDraw@ImageObject@@UAEXXZ 00422870 f i DraggingDemo.obj
 0001:000218f0       ?virtMouseDown@DragableImageObject@@UAEXHHH@Z 004228f0 f i DraggingDemo.obj
 0001:00021920       ?virtMouseDown@DragableObject@@UAEXHHH@Z 00422920 f i DraggingDemo.obj
 0001:00021950       ?virtMouseMoved@DragableImageObject@@UAEXHH@Z 00422950 f i DraggingDemo.obj
 0001:00021980       ?virtMouseMoved@DragableObject@@UAEXHH@Z 00422980 f i DraggingDemo.obj
 0001:000219b0       ?virtMouseUp@DragableImageObject@@UAEXHHH@Z 004229b0 f i DraggingDemo.obj
 0001:000219e0       ?virtMouseUp@DragableObject@@UAEXHHH@Z 004229e0 f i DraggingDemo.obj
 0001:00021a20       ??0DrawingSurface@@QAE@PAVBaseEngine@@@Z 00422a20 f   DrawingSurface.obj
 0001:00021ac0       ?drawLine@DrawingSurface@@QAEXNNNNI@Z 00422ac0 f   DrawingSurface.obj
 0001:00021cb0       ?drawThickLine@DrawingSurface@@QAEXNNNNIH@Z 00422cb0 f   DrawingSurface.obj
 0001:00022160       ?drawVerticalSidedRegion@DrawingSurface@@QAEXNNNNNNI@Z 00423160 f   DrawingSurface.obj
 0001:00022500       ?drawRectangle@DrawingSurface@@QAEXHHHHI@Z 00423500 f   DrawingSurface.obj
 0001:00022610       ?drawOval@DrawingSurface@@QAEXHHHHI@Z 00423610 f   DrawingSurface.obj
 0001:000227e0       ?rawDrawOval@DrawingSurface@@QAEXHHHHI@Z 004237e0 f   DrawingSurface.obj
 0001:00022940       ?drawHollowOval@DrawingSurface@@QAEXHHHHHHHHI@Z 00423940 f   DrawingSurface.obj
 0001:00022c60       ?drawPolygon@DrawingSurface@@QAEXHPAN0I@Z 00423c60 f   DrawingSurface.obj
 0001:000233f0       ?drawFastString@DrawingSurface@@QAEXHHPBDIPAVFont@@@Z 004243f0 f   DrawingSurface.obj
 0001:000234e0       ?drawScalableString@DrawingSurface@@QAEXHHPBDIPAVFont@@@Z 004244e0 f   DrawingSurface.obj
 0001:000236b0       ?drawShortenedArrow@DrawingSurface@@QAEXHHHHHHIHH@Z 004246b0 f   DrawingSurface.obj
 0001:00023c30       ?drawShortenedLine@DrawingSurface@@QAEXHHHHHHIH@Z 00424c30 f   DrawingSurface.obj
 0001:00024040       ?drawTriangle@DrawingSurface@@QAEXNNNNNNI@Z 00425040 f   DrawingSurface.obj
 0001:00024390       ?copyEntireSurface@DrawingSurface@@QAEXPAV1@@Z 00425390 f   DrawingSurface.obj
 0001:000243e0       ?copyRectangleFrom@DrawingSurface@@QAEXPAV1@HHHHHH@Z 004253e0 f   DrawingSurface.obj
 0001:000245e0       ?getAngle@DrawingSurface@@SANNNNN@Z 004255e0 f   DrawingSurface.obj
 0001:00024680       ?getVirtualRedrawMinX@DrawingSurface@@QAEHXZ 00425680 f   DrawingSurface.obj
 0001:000246d0       ?getVirtualRedrawMinY@DrawingSurface@@QAEHXZ 004256d0 f   DrawingSurface.obj
 0001:00024720       ?getVirtualRedrawMaxX@DrawingSurface@@QAEHXZ 00425720 f   DrawingSurface.obj
 0001:00024780       ?getVirtualRedrawMaxY@DrawingSurface@@QAEHXZ 00425780 f   DrawingSurface.obj
 0001:000247e0       ?getRealRedrawMinX@DrawingSurface@@QAEHXZ 004257e0 f   DrawingSurface.obj
 0001:00024830       ?getRealRedrawMinY@DrawingSurface@@QAEHXZ 00425830 f   DrawingSurface.obj
 0001:00024880       ?getRealRedrawMaxX@DrawingSurface@@QAEHXZ 00425880 f   DrawingSurface.obj
 0001:000248d0       ?getRealRedrawMaxY@DrawingSurface@@QAEHXZ 004258d0 f   DrawingSurface.obj
 0001:000254e0       ??$move@AAN@std@@YA$$QANAAN@Z 004264e0 f i DrawingSurface.obj
 0001:000254f0       ??$swap@H$0A@@std@@YAXAAH0@Z 004264f0 f i DrawingSurface.obj
 0001:00025540       ??$swap@N$0A@@std@@YAXAAN0@Z 00426540 f i DrawingSurface.obj
 0001:000255a0       ?checkBlitable@DrawingSurface@@QAEXXZ 004265a0 f i DrawingSurface.obj
 0001:000255f0       ?convertRealToVirtualXPosition@DrawingSurface@@QAEHH@Z 004265f0 f i DrawingSurface.obj
 0001:00025630       ?convertRealToVirtualYPosition@DrawingSurface@@QAEHH@Z 00426630 f i DrawingSurface.obj
 0001:00025670       ?getDefaultFont@BaseEngine@@QBEPAVFont@@XZ 00426670 f i DrawingSurface.obj
 0001:00025690       ?getRedrawAllScreen@BaseEngine@@QAEHXZ 00426690 f i DrawingSurface.obj
 0001:000256b0       ?getRedrawRectRealBottom@BaseEngine@@QAEHXZ 004266b0 f i DrawingSurface.obj
 0001:000256d0       ?getRedrawRectRealLeft@BaseEngine@@QAEHXZ 004266d0 f i DrawingSurface.obj
 0001:000256f0       ?getRedrawRectRealRight@BaseEngine@@QAEHXZ 004266f0 f i DrawingSurface.obj
 0001:00025710       ?getRedrawRectRealTop@BaseEngine@@QAEHXZ 00426710 f i DrawingSurface.obj
 0001:00025730       ?getRedrawRectVirtualBottom@BaseEngine@@QAEHXZ 00426730 f i DrawingSurface.obj
 0001:00025750       ?getRedrawRectVirtualLeft@BaseEngine@@QAEHXZ 00426750 f i DrawingSurface.obj
 0001:00025770       ?getRedrawRectVirtualRight@BaseEngine@@QAEHXZ 00426770 f i DrawingSurface.obj
 0001:00025790       ?getRedrawRectVirtualTop@BaseEngine@@QAEHXZ 00426790 f i DrawingSurface.obj
 0001:000257b0       ?getTTFFont@Font@@QAEPAU_TTF_Font@@XZ 004267b0 f i DrawingSurface.obj
 0001:000257d0       ??0EndDisplay@@QAE@PAVGameEngine@@@Z 004267d0 f   EndDisplay.obj
 0001:00025a20       ??1EndDisplay@@UAE@XZ      00426a20 f   EndDisplay.obj
 0001:00025a70       ?virtDraw@EndDisplay@@UAEXXZ 00426a70 f   EndDisplay.obj
 0001:00025bf0       ?virtDoUpdate@EndDisplay@@UAEXH@Z 00426bf0 f   EndDisplay.obj
 0001:00025cd0       ?setScore@EndDisplay@@QAEXH@Z 00426cd0 f   EndDisplay.obj
 0001:00025cf0       ?virtNotify@EndDisplay@@UAEJHHH@Z 00426cf0 f   EndDisplay.obj
 0001:00025d40       ?virtKeyDown@EndDisplay@@UAEXH@Z 00426d40 f   EndDisplay.obj
 0001:00025dd0       ?submit@EndDisplay@@QAEXXZ 00426dd0 f   EndDisplay.obj
 0001:000262f0       ??$?0PAD$0A@@?$basic_string@DU?$char_traits@D@std@@V?$allocator@D@2@@std@@QAE@PAD0ABV?$allocator@D@1@@Z 004272f0 f i EndDisplay.obj
 0001:000263e0       ??$?6U?$char_traits@D@std@@@std@@YAAAV?$basic_ostream@DU?$char_traits@D@std@@@0@AAV10@D@Z 004273e0 f i EndDisplay.obj
 0001:00026730       ??$_Adl_verify_range@PADPAD@std@@YAXABQAD0@Z 00427730 f i EndDisplay.obj
 0001:000267b0       ??$_Construct@$00PAD@?$basic_string@DU?$char_traits@D@std@@V?$allocator@D@2@@std@@AAEXQADI@Z 004277b0 f i EndDisplay.obj
 0001:000269b0       ??$_Get_unwrapped@AAPAD@std@@YA?A_TAAPAD@Z 004279b0 f i EndDisplay.obj
 0001:000269c0       ??$_Integral_to_string@DH@std@@YA?AV?$basic_string@DU?$char_traits@D@std@@V?$allocator@D@2@@0@H@Z 004279c0 f i EndDisplay.obj
 0001:00026a90       ??$_UIntegral_to_buff@DI@std@@YAPADPADI@Z 00427a90 f i EndDisplay.obj
 0001:00026af0       ??$end@D$0BF@@std@@YAPADAAY0BF@D@Z 00427af0 f i EndDisplay.obj
 0001:00026b00       ??0?$basic_fstream@DU?$char_traits@D@std@@@std@@QAE@PBDHH@Z 00427b00 f i EndDisplay.obj
 0001:00026c50       ??0?$basic_istringstream@DU?$char_traits@D@std@@V?$allocator@D@2@@std@@QAE@ABV?$basic_string@DU?$char_traits@D@std@@V?$allocator@D@2@@1@H@Z 00427c50 f i EndDisplay.obj
 0001:00026d70       ??0?$basic_ofstream@DU?$char_traits@D@std@@@std@@QAE@PBDHH@Z 00427d70 f i EndDisplay.obj
 0001:00026ec0       ??1?$basic_fstream@DU?$char_traits@D@std@@@std@@UAE@XZ 00427ec0 f i EndDisplay.obj
 0001:00026f30       ??1?$basic_istringstream@DU?$char_traits@D@std@@V?$allocator@D@2@@std@@UAE@XZ 00427f30 f i EndDisplay.obj
 0001:00026fa0       ??1?$basic_ofstream@DU?$char_traits@D@std@@@std@@UAE@XZ 00427fa0 f i EndDisplay.obj
 0001:00027010       ??1TextInputBox@@QAE@XZ    00428010 f i EndDisplay.obj
 0001:00027030       ??_D?$basic_fstream@DU?$char_traits@D@std@@@std@@QAEXXZ 00428030 f i EndDisplay.obj
 0001:00027060       ??_D?$basic_istringstream@DU?$char_traits@D@std@@V?$allocator@D@2@@std@@QAEXXZ 00428060 f i EndDisplay.obj
 0001:00027090       ??_D?$basic_ofstream@DU?$char_traits@D@std@@@std@@QAEXXZ 00428090 f i EndDisplay.obj
 0001:000270bb       ??_E?$basic_fstream@DU?$char_traits@D@std@@@std@@$4PPPPPPPM@A@AEPAXI@Z 004280bb f i EndDisplay.obj
 0001:000270c5       ??_E?$basic_istringstream@DU?$char_traits@D@std@@V?$allocator@D@2@@std@@$4PPPPPPPM@A@AEPAXI@Z 004280c5 f i EndDisplay.obj
 0001:000270cf       ??_E?$basic_ofstream@DU?$char_traits@D@std@@@std@@$4PPPPPPPM@A@AEPAXI@Z 004280cf f i EndDisplay.obj
 0001:000270e0       ??_E?$basic_fstream@DU?$char_traits@D@std@@@std@@UAEPAXI@Z 004280e0 f i EndDisplay.obj
 0001:000270e0       ??_G?$basic_fstream@DU?$char_traits@D@std@@@std@@UAEPAXI@Z 004280e0 f i EndDisplay.obj
 0001:00027130       ??_E?$basic_istringstream@DU?$char_traits@D@std@@V?$allocator@D@2@@std@@UAEPAXI@Z 00428130 f i EndDisplay.obj
 0001:00027130       ??_G?$basic_istringstream@DU?$char_traits@D@std@@V?$allocator@D@2@@std@@UAEPAXI@Z 00428130 f i EndDisplay.obj
 0001:00027180       ??_E?$basic_ofstream@DU?$char_traits@D@std@@@std@@UAEPAXI@Z 00428180 f i EndDisplay.obj
 0001:00027180       ??_G?$basic_ofstream@DU?$char_traits@D@std@@@std@@UAEPAXI@Z 00428180 f i EndDisplay.obj
 0001:000271d0       ??_EEndDisplay@@UAEPAXI@Z  004281d0 f i EndDisplay.obj
 0001:000271d0       ??_GEndDisplay@@UAEPAXI@Z  004281d0 f i EndDisplay.obj
 0001:00027210       ??_GTextInputBox@@QAEPAXI@Z 00428210 f i EndDisplay.obj
 0001:00027250       ?close@?$basic_fstream@DU?$char_traits@D@std@@@std@@QAEXXZ 00428250 f i EndDisplay.obj
 0001:00027290       ?close@?$basic_ofstream@DU?$char_traits@D@std@@@std@@QAEXXZ 00428290 f i EndDisplay.obj
 0001:000272d0       ?notifyObjectsAboutKeys@BaseEngine@@QAEX_N@Z 004282d0 f i EndDisplay.obj
 0001:000272f0       ?setMarginY@BaseButton@@QAEXN@Z 004282f0 f i EndDisplay.obj
 0001:00027310       ?setTextSize@BaseButton@@QAEXH@Z 00428310 f i EndDisplay.obj
 0001:00027330       ?to_string@std@@YA?AV?$basic_string@DU?$char_traits@D@std@@V?$allocator@D@2@@1@H@Z 00428330 f i EndDisplay.obj
 0001:00027370       ??0Scoreboard@@QAE@PAVGameEngine@@HHHH@Z 00428370 f   Scoreboard.obj
 0001:000274c0       ?drawBoard@Scoreboard@@QAEXXZ 004284c0 f   Scoreboard.obj
 0001:00027510       ?drawText@Scoreboard@@QAEXHHPBDH@Z 00428510 f   Scoreboard.obj
 0001:00027550       ?setText@Scoreboard@@QAEXHHPBD@Z 00428550 f   Scoreboard.obj
 0001:000275f0       ?drawTitles@Scoreboard@@QAEXXZ 004285f0 f   Scoreboard.obj
 0001:00027690       ?drawNumbers@Scoreboard@@QAEXXZ 00428690 f   Scoreboard.obj
 0001:000277d0       ?drawLineAcross@Scoreboard@@QAEXN@Z 004287d0 f   Scoreboard.obj
 0001:00027860       ?drawLineVert@Scoreboard@@QAEXN@Z 00428860 f   Scoreboard.obj
 0001:000278f0       ?drawAllLines@Scoreboard@@QAEXXZ 004288f0 f   Scoreboard.obj
 0001:00027a80       ?getScores@Scoreboard@@QAEXXZ 00428a80 f   Scoreboard.obj
 0001:00027c80       ?drawScores@Scoreboard@@QAEXXZ 00428c80 f   Scoreboard.obj
 0001:00028120       ??$?0$$V@?$_Compressed_pair@V?$allocator@UPlayer@Scoreboard@@@std@@V?$_Vector_val@U?$_Simple_types@UPlayer@Scoreboard@@@std@@@2@$00@std@@QAE@U_Zero_then_variadic_args_t@1@@Z 00429120 f i Scoreboard.obj
 0001:00028150       ??$?0UPlayer@Scoreboard@@@?$allocator@U_Container_proxy@std@@@std@@QAE@ABV?$allocator@UPlayer@Scoreboard@@@1@@Z 00429150 f i Scoreboard.obj
 0001:00028170       ??$_Allocate_at_least_helper@V?$allocator@UPlayer@Scoreboard@@@std@@@std@@YAPAUPlayer@Scoreboard@@AAV?$allocator@UPlayer@Scoreboard@@@0@AAI@Z 00429170 f i Scoreboard.obj
 0001:00028190       ??$_Construct_in_place@UPlayer@Scoreboard@@U12@@std@@YAXAAUPlayer@Scoreboard@@$$QAU12@@Z 00429190 f i Scoreboard.obj
 0001:000281e0       ??$_Destroy_range@V?$allocator@UPlayer@Scoreboard@@@std@@@std@@YAXPAUPlayer@Scoreboard@@QAU12@AAV?$allocator@UPlayer@Scoreboard@@@0@@Z 004291e0 f i Scoreboard.obj
 0001:00028260       ??$_Emplace_back@UPlayer@Scoreboard@@@?$_Uninitialized_backout_al@V?$allocator@UPlayer@Scoreboard@@@std@@@std@@QAEX$$QAUPlayer@Scoreboard@@@Z 00429260 f i Scoreboard.obj
 0001:000282c0       ??$_Emplace_back_with_unused_capacity@UPlayer@Scoreboard@@@?$vector@UPlayer@Scoreboard@@V?$allocator@UPlayer@Scoreboard@@@std@@@std@@AAEAAUPlayer@Scoreboard@@$$QAU23@@Z 004292c0 f i Scoreboard.obj
 0001:00028340       ??$_Emplace_one_at_back@UPlayer@Scoreboard@@@?$vector@UPlayer@Scoreboard@@V?$allocator@UPlayer@Scoreboard@@@std@@@std@@AAEAAUPlayer@Scoreboard@@$$QAU23@@Z 00429340 f i Scoreboard.obj
 0001:000283c0       ??$_Emplace_reallocate@UPlayer@Scoreboard@@@?$vector@UPlayer@Scoreboard@@V?$allocator@UPlayer@Scoreboard@@@std@@@std@@AAEPAUPlayer@Scoreboard@@QAU23@$$QAU23@@Z 004293c0 f i Scoreboard.obj
 0001:00028630       ??$_Get_size_of_n@$0DI@@std@@YAII@Z 00429630 f i Scoreboard.obj
 0001:00028670       ??$_Get_unwrapped@ABQAUPlayer@Scoreboard@@@std@@YA?A_TABQAUPlayer@Scoreboard@@@Z 00429670 f i Scoreboard.obj
 0001:00028680       ??$_Pocma@V?$allocator@D@std@@@std@@YAXAAV?$allocator@D@0@0@Z 00429680 f i Scoreboard.obj
 0001:000286a0       ??$_Unfancy@UPlayer@Scoreboard@@@std@@YAPAUPlayer@Scoreboard@@PAU12@@Z 004296a0 f i Scoreboard.obj
 0001:000286b0       ??$_Uninitialized_move@PAUPlayer@Scoreboard@@V?$allocator@UPlayer@Scoreboard@@@std@@@std@@YAPAUPlayer@Scoreboard@@QAU12@0PAU12@AAV?$allocator@UPlayer@Scoreboard@@@0@@Z 004296b0 f i Scoreboard.obj
 0001:00028790       ??$addressof@UPlayer@Scoreboard@@@std@@YAPAUPlayer@Scoreboard@@AAU12@@Z 00429790 f i Scoreboard.obj
 0001:000287a0       ??$addressof@V?$basic_string@DU?$char_traits@D@std@@V?$allocator@D@2@@std@@@std@@YAPAV?$basic_string@DU?$char_traits@D@std@@V?$allocator@D@2@@0@AAV10@@Z 004297a0 f i Scoreboard.obj
 0001:000287b0       ??$construct@UPlayer@Scoreboard@@U12@@?$_Default_allocator_traits@V?$allocator@UPlayer@Scoreboard@@@std@@@std@@SAXAAV?$allocator@UPlayer@Scoreboard@@@1@QAUPlayer@Scoreboard@@$$QAU34@@Z 004297b0 f i Scoreboard.obj
 0001:000287f0       ??$destroy@UPlayer@Scoreboard@@@?$_Default_allocator_traits@V?$allocator@UPlayer@Scoreboard@@@std@@@std@@SAXAAV?$allocator@UPlayer@Scoreboard@@@1@QAUPlayer@Scoreboard@@@Z 004297f0 f i Scoreboard.obj
 0001:00028810       ??$forward@UPlayer@Scoreboard@@@std@@YA$$QAUPlayer@Scoreboard@@AAU12@@Z 00429810 f i Scoreboard.obj
 0001:00028820       ??$move@AAUPlayer@Scoreboard@@@std@@YA$$QAUPlayer@Scoreboard@@AAU12@@Z 00429820 f i Scoreboard.obj
 0001:00028830       ??0?$_Uninitialized_backout_al@V?$allocator@UPlayer@Scoreboard@@@std@@@std@@QAE@PAUPlayer@Scoreboard@@AAV?$allocator@UPlayer@Scoreboard@@@1@@Z 00429830 f i Scoreboard.obj
 0001:00028870       ??0?$_Vector_val@U?$_Simple_types@UPlayer@Scoreboard@@@std@@@std@@QAE@XZ 00429870 f i Scoreboard.obj
 0001:000288c0       ??0?$allocator@UPlayer@Scoreboard@@@std@@QAE@XZ 004298c0 f i Scoreboard.obj
 0001:000288e0       ??0?$vector@UPlayer@Scoreboard@@V?$allocator@UPlayer@Scoreboard@@@std@@@std@@QAE@XZ 004298e0 f i Scoreboard.obj
 0001:00028970       ??0Player@Scoreboard@@QAE@$$QAU01@@Z 00429970 f i Scoreboard.obj
 0001:000289b0       ??1?$_Uninitialized_backout_al@V?$allocator@UPlayer@Scoreboard@@@std@@@std@@QAE@XZ 004299b0 f i Scoreboard.obj
 0001:000289e0       ??1?$vector@UPlayer@Scoreboard@@V?$allocator@UPlayer@Scoreboard@@@std@@@std@@QAE@XZ 004299e0 f i Scoreboard.obj
 0001:00028a50       ??1Player@Scoreboard@@QAE@XZ 00429a50 f i Scoreboard.obj
 0001:00028a80       ??4?$basic_string@DU?$char_traits@D@std@@V?$allocator@D@2@@std@@QAEAAV01@$$QAV01@@Z 00429a80 f i Scoreboard.obj
 0001:00028b10       ??_GPlayer@Scoreboard@@QAEPAXI@Z 00429b10 f i Scoreboard.obj
 0001:00028b50       ?_Calculate_growth@?$vector@UPlayer@Scoreboard@@V?$allocator@UPlayer@Scoreboard@@@std@@@std@@ABEII@Z 00429b50 f i Scoreboard.obj
 0001:00028bc0       ?_Change_array@?$vector@UPlayer@Scoreboard@@V?$allocator@UPlayer@Scoreboard@@@std@@@std@@AAEXQAUPlayer@Scoreboard@@II@Z 00429bc0 f i Scoreboard.obj
 0001:00028c90       ?_Get_first@?$_Compressed_pair@V?$allocator@UPlayer@Scoreboard@@@std@@V?$_Vector_val@U?$_Simple_types@UPlayer@Scoreboard@@@std@@@2@$00@std@@QAEAAV?$allocator@UPlayer@Scoreboard@@@2@XZ 00429c90 f i Scoreboard.obj
 0001:00028cb0       ?_Get_first@?$_Compressed_pair@V?$allocator@UPlayer@Scoreboard@@@std@@V?$_Vector_val@U?$_Simple_types@UPlayer@Scoreboard@@@std@@@2@$00@std@@QBEABV?$allocator@UPlayer@Scoreboard@@@2@XZ 00429cb0 f i Scoreboard.obj
 0001:00028cd0       ?_Getal@?$vector@UPlayer@Scoreboard@@V?$allocator@UPlayer@Scoreboard@@@std@@@std@@AAEAAV?$allocator@UPlayer@Scoreboard@@@2@XZ 00429cd0 f i Scoreboard.obj
 0001:00028cf0       ?_Getal@?$vector@UPlayer@Scoreboard@@V?$allocator@UPlayer@Scoreboard@@@std@@@std@@ABEABV?$allocator@UPlayer@Scoreboard@@@2@XZ 00429cf0 f i Scoreboard.obj
 0001:00028d10       ?_Orphan_range@?$vector@UPlayer@Scoreboard@@V?$allocator@UPlayer@Scoreboard@@@std@@@std@@ABEXPAUPlayer@Scoreboard@@0@Z 00429d10 f i Scoreboard.obj
 0001:00028d40       ?_Orphan_range_locked@?$vector@UPlayer@Scoreboard@@V?$allocator@UPlayer@Scoreboard@@@std@@@std@@ABEXPAUPlayer@Scoreboard@@0@Z 00429d40 f i Scoreboard.obj
 0001:00028dd0       ?_Orphan_range_unlocked@?$vector@UPlayer@Scoreboard@@V?$allocator@UPlayer@Scoreboard@@@std@@@std@@ABEXPAUPlayer@Scoreboard@@0@Z 00429dd0 f i Scoreboard.obj
 0001:00028e50       ?_Release@?$_Uninitialized_backout_al@V?$allocator@UPlayer@Scoreboard@@@std@@@std@@QAEPAUPlayer@Scoreboard@@XZ 00429e50 f i Scoreboard.obj
 0001:00028e80       ?_Tidy@?$vector@UPlayer@Scoreboard@@V?$allocator@UPlayer@Scoreboard@@@std@@@std@@AAEXXZ 00429e80 f i Scoreboard.obj
 0001:00028f80       ?_Xlength@?$vector@UPlayer@Scoreboard@@V?$allocator@UPlayer@Scoreboard@@@std@@@std@@CAXXZ 00429f80 f i Scoreboard.obj
 0001:00028fa0       ?_Xrange@?$vector@UPlayer@Scoreboard@@V?$allocator@UPlayer@Scoreboard@@@std@@@std@@CAXXZ 00429fa0 f i Scoreboard.obj
 0001:00028fc0       ?allocate@?$allocator@UPlayer@Scoreboard@@@std@@QAEPAUPlayer@Scoreboard@@I@Z 00429fc0 f i Scoreboard.obj
 0001:00028ff0       ?at@?$vector@UPlayer@Scoreboard@@V?$allocator@UPlayer@Scoreboard@@@std@@@std@@QAEAAUPlayer@Scoreboard@@I@Z 00429ff0 f i Scoreboard.obj
 0001:00029040       ?capacity@?$vector@UPlayer@Scoreboard@@V?$allocator@UPlayer@Scoreboard@@@std@@@std@@QBEIXZ 0042a040 f i Scoreboard.obj
 0001:00029070       ?deallocate@?$allocator@UPlayer@Scoreboard@@@std@@QAEXQAUPlayer@Scoreboard@@I@Z 0042a070 f i Scoreboard.obj
 0001:00029110       ?max_size@?$_Default_allocator_traits@V?$allocator@UPlayer@Scoreboard@@@std@@@std@@SAIABV?$allocator@UPlayer@Scoreboard@@@2@@Z 0042a110 f i Scoreboard.obj
 0001:00029120       ?max_size@?$vector@UPlayer@Scoreboard@@V?$allocator@UPlayer@Scoreboard@@@std@@@std@@QBEIXZ 0042a120 f i Scoreboard.obj
 0001:00029170       ?mySDLLockSurface@DrawingSurface@@QAEXXZ 0042a170 f i Scoreboard.obj
 0001:000291c0       ?mySDLUnlockSurface@DrawingSurface@@QAEXXZ 0042a1c0 f i Scoreboard.obj
 0001:00029210       ?push_back@?$vector@UPlayer@Scoreboard@@V?$allocator@UPlayer@Scoreboard@@@std@@@std@@QAEX$$QAUPlayer@Scoreboard@@@Z 0042a210 f i Scoreboard.obj
 0001:00029240       ??0ScoreDisplay@@QAE@PAVGameEngine@@@Z 0042a240 f   ScoreDisplay.obj
 0001:000293e0       ??1ScoreDisplay@@UAE@XZ    0042a3e0 f   ScoreDisplay.obj
 0001:00029430       ?virtDraw@ScoreDisplay@@UAEXXZ 0042a430 f   ScoreDisplay.obj
 0001:000294b0       ?virtDoUpdate@ScoreDisplay@@UAEXH@Z 0042a4b0 f   ScoreDisplay.obj
 0001:00029610       ??1Scoreboard@@QAE@XZ      0042a610 f i ScoreDisplay.obj
 0001:00029660       ??_EScoreDisplay@@UAEPAXI@Z 0042a660 f i ScoreDisplay.obj
 0001:00029660       ??_GScoreDisplay@@UAEPAXI@Z 0042a660 f i ScoreDisplay.obj
 0001:000296a0       ??_GScoreboard@@QAEPAXI@Z  0042a6a0 f i ScoreDisplay.obj
 0001:000296e0       ??0ExitButton@@QAE@PAVGameEngine@@HHHH@Z 0042a6e0 f   SimpleButtons.obj
 0001:00029720       ?onClick@ExitButton@@UAEXXZ 0042a720 f   SimpleButtons.obj
 0001:00029740       ??0BackButton@@QAE@PAVGameEngine@@HHHHHH@Z 0042a740 f   SimpleButtons.obj
 0001:000297d0       ?onClick@BackButton@@UAEXXZ 0042a7d0 f   SimpleButtons.obj
 0001:000297f0       ??0SwitchButton@@QAE@PAVGameEngine@@HHHHPBD@Z 0042a7f0 f   SimpleButtons.obj
 0001:00029830       ?onClick@SwitchButton@@UAEXXZ 0042a830 f   SimpleButtons.obj
 0001:00029850       ?isClicked@SwitchButton@@QAE_NXZ 0042a850 f   SimpleButtons.obj
 0001:000298d0       ??1BackButton@@UAE@XZ      0042a8d0 f i SimpleButtons.obj
 0001:000298f0       ??1ExitButton@@UAE@XZ      0042a8f0 f i SimpleButtons.obj
 0001:00029910       ??1SwitchButton@@UAE@XZ    0042a910 f i SimpleButtons.obj
 0001:00029930       ??_EBackButton@@UAEPAXI@Z  0042a930 f i SimpleButtons.obj
 0001:00029930       ??_GBackButton@@UAEPAXI@Z  0042a930 f i SimpleButtons.obj
 0001:00029970       ??_EExitButton@@UAEPAXI@Z  0042a970 f i SimpleButtons.obj
 0001:00029970       ??_GExitButton@@UAEPAXI@Z  0042a970 f i SimpleButtons.obj
 0001:000299b0       ??_ESwitchButton@@UAEPAXI@Z 0042a9b0 f i SimpleButtons.obj
 0001:000299b0       ??_GSwitchButton@@UAEPAXI@Z 0042a9b0 f i SimpleButtons.obj
 0001:000299f0       ??0Fireball@@QAE@PAVGameEngine@@HH@Z 0042a9f0 f   Fireball.obj
 0001:00029ad0       ?performCast@Fireball@@UAEXXZ 0042aad0 f   Fireball.obj
 0001:00029b00       ?performHit@Fireball@@UAEXXZ 0042ab00 f   Fireball.obj
 0001:00029b20       ?changeState@Fireball@@UAEXW4RangedAttackState@BaseRangedAttack@@@Z 0042ab20 f   Fireball.obj
 0001:00029c30       ??1Fireball@@UAE@XZ        0042ac30 f i Fireball.obj
 0001:00029c50       ??_EFireball@@UAEPAXI@Z    0042ac50 f i Fireball.obj
 0001:00029c50       ??_GFireball@@UAEPAXI@Z    0042ac50 f i Fireball.obj
 0001:00029c90       ??0FlashingDemo@@QAE@XZ    0042ac90 f   FlashingDemo.obj
 0001:00029d50       ??1FlashingDemo@@UAE@XZ    0042ad50 f   FlashingDemo.obj
 0001:00029db0       ?virtSetupBackgroundBuffer@FlashingDemo@@UAEXXZ 0042adb0 f   FlashingDemo.obj
 0001:0002a250       ?virtMainLoopDoBeforeUpdate@FlashingDemo@@UAEXXZ 0042b250 f   FlashingDemo.obj
 0001:0002a310       ?virtCreateSurfaces@FlashingDemo@@UAEXXZ 0042b310 f   FlashingDemo.obj
 0001:0002a540       ??_EFlashingDemo@@UAEPAXI@Z 0042b540 f i FlashingDemo.obj
 0001:0002a540       ??_GFlashingDemo@@UAEPAXI@Z 0042b540 f i FlashingDemo.obj
 0001:0002a580       ?copyAllBackgroundBuffer@BaseEngine@@UAEXXZ 0042b580 f i FlashingDemo.obj
 0001:0002a5b0       ?copyBackgroundPixels@BaseEngine@@UAEXHHHH@Z 0042b5b0 f i FlashingDemo.obj
 0001:0002a600       ?destroyOldObjects@DisplayableObjectContainer@@UAEX_N@Z 0042b600 f i FlashingDemo.obj
 0001:0002a6f0       ?fillBackground@BaseEngine@@UAEXI@Z 0042b6f0 f i FlashingDemo.obj
 0001:0002a720       ?filter@BaseEngine@@UAE_NPAVDrawingSurface@@AAH1AAI_N@Z 0042b720 f i FlashingDemo.obj
 0001:0002a7e0       ?filterConvertRealToVirtualXPosition@FilterPoints@@UAEHH@Z 0042b7e0 f i FlashingDemo.obj
 0001:0002a800       ?filterConvertRealToVirtualYPosition@FilterPoints@@UAEHH@Z 0042b800 f i FlashingDemo.obj
 0001:0002a820       ?filterConvertVirtualToRealXPosition@FilterPoints@@UAEHH@Z 0042b820 f i FlashingDemo.obj
 0001:0002a840       ?filterConvertVirtualToRealYPosition@FilterPoints@@UAEHH@Z 0042b840 f i FlashingDemo.obj
 0001:0002a860       ?getModifiedTime@BaseEngine@@UBEHXZ 0042b860 f i FlashingDemo.obj
 0001:0002a8a0       ?size@?$vector@PAVDisplayableObject@@V?$allocator@PAVDisplayableObject@@@std@@@std@@QBEIXZ 0042b8a0 f i FlashingDemo.obj
 0001:0002a8d0       ?virtBackgroundMouseDown@BaseEngine@@UAEXHHHHH@Z 0042b8d0 f i FlashingDemo.obj
 0001:0002a8e0       ?virtMainLoopDoAfterUpdate@BaseEngine@@UAEXXZ 0042b8e0 f i FlashingDemo.obj
 0001:0002a8f0       ?virtMainLoopPostUpdate@BaseEngine@@UAEXXZ 0042b8f0 f i FlashingDemo.obj
 0001:0002a900       ?virtMainLoopPreUpdate@BaseEngine@@UAEXXZ 0042b900 f i FlashingDemo.obj
 0001:0002a910       ?virtMainLoopStartIteration@BaseEngine@@UAEXXZ 0042b910 f i FlashingDemo.obj
 0001:0002a920       ?virtMouseWheel@BaseEngine@@UAEXHHHH@Z 0042b920 f i FlashingDemo.obj
 0001:0002a930       ?virtPostDraw@BaseEngine@@UAEXXZ 0042b930 f i FlashingDemo.obj
 0001:0002a940       ?virtPreDraw@BaseEngine@@UAEXXZ 0042b940 f i FlashingDemo.obj
 0001:0002a950       ?virtRealMouseDown@BaseEngine@@UAEXHHH@Z 0042b950 f i FlashingDemo.obj
 0001:0002a960       ?virtRealMouseUp@BaseEngine@@UAEXHHH@Z 0042b960 f i FlashingDemo.obj
 0001:0002a970       ?virtTouchEvent@BaseEngine@@UAEXHH_J0MMMMM@Z 0042b970 f i FlashingDemo.obj
 0001:0002a980       ?virtInitialise@GameEngine@@UAEHXZ 0042b980 f   GameEngine.obj
 0001:0002aa00       ?virtSetupBackgroundBuffer@GameEngine@@UAEXXZ 0042ba00 f   GameEngine.obj
 0001:0002aa20       ?virtKeyDown@GameEngine@@UAEXH@Z 0042ba20 f   GameEngine.obj
 0001:0002aa70       ?virtInitialiseObjects@GameEngine@@UAEHXZ 0042ba70 f   GameEngine.obj
 0001:0002aac0       ?gameStartup@GameEngine@@QAEXXZ 0042bac0 f   GameEngine.obj
 0001:0002ac70       ?resetGame@GameEngine@@QAEXXZ 0042bc70 f   GameEngine.obj
 0001:0002ae30       ?changeState@GameEngine@@QAEXH@Z 0042be30 f   GameEngine.obj
 0001:0002b0e0       ?changeStateGiveValue@GameEngine@@QAEXHH@Z 0042c0e0 f   GameEngine.obj
 0001:0002b120       ?getGameManager@GameEngine@@QAEPAVGameManager@@XZ 0042c120 f   GameEngine.obj
 0001:0002b330       ??D?$_Vector_const_iterator@V?$_Vector_val@U?$_Simple_types@PAVDisplayableObject@@@std@@@std@@@std@@QBEABQAVDisplayableObject@@XZ 0042c330 f i GameEngine.obj
 0001:0002b4a0       ??E?$_Vector_const_iterator@V?$_Vector_val@U?$_Simple_types@PAVDisplayableObject@@@std@@@std@@@std@@QAE?AV01@H@Z 0042c4a0 f i GameEngine.obj
 0001:0002b4f0       ??E?$_Vector_const_iterator@V?$_Vector_val@U?$_Simple_types@PAVDisplayableObject@@@std@@@std@@@std@@QAEAAV01@XZ 0042c4f0 f i GameEngine.obj
 0001:0002b660       ?lockBackgroundForDrawing@BaseEngine@@QAEXXZ 0042c660 f i GameEngine.obj
 0001:0002b680       ?setAllObjectsVisible@DisplayableObjectContainer@@QBEX_N@Z 0042c680 f i GameEngine.obj
 0001:0002b780       ?setTransparentColour@DrawingSurface@@QAEXI@Z 0042c780 f i GameEngine.obj
 0001:0002b840       ?unlockBackgroundForDrawing@BaseEngine@@QAEXXZ 0042c840 f i GameEngine.obj
 0001:0002b860       ??0GameManager@@QAE@PAVGameEngine@@@Z 0042c860 f   GameManager.obj
 0001:0002b930       ?addEntity@GameManager@@QAEXPAVBaseEntity@@@Z 0042c930 f   GameManager.obj
 0001:0002b990       ?removeEntity@GameManager@@QAEXPAVBaseEntity@@@Z 0042c990 f   GameManager.obj
 0001:0002b9b0       ?removeAllEntities@GameManager@@QAEXXZ 0042c9b0 f   GameManager.obj
 0001:0002ba10       ?checkValidPosition@GameManager@@QAE_NHH@Z 0042ca10 f   GameManager.obj
 0001:0002ba70       ?summon@GameManager@@QAEXH@Z 0042ca70 f   GameManager.obj
 0001:0002bbf0       ?summonWave@GameManager@@QAEXH@Z 0042cbf0 f   GameManager.obj
 0001:0002bc60       ?checkWave@GameManager@@QAEXH@Z 0042cc60 f   GameManager.obj
 0001:0002bcd0       ?updateWaveStrength@GameManager@@QAEXXZ 0042ccd0 f   GameManager.obj
 0001:0002bdd0       ?checkAllCollisions@GameManager@@QAEXPAVBaseRangedAttack@@HH@Z 0042cdd0 f   GameManager.obj
 0001:0002be80       ?addPoints@GameManager@@QAEXH@Z 0042ce80 f   GameManager.obj
 0001:0002bea0       ?endGame@GameManager@@QAEXXZ 0042cea0 f   GameManager.obj
 0001:0002bee0       ?saveGameAndExit@GameManager@@QAEXXZ 0042cee0 f   GameManager.obj
 0001:0002c0b0       ?loadGame@GameManager@@QAEXXZ 0042d0b0 f   GameManager.obj
 0001:0002c9b0       ?startGame@GameManager@@QAEXXZ 0042d9b0 f   GameManager.obj
 0001:0002cf80       ??$?0ABV?$allocator@PAVDisplayableObject@@@std@@$$V@?$_Compressed_pair@V?$allocator@PAVDisplayableObject@@@std@@V?$_Vector_val@U?$_Simple_types@PAVDisplayableObject@@@std@@@2@$00@std@@QAE@U_One_then_variadic_args_t@1@ABV?$allocator@PAVDisplayableObject@@@1@@Z 0042df80 f i GameManager.obj
 0001:0002cfb0       ??$?0PAVDisplayableObject@@@?$allocator@U_Container_proxy@std@@@std@@QAE@ABV?$allocator@PAVDisplayableObject@@@1@@Z 0042dfb0 f i GameManager.obj
 0001:0002cfd0       ??$?8DU?$char_traits@D@std@@V?$allocator@D@1@@std@@YA_NABV?$basic_string@DU?$char_traits@D@std@@V?$allocator@D@2@@0@QBD@Z 0042dfd0 f i GameManager.obj
 0001:0002cff0       ??$?9DU?$char_traits@D@std@@V?$allocator@D@1@@std@@YA_NABV?$basic_string@DU?$char_traits@D@std@@V?$allocator@D@2@@0@QBD@Z 0042dff0 f i GameManager.obj
 0001:0002d030       ??$_Construct_n@$$V@?$vector@PAVDisplayableObject@@V?$allocator@PAVDisplayableObject@@@std@@@std@@AAEXI@Z 0042e030 f i GameManager.obj
 0001:0002d140       ??$_Traits_equal@U?$char_traits@D@std@@@std@@YA_NQBDI0I@Z 0042e140 f i GameManager.obj
 0001:0002d190       ??$for_each@V?$_Vector_const_iterator@V?$_Vector_val@U?$_Simple_types@PAVDisplayableObject@@@std@@@std@@@std@@V<lambda_30e6a374895662ded208c9cbe5dce392>@@@std@@YA?AV<lambda_30e6a374895662ded208c9cbe5dce392>@@V?$_Vector_const_iterator@V?$_Vector_val@U?$_Simple_types@PAVDisplayableObject@@@std@@@std@@@0@0V1@@Z 0042e190 f i GameManager.obj
 0001:0002d360       ??$forward@ABV?$allocator@PAVDisplayableObject@@@std@@@std@@YAABV?$allocator@PAVDisplayableObject@@@0@ABV10@@Z 0042e360 f i GameManager.obj
 0001:0002d370       ??0<lambda_30e6a374895662ded208c9cbe5dce392>@@QAE@ABH00@Z 0042e370 f i GameManager.obj
 0001:0002d3b0       ??0?$_Vector_val@U?$_Simple_types@PAVDisplayableObject@@@std@@@std@@QAE@XZ 0042e3b0 f i GameManager.obj
 0001:0002d400       ??0?$allocator@PAVDisplayableObject@@@std@@QAE@XZ 0042e400 f i GameManager.obj
 0001:0002d420       ??0?$vector@PAVDisplayableObject@@V?$allocator@PAVDisplayableObject@@@std@@@std@@QAE@IABV?$allocator@PAVDisplayableObject@@@1@@Z 0042e420 f i GameManager.obj
 0001:0002d460       ??0DisplayableObjectContainer@@QAE@H@Z 0042e460 f i GameManager.obj
 0001:0002d4c0       ??1?$_Tidy_guard@V?$vector@PAVDisplayableObject@@V?$allocator@PAVDisplayableObject@@@std@@@std@@@std@@QAE@XZ 0042e4c0 f i GameManager.obj
 0001:0002d4f0       ??1?$vector@PAVDisplayableObject@@V?$allocator@PAVDisplayableObject@@@std@@@std@@QAE@XZ 0042e4f0 f i GameManager.obj
 0001:0002d560       ??1DisplayableObjectContainer@@UAE@XZ 0042e560 f i GameManager.obj
 0001:0002d5d0       ??1GameManager@@UAE@XZ     0042e5d0 f i GameManager.obj
 0001:0002d640       ??R<lambda_30e6a374895662ded208c9cbe5dce392>@@QBE@PAVDisplayableObject@@@Z 0042e640 f i GameManager.obj
 0001:0002d690       ??_EDisplayableObjectContainer@@UAEPAXI@Z 0042e690 f i GameManager.obj
 0001:0002d690       ??_GDisplayableObjectContainer@@UAEPAXI@Z 0042e690 f i GameManager.obj
 0001:0002d6d0       ??_EGameManager@@UAEPAXI@Z 0042e6d0 f i GameManager.obj
 0001:0002d6d0       ??_GGameManager@@UAEPAXI@Z 0042e6d0 f i GameManager.obj
 0001:0002d710       ?_Buy_nonzero@?$vector@PAVDisplayableObject@@V?$allocator@PAVDisplayableObject@@@std@@@std@@AAEXI@Z 0042e710 f i GameManager.obj
 0001:0002d750       ?_Buy_raw@?$vector@PAVDisplayableObject@@V?$allocator@PAVDisplayableObject@@@std@@@std@@AAEXI@Z 0042e750 f i GameManager.obj
 0001:0002d7d0       ?_Equal@?$basic_string@DU?$char_traits@D@std@@V?$allocator@D@2@@std@@QBE_NQBD@Z 0042e7d0 f i GameManager.obj
 0001:0002d820       ?_Tidy@?$vector@PAVDisplayableObject@@V?$allocator@PAVDisplayableObject@@@std@@@std@@AAEXXZ 0042e820 f i GameManager.obj
 0001:0002d920       ?_Unchecked_begin@?$vector@PAVDisplayableObject@@V?$allocator@PAVDisplayableObject@@@std@@@std@@QAEPAPAVDisplayableObject@@XZ 0042e920 f i GameManager.obj
 0001:0002d940       ?_Unchecked_end@?$vector@PAVDisplayableObject@@V?$allocator@PAVDisplayableObject@@@std@@@std@@QAEPAPAVDisplayableObject@@XZ 0042e940 f i GameManager.obj
 0001:0002d960       ?getContentCount@DisplayableObjectContainer@@QBEHXZ 0042e960 f i GameManager.obj
 0001:0002d980       ?getDamage@BaseRangedAttack@@QAEHXZ 0042e980 f i GameManager.obj
 0001:0002d9a0       ?getDrawingRegionLeft@DisplayableObject@@QBEHXZ 0042e9a0 f i GameManager.obj
 0001:0002d9c0       ?getDrawingRegionTop@DisplayableObject@@QBEHXZ 0042e9c0 f i GameManager.obj
 0001:0002d9e0       ?getEnemyType@BaseEnemy@@QAEHXZ 0042e9e0 f i GameManager.obj
 0001:0002da00       ?getMap@BackgroundTileObject@@QAEHXZ 0042ea00 f i GameManager.obj
 0001:0002da20       ?getOverlay@GameEngine@@QAEPAVOverlay@@XZ 0042ea20 f i GameManager.obj
 0001:0002da40       ?getXCoord@BackgroundTileObject@@QAEHXZ 0042ea40 f i GameManager.obj
 0001:0002da60       ?getXOffset@BackgroundTileObject@@QAEHXZ 0042ea60 f i GameManager.obj
 0001:0002da80       ?getYCoord@BackgroundTileObject@@QAEHXZ 0042ea80 f i GameManager.obj
 0001:0002daa0       ?getYOffset@BackgroundTileObject@@QAEHXZ 0042eaa0 f i GameManager.obj
 0001:0002dac0       ?is_open@?$basic_filebuf@DU?$char_traits@D@std@@@std@@QBE_NXZ 0042eac0 f i GameManager.obj
 0001:0002daf0       ?is_open@?$basic_ifstream@DU?$char_traits@D@std@@@std@@QBE_NXZ 0042eaf0 f i GameManager.obj
 0001:0002db10       ?moveToLast@DisplayableObjectContainer@@QAE_NPAVDisplayableObject@@@Z 0042eb10 f i GameManager.obj
 0001:0002dc90       ?notifyAllObjects@DisplayableObjectContainer@@QBEXHHH@Z 0042ec90 f i GameManager.obj
 0001:0002dd20       ?setHealth@PlayerObject@@QAEXH@Z 0042ed20 f i GameManager.obj
 0001:0002dd40       ?setXCoord@BackgroundTileObject@@QAEXH@Z 0042ed40 f i GameManager.obj
 0001:0002dd60       ?setXOffset@BackgroundTileObject@@QAEXH@Z 0042ed60 f i GameManager.obj
 0001:0002dd80       ?setYCoord@BackgroundTileObject@@QAEXH@Z 0042ed80 f i GameManager.obj
 0001:0002dda0       ?setYOffset@BackgroundTileObject@@QAEXH@Z 0042eda0 f i GameManager.obj
 0001:0002ddc0       ?virtSetupBackgroundBuffer@ImageMappingDemo@@UAEXXZ 0042edc0 f   ImageMappingDemo.obj
 0001:0002dec0       ?virtInitialiseObjects@ImageMappingDemo@@UAEHXZ 0042eec0 f   ImageMappingDemo.obj
 0001:0002e240       ?virtKeyDown@ImageMappingDemo@@UAEXH@Z 0042f240 f   ImageMappingDemo.obj
 0001:0002e270       ?virtMainLoopDoBeforeUpdate@ImageMappingDemo@@UAEXXZ 0042f270 f   ImageMappingDemo.obj
 0001:0002e300       ?mapCoordinates@ImageMappingDemo@@UAE_NAAN0ABVSimpleImage@@@Z 0042f300 f   ImageMappingDemo.obj
 0001:0002e770       ??0MappableImageObject@@QAE@PAVImagePixelMapping@@HHPAVBaseEngine@@V?$basic_string@DU?$char_traits@D@std@@V?$allocator@D@2@@std@@_N3@Z 0042f770 f i ImageMappingDemo.obj
 0001:0002e830       ??1MappableImageObject@@UAE@XZ 0042f830 f i ImageMappingDemo.obj
 0001:0002e850       ??_EMappableImageObject@@UAEPAXI@Z 0042f850 f i ImageMappingDemo.obj
 0001:0002e850       ??_GMappableImageObject@@UAEPAXI@Z 0042f850 f i ImageMappingDemo.obj
 0001:0002e890       ?getPixelColour@MappableImageObject@@QAEHHH@Z 0042f890 f i ImageMappingDemo.obj
 0001:0002e8c0       ?getPixelColour@SimpleImage@@QBEHHH@Z 0042f8c0 f i ImageMappingDemo.obj
 0001:0002e8f0       ?getRawPixelColour@RawImageData@@QBEHHH@Z 0042f8f0 f i ImageMappingDemo.obj
 0001:0002e940       ?getTheData@SimpleImage@@QBEABV?$shared_ptr@VRawImageData@@@std@@XZ 0042f940 f i ImageMappingDemo.obj
 0001:0002e960       ?setOpaque@RawImageData@@QAEXXZ 0042f960 f i ImageMappingDemo.obj
 0001:0002e9d0       ?setTransparencyColour@MappableImageObject@@QAEXH@Z 0042f9d0 f i ImageMappingDemo.obj
 0001:0002ea00       ?setTransparencyColour@SimpleImage@@QAEXH@Z 0042fa00 f i ImageMappingDemo.obj
 0001:0002ea70       ?setTransparentColour@RawImageData@@QAEXI@Z 0042fa70 f i ImageMappingDemo.obj
 0001:0002eb90       ?virtDraw@MappableImageObject@@UAEXXZ 0042fb90 f i ImageMappingDemo.obj
 0001:0002ec20       _SDL_main                  0042fc20 f   mainfunction.obj
 0001:0002ec80       ?doProgram@@YAHHQAPAD@Z    0042fc80 f   mainfunction.obj
 0001:0002edc0       ??$_Erase_head@V?$allocator@U?$_Tree_node@U?$pair@$$CBV?$basic_string@DU?$char_traits@D@std@@V?$allocator@D@2@@std@@V?$shared_ptr@VRawImageData@@@2@@std@@PAX@std@@@std@@@?$_Tree_val@U?$_Tree_simple_types@U?$pair@$$CBV?$basic_string@DU?$char_traits@D@std@@V?$allocator@D@2@@std@@V?$shared_ptr@VRawImageData@@@2@@std@@@std@@@std@@QAEXAAV?$allocator@U?$_Tree_node@U?$pair@$$CBV?$basic_string@DU?$char_traits@D@std@@V?$allocator@D@2@@std@@V?$shared_ptr@VRawImageData@@@2@@std@@PAX@std@@@1@@Z 0042fdc0 f i mainfunction.obj
 0001:0002ee10       ??$_Erase_tree@V?$allocator@U?$_Tree_node@U?$pair@$$CBV?$basic_string@DU?$char_traits@D@std@@V?$allocator@D@2@@std@@V?$shared_ptr@VRawImageData@@@2@@std@@PAX@std@@@std@@@?$_Tree_val@U?$_Tree_simple_types@U?$pair@$$CBV?$basic_string@DU?$char_traits@D@std@@V?$allocator@D@2@@std@@V?$shared_ptr@VRawImageData@@@2@@std@@@std@@@std@@QAEXAAV?$allocator@U?$_Tree_node@U?$pair@$$CBV?$basic_string@DU?$char_traits@D@std@@V?$allocator@D@2@@std@@V?$shared_ptr@VRawImageData@@@2@@std@@PAX@std@@@1@PAU?$_Tree_node@U?$pair@$$CBV?$basic_string@DU?$char_traits@D@std@@V?$allocator@D@2@@std@@V?$shared_ptr@VRawImageData@@@2@@std@@PAX@1@@Z 0042fe10 f i mainfunction.obj
 0001:0002ee70       ??$_Freenode0@V?$allocator@U?$_Tree_node@U?$pair@$$CBV?$basic_string@DU?$char_traits@D@std@@V?$allocator@D@2@@std@@V?$shared_ptr@VRawImageData@@@2@@std@@PAX@std@@@std@@@?$_Tree_node@U?$pair@$$CBV?$basic_string@DU?$char_traits@D@std@@V?$allocator@D@2@@std@@V?$shared_ptr@VRawImageData@@@2@@std@@PAX@std@@SAXAAV?$allocator@U?$_Tree_node@U?$pair@$$CBV?$basic_string@DU?$char_traits@D@std@@V?$allocator@D@2@@std@@V?$shared_ptr@VRawImageData@@@2@@std@@PAX@std@@@1@PAU01@@Z 0042fe70 f i mainfunction.obj
 0001:0002ef00       ??$_Freenode@V?$allocator@U?$_Tree_node@U?$pair@$$CBV?$basic_string@DU?$char_traits@D@std@@V?$allocator@D@2@@std@@V?$shared_ptr@VRawImageData@@@2@@std@@PAX@std@@@std@@@?$_Tree_node@U?$pair@$$CBV?$basic_string@DU?$char_traits@D@std@@V?$allocator@D@2@@std@@V?$shared_ptr@VRawImageData@@@2@@std@@PAX@std@@SAXAAV?$allocator@U?$_Tree_node@U?$pair@$$CBV?$basic_string@DU?$char_traits@D@std@@V?$allocator@D@2@@std@@V?$shared_ptr@VRawImageData@@@2@@std@@PAX@std@@@1@PAU01@@Z 0042ff00 f i mainfunction.obj
 0001:0002ef80       ??$exchange@PAU?$_Tree_node@U?$pair@$$CBV?$basic_string@DU?$char_traits@D@std@@V?$allocator@D@2@@std@@V?$shared_ptr@VRawImageData@@@2@@std@@PAX@std@@AAPAU12@@std@@YAPAU?$_Tree_node@U?$pair@$$CBV?$basic_string@DU?$char_traits@D@std@@V?$allocator@D@2@@std@@V?$shared_ptr@VRawImageData@@@2@@std@@PAX@0@AAPAU10@0@Z 0042ff80 f i mainfunction.obj
 0001:0002efb0       ??0GameEngine@@QAE@XZ      0042ffb0 f i mainfunction.obj
 0001:0002f0d0       ??1?$_Tree@V?$_Tmap_traits@V?$basic_string@DU?$char_traits@D@std@@V?$allocator@D@2@@std@@V?$shared_ptr@VRawImageData@@@2@U?$less@V?$basic_string@DU?$char_traits@D@std@@V?$allocator@D@2@@std@@@2@V?$allocator@U?$pair@$$CBV?$basic_string@DU?$char_traits@D@std@@V?$allocator@D@2@@std@@V?$shared_ptr@VRawImageData@@@2@@std@@@2@$0A@@std@@@std@@QAE@XZ 004300d0 f i mainfunction.obj
 0001:0002f140       ??1?$map@V?$basic_string@DU?$char_traits@D@std@@V?$allocator@D@2@@std@@V?$shared_ptr@VRawImageData@@@2@U?$less@V?$basic_string@DU?$char_traits@D@std@@V?$allocator@D@2@@std@@@2@V?$allocator@U?$pair@$$CBV?$basic_string@DU?$char_traits@D@std@@V?$allocator@D@2@@std@@V?$shared_ptr@VRawImageData@@@2@@std@@@2@@std@@QAE@XZ 00430140 f i mainfunction.obj
 0001:0002f160       ??1GameEngine@@UAE@XZ      00430160 f i mainfunction.obj
 0001:0002f210       ??1ImageManager@@QAE@XZ    00430210 f i mainfunction.obj
 0001:0002f240       ??_EGameEngine@@UAEPAXI@Z  00430240 f i mainfunction.obj
 0001:0002f240       ??_GGameEngine@@UAEPAXI@Z  00430240 f i mainfunction.obj
 0001:0002f280       ??_GImageManager@@QAEPAXI@Z 00430280 f i mainfunction.obj
 0001:0002f2c0       ?deallocate@?$_Default_allocator_traits@V?$allocator@U?$_Tree_node@U?$pair@$$CBV?$basic_string@DU?$char_traits@D@std@@V?$allocator@D@2@@std@@V?$shared_ptr@VRawImageData@@@2@@std@@PAX@std@@@std@@@std@@SAXAAV?$allocator@U?$_Tree_node@U?$pair@$$CBV?$basic_string@DU?$char_traits@D@std@@V?$allocator@D@2@@std@@V?$shared_ptr@VRawImageData@@@2@@std@@PAX@std@@@2@QAU?$_Tree_node@U?$pair@$$CBV?$basic_string@DU?$char_traits@D@std@@V?$allocator@D@2@@std@@V?$shared_ptr@VRawImageData@@@2@@std@@PAX@2@I@Z 004302c0 f i mainfunction.obj
 0001:0002f2e0       ?destroyImageManager@ImageManager@@SAXXZ 004302e0 f i mainfunction.obj
 0001:0002f340       ?virtMainLoopDoBeforeUpdate@BaseEngine@@UAEXXZ 00430340 f i mainfunction.obj
 0001:0002f350       ??0BaseEngine@@QAE@XZ      00430350 f   BaseEngine.obj
 0001:0002f590       ??1BaseEngine@@UAE@XZ      00430590 f   BaseEngine.obj
 0001:0002f5f0       ?initialise@BaseEngine@@QAEHPBDHH0H@Z 004305f0 f   BaseEngine.obj
 0001:0002f720       ?deinitialise@BaseEngine@@QAEXXZ 00430720 f   BaseEngine.obj
 0001:0002f750       ?mainLoop@BaseEngine@@QAEHXZ 00430750 f   BaseEngine.obj
 0001:0002f880       ?handleEvent@BaseEngine@@QAE_NPATSDL_Event@@@Z 00430880 f   BaseEngine.obj
 0001:0002fed0       ?isKeyPressed@BaseEngine@@QBE_NH@Z 00430ed0 f   BaseEngine.obj
 0001:0002ff00       ?virtKeyUp@BaseEngine@@UAEXH@Z 00430f00 f   BaseEngine.obj
 0001:0002ff10       ?virtKeyDown@BaseEngine@@UAEXH@Z 00430f10 f   BaseEngine.obj
 0001:0002ff20       ?virtMouseMoved@BaseEngine@@UAEXHH@Z 00430f20 f   BaseEngine.obj
 0001:0002ff30       ?virtMouseDown@BaseEngine@@UAEXHHH@Z 00430f30 f   BaseEngine.obj
 0001:0002ff40       ?virtMouseUp@BaseEngine@@UAEXHHH@Z 00430f40 f   BaseEngine.obj
 0001:0002ff50       ?virtInitialise@BaseEngine@@UAEHXZ 00430f50 f   BaseEngine.obj
 0001:0002ffa0       ?virtCreateWindows@BaseEngine@@UAEXPBD@Z 00430fa0 f   BaseEngine.obj
 0001:00030030       ?virtCreateSurfaces@BaseEngine@@UAEXXZ 00431030 f   BaseEngine.obj
 0001:00030080       ?virtCleanUp@BaseEngine@@UAEXXZ 00431080 f   BaseEngine.obj
 0001:00030090       ?virtSetupBackgroundBuffer@BaseEngine@@UAEXXZ 00431090 f   BaseEngine.obj
 0001:000300b0       ?virtDrawStringsUnderneath@BaseEngine@@UAEXXZ 004310b0 f   BaseEngine.obj
 0001:000300c0       ?virtDrawStringsOnTop@BaseEngine@@UAEXXZ 004310c0 f   BaseEngine.obj
 0001:000300d0       ?virtCheckForUpdateTime@BaseEngine@@UAE_NXZ 004310d0 f   BaseEngine.obj
 0001:00030120       ?virtRenderScreen@BaseEngine@@UAEXXZ 00431120 f   BaseEngine.obj
 0001:000302c0       ?getColour@BaseEngine@@QBEIH@Z 004312c0 f   BaseEngine.obj
 0001:00030500       ?virtInitialiseObjects@BaseEngine@@UAEHXZ 00431500 f   BaseEngine.obj
 0001:00030530       ?drawAllObjects@BaseEngine@@UAEXXZ 00431530 f   BaseEngine.obj
 0001:000306f0       ?updateAllObjects@BaseEngine@@UAEXH@Z 004316f0 f   BaseEngine.obj
 0001:000308c0       _mydebug                   004318c0 f   BaseEngine.obj
 0001:00031540       ??0?$_Vector_iterator@V?$_Vector_val@U?$_Simple_types@PAVDisplayableObject@@@std@@@std@@@std@@QAE@ABV01@@Z 00432540 f i BaseEngine.obj
 0001:00031570       ??0FilterPoints@@QAE@XZ    00432570 f i BaseEngine.obj
 0001:00031590       ??D?$_Vector_iterator@V?$_Vector_val@U?$_Simple_types@PAVDisplayableObject@@@std@@@std@@@std@@QBEAAPAVDisplayableObject@@XZ 00432590 f i BaseEngine.obj
 0001:000315b0       ??E?$_Vector_iterator@V?$_Vector_val@U?$_Simple_types@PAVDisplayableObject@@@std@@@std@@@std@@QAE?AV01@H@Z 004325b0 f i BaseEngine.obj
 0001:00031600       ??_EBaseEngine@@UAEPAXI@Z  00432600 f i BaseEngine.obj
 0001:00031600       ??_GBaseEngine@@UAEPAXI@Z  00432600 f i BaseEngine.obj
 0001:00031640       ?getHasActed@DisplayableObject@@QBE_NXZ 00432640 f i BaseEngine.obj
 0001:00031660       ?isTimeToAct@BaseEngine@@QBE_NXZ 00432660 f i BaseEngine.obj
 0001:000316a0       ?mySDLUpdateTexture@DrawingSurface@@QAEXPAUSDL_Texture@@@Z 004326a0 f i BaseEngine.obj
 0001:000316e0       ?setHasActed@DisplayableObject@@QAEX_N@Z 004326e0 f i BaseEngine.obj
 0001:00031700       ?setTimeToAct@BaseEngine@@QAEXH@Z 00432700 f i BaseEngine.obj
 0001:00031730       ?symbolToKeycode@BaseEngine@@SAHH@Z 00432730 f i BaseEngine.obj
 0001:00031c20       _fprintf                   00432c20 f i BaseEngine.obj
 0001:00031c60       ??0DisplayableObject@@QAE@PAVBaseEngine@@HH_N@Z 00432c60 f   DisplayableObject.obj
 0001:00031d20       ??0DisplayableObject@@QAE@HHPAVBaseEngine@@HH_N@Z 00432d20 f   DisplayableObject.obj
 0001:00031de0       ??1DisplayableObject@@UAE@XZ 00432de0 f   DisplayableObject.obj
 0001:00031e00       ?virtDraw@DisplayableObject@@UAEXXZ 00432e00 f   DisplayableObject.obj
 0001:00031eb0       ?virtDoUpdate@DisplayableObject@@UAEXH@Z 00432eb0 f   DisplayableObject.obj
 0001:00031ec0       ?redrawDisplay@DisplayableObject@@QAEXXZ 00432ec0 f   DisplayableObject.obj
 0001:00031ee0       ?redrawRectangle@DisplayableObject@@QAEXXZ 00432ee0 f   DisplayableObject.obj
 0001:00031f20       ?virtIsObjectInRedrawArea@DisplayableObject@@QAE_NXZ 00432f20 f   DisplayableObject.obj
 0001:00031fc0       ?fixPosition@DisplayableObject@@QAEXXZ 00432fc0 f   DisplayableObject.obj
 0001:00032190       ??_EDisplayableObject@@UAEPAXI@Z 00433190 f i DisplayableObject.obj
 0001:00032190       ??_GDisplayableObject@@UAEPAXI@Z 00433190 f i DisplayableObject.obj
 0001:000321d0       ?convertVirtualPixelToClickedXPosition@BaseEngine@@QAEHH@Z 004331d0 f i DisplayableObject.obj
 0001:00032200       ?convertVirtualPixelToClickedYPosition@BaseEngine@@QAEHH@Z 00433200 f i DisplayableObject.obj
 0001:00032230       ?convertVirtualToRealXPosition@DrawingSurface@@QAEHH@Z 00433230 f i DisplayableObject.obj
 0001:00032270       ?convertVirtualToRealYPosition@DrawingSurface@@QAEHH@Z 00433270 f i DisplayableObject.obj
 0001:000322b0       ?redrawRectangle@BaseEngine@@QAEXHHHH@Z 004332b0 f i DisplayableObject.obj
 0001:00032420       ?setForegroundPixel@BaseEngine@@QAEXHHI@Z 00433420 f i DisplayableObject.obj
 0001:00032460       ??0FontManager@@QAE@XZ     00433460 f   FontManager.obj
 0001:000324d0       ??1FontManager@@QAE@XZ     004334d0 f   FontManager.obj
 0001:00032540       ?getFont@FontManager@@QAEPAVFont@@PBDH@Z 00433540 f   FontManager.obj
 0001:000326e0       ?loadFonts@FontManager@@QAEXXZ 004336e0 f   FontManager.obj
 0001:00032810       ??$growArrayOfObjects@PAVFont@@@@YAPAPAVFont@@PAPAV0@AAHH@Z 00433810 f i FontManager.obj
 0001:000328c0       ??0Font@@QAE@PBDH@Z        004338c0 f i FontManager.obj
 0001:00032940       ??1Font@@QAE@XZ            00433940 f i FontManager.obj
 0001:000329c0       ??_GFont@@QAEPAXI@Z        004339c0 f i FontManager.obj
 0001:00032a00       ?getName@Font@@QAEPBDXZ    00433a00 f i FontManager.obj
 0001:00032a20       ?getSize@Font@@QAEHXZ      00433a20 f i FontManager.obj
 0001:00032a40       ??0MouseObject@@QAE@PAVBaseEngine@@@Z 00433a40 f   MouseObject.obj
 0001:00032b50       ?virtDraw@MouseObject@@UAEXXZ 00433b50 f   MouseObject.obj
 0001:00032bf0       ?virtDoUpdate@MouseObject@@UAEXH@Z 00433bf0 f   MouseObject.obj
 0001:00032eb0       ??1MouseObject@@UAE@XZ     00433eb0 f i MouseObject.obj
 0001:00032ee0       ??_EMouseObject@@UAEPAXI@Z 00433ee0 f i MouseObject.obj
 0001:00032ee0       ??_GMouseObject@@UAEPAXI@Z 00433ee0 f i MouseObject.obj
 0001:00032f20       ?getEngine@MouseObject@@QBEPAVPsyjs31Engine@@XZ 00433f20 f i MouseObject.obj
 0001:00032f40       ?getMapXForScreenX@TileManager@@QBEHH@Z 00433f40 f i MouseObject.obj
 0001:00032f70       ?getMapYForScreenY@TileManager@@QBEHH@Z 00433f70 f i MouseObject.obj
 0001:00032fa0       ?getMouseXClickedUp@BaseEngine@@QBEHXZ 00433fa0 f i MouseObject.obj
 0001:00032fc0       ?getMouseYClickedUp@BaseEngine@@QBEHXZ 00433fc0 f i MouseObject.obj
 0001:00032fe0       ?getTileHeight@TileManager@@QBEHXZ 00433fe0 f i MouseObject.obj
 0001:00033000       ?getTileManager@Psyjs31Engine@@QAEPAVPsyjs31TileManager@@XZ 00434000 f i MouseObject.obj
 0001:00033020       ?getTileWidth@TileManager@@QBEHXZ 00434020 f i MouseObject.obj
 0001:00033040       ?isValidTilePosition@TileManager@@QBE_NHH@Z 00434040 f i MouseObject.obj
 0001:000330d0       ?setAndRedrawMapValueAt@TileManager@@QAEXHHHPAVBaseEngine@@PAVDrawingSurface@@@Z 004340d0 f i MouseObject.obj
 0001:00033170       ?virtSetupBackgroundBuffer@MyDemoA@@UAEXXZ 00434170 f   MyDemoA.obj
 0001:000332a0       ?virtMouseDown@MyDemoA@@UAEXHHH@Z 004342a0 f   MyDemoA.obj
 0001:000333b0       ?virtKeyDown@MyDemoA@@UAEXH@Z 004343b0 f   MyDemoA.obj
 0001:00033400       ?virtInitialiseObjects@MyDemoA@@UAEHXZ 00434400 f   MyDemoA.obj
 0001:00033590       ??0MyObjectB@@QAE@PAVBaseEngine@@@Z 00434590 f i MyDemoA.obj
 0001:00033600       ??1MyObjectB@@UAE@XZ       00434600 f i MyDemoA.obj
 0001:00033620       ??_EMyObjectB@@UAEPAXI@Z   00434620 f i MyDemoA.obj
 0001:00033620       ??_GMyObjectB@@UAEPAXI@Z   00434620 f i MyDemoA.obj
 0001:00033660       ?drawBackgroundOval@BaseEngine@@QAEXHHHHI@Z 00434660 f i MyDemoA.obj
 0001:000336a0       ?virtDraw@MyObjectB@@UAEXXZ 004346a0 f   MyObjectB.obj
 0001:000336f0       ?virtDoUpdate@MyObjectB@@UAEXH@Z 004346f0 f   MyObjectB.obj
 0001:000338b0       ?drawForegroundRectangle@BaseEngine@@QAEXHHHHI@Z 004348b0 f i MyObjectB.obj
 0001:000338f0       ?virtDrawTileAt@MyTileManager@@UBEXPAVBaseEngine@@PAVDrawingSurface@@HHHH@Z 004348f0 f   MyTileManager.obj
 0001:00033990       ??0PlayerObject@@QAE@PAVGameEngine@@@Z 00434990 f   PlayerObject.obj
 0001:00033c20       ?virtDraw@PlayerObject@@UAEXXZ 00434c20 f   PlayerObject.obj
 0001:00033cd0       ?virtDoUpdate@PlayerObject@@UAEXH@Z 00434cd0 f   PlayerObject.obj
 0001:00033d80       ?virtNotify@PlayerObject@@UAEJHHH@Z 00434d80 f   PlayerObject.obj
 0001:00033dc0       ?hitPlayer@PlayerObject@@QAEXH@Z 00434dc0 f   PlayerObject.obj
 0001:00033e50       ?killPlayer@PlayerObject@@QAEXXZ 00434e50 f   PlayerObject.obj
 0001:00033ea0       ?updateSprite@PlayerObject@@QAEXXZ 00434ea0 f   PlayerObject.obj
 0001:00034080       ?changeAnimation@PlayerObject@@QAEXW4AnimationState@1@@Z 00435080 f   PlayerObject.obj
 0001:00034170       ?setOnCooldown@PlayerObject@@QAEHH@Z 00435170 f   PlayerObject.obj
 0001:00034190       ?trackCooldowns@PlayerObject@@QAEXH@Z 00435190 f   PlayerObject.obj
 0001:000341f0       ?checkInput@PlayerObject@@QAEXXZ 004351f0 f   PlayerObject.obj
 0001:00034250       ?createFireball@PlayerObject@@QAEXHH@Z 00435250 f   PlayerObject.obj
 0001:00034300       ?basicAttack@PlayerObject@@QAEXHH@Z 00435300 f   PlayerObject.obj
 0001:000345b0       ??1PlayerObject@@UAE@XZ    004355b0 f i PlayerObject.obj
 0001:00034610       ??_EPlayerObject@@UAEPAXI@Z 00435610 f i PlayerObject.obj
 0001:00034610       ??_GPlayerObject@@UAEPAXI@Z 00435610 f i PlayerObject.obj
 0001:00034650       ?getCurrentMouseX@BaseEngine@@QBEHXZ 00435650 f i PlayerObject.obj
 0001:00034670       ?getCurrentMouseY@BaseEngine@@QBEHXZ 00435670 f i PlayerObject.obj
 0001:00034690       ?virtMouseDown@PlayerObject@@UAEXHHH@Z 00435690 f i PlayerObject.obj
 0001:000346d0       ?virtMouseUp@PlayerObject@@UAEXHHH@Z 004356d0 f i PlayerObject.obj
 0001:00034710       ?virtSetupBackgroundBuffer@Psyjs31Engine@@UAEXXZ 00435710 f   Psyjs31Engine.obj
 0001:00034890       ?virtInitialiseObjects@Psyjs31Engine@@UAEHXZ 00435890 f   Psyjs31Engine.obj
 0001:00034a20       ?drawBackgroundString@BaseEngine@@QAEXHHPBDIPAVFont@@@Z 00435a20 f i Psyjs31Engine.obj
 0001:00034a60       ?virtDrawTileAt@Psyjs31TileManager@@UBEXPAVBaseEngine@@PAVDrawingSurface@@HHHH@Z 00435a60 f   Psyjs31TileManager.obj
 0001:00034ac0       ??0RatWarrior@@QAE@PAVGameEngine@@@Z 00435ac0 f   RatWarrior.obj
 0001:00034b70       ?performIdle@RatWarrior@@UAEXXZ 00435b70 f   RatWarrior.obj
 0001:00034ba0       ?performMoving@RatWarrior@@UAEXXZ 00435ba0 f   RatWarrior.obj
 0001:00034be0       ?performAttack@RatWarrior@@UAEXXZ 00435be0 f   RatWarrior.obj
 0001:00034c40       ?performHurt@RatWarrior@@UAEXXZ 00435c40 f   RatWarrior.obj
 0001:00034c70       ?changeState@RatWarrior@@UAEXW4AnimationState@BaseEntity@@@Z 00435c70 f   RatWarrior.obj
 0001:00034e10       ??1RatWarrior@@UAE@XZ      00435e10 f i RatWarrior.obj
 0001:00034e30       ??_ERatWarrior@@UAEPAXI@Z  00435e30 f i RatWarrior.obj
 0001:00034e30       ??_GRatWarrior@@UAEPAXI@Z  00435e30 f i RatWarrior.obj
 0001:00034e70       ?mapCoordinates@CroppedImagePixelMapping@@UAE_NAAN0ABVSimpleImage@@@Z 00435e70 f i SimpleImage.obj
 0001:00034f10       ??0SimpleImage@@QAE@XZ     00435f10 f   SimpleImage.obj
 0001:00034f40       ??0SimpleImage@@QAE@V?$shared_ptr@VRawImageData@@@std@@@Z 00435f40 f   SimpleImage.obj
 0001:00034f80       ?exists@SimpleImage@@QBE_NXZ 00435f80 f   SimpleImage.obj
 0001:00034fa0       ?renderImage@SimpleImage@@QBEXPAVDrawingSurface@@HHHHHH@Z 00435fa0 f   SimpleImage.obj
 0001:000350b0       ?renderImageWithMask@SimpleImage@@QBEXPAVDrawingSurface@@HHHHHHH@Z 004360b0 f   SimpleImage.obj
 0001:000351f0       ?renderImageWithMaskAndTransparency@SimpleImage@@QBEXPAVDrawingSurface@@HHHHHHHH@Z 004361f0 f   SimpleImage.obj
 0001:000353c0       ?renderImageBlit@SimpleImage@@QAEXPAVBaseEngine@@PAVDrawingSurface@@HHHHHHHH@Z 004363c0 f   SimpleImage.obj
 0001:00035670       ?adjustXYWidthHeight@SimpleImage@@SA_NPAVDrawingSurface@@AAH11111@Z 00436670 f   SimpleImage.obj
 0001:00035870       ?renderImageApplyingMapping@SimpleImage@@QBEXPAVBaseEngine@@PAVDrawingSurface@@HHHHPAVImagePixelMapping@@@Z 00436870 f   SimpleImage.obj
 0001:00035e80       ??BDrawingSurface@@QAEPAUSDL_Surface@@XZ 00436e80 f i SimpleImage.obj
 0001:00035ea0       ?convertClickedToVirtualPixelXPosition@BaseEngine@@QAEHH@Z 00436ea0 f i SimpleImage.obj
 0001:00035ed0       ?convertClickedToVirtualPixelYPosition@BaseEngine@@QAEHH@Z 00436ed0 f i SimpleImage.obj
 0001:00035f00       ?getSurface@RawImageData@@QAEPAUSDL_Surface@@XZ 00436f00 f i SimpleImage.obj
 0001:00035f20       ?rawGetPixel@DrawingSurface@@QBEIHH@Z 00436f20 f i SimpleImage.obj
 0001:00035f90       ?virtSetupBackgroundBuffer@SimpleDemo@@UAEXXZ 00436f90 f   SimpleDemo.obj
 0001:000360d0       ?virtInitialiseObjects@SimpleDemo@@UAEHXZ 004370d0 f   SimpleDemo.obj
 0001:00036260       ?virtDrawStringsUnderneath@SimpleDemo@@UAEXXZ 00437260 f   SimpleDemo.obj
 0001:000362e0       ?virtDrawStringsOnTop@SimpleDemo@@UAEXXZ 004372e0 f   SimpleDemo.obj
 0001:000363a0       ?virtMouseDown@SimpleDemo@@UAEXHHH@Z 004373a0 f   SimpleDemo.obj
 0001:000363c0       ?virtKeyDown@SimpleDemo@@UAEXH@Z 004373c0 f   SimpleDemo.obj
 0001:00036540       ??0BouncingObject@@QAE@PAVBaseEngine@@HHNNNN@Z 00437540 f i SimpleDemo.obj
 0001:00036610       ??1BouncingObject@@UAE@XZ  00437610 f i SimpleDemo.obj
 0001:00036630       ??_EBouncingObject@@UAEPAXI@Z 00437630 f i SimpleDemo.obj
 0001:00036630       ??_GBouncingObject@@UAEPAXI@Z 00437630 f i SimpleDemo.obj
 0001:00036670       ?drawForegroundString@BaseEngine@@QAEXHHPBDIPAVFont@@@Z 00437670 f i SimpleDemo.obj
 0001:000366b0       ?isPaused@BaseEngine@@QAE_NXZ 004376b0 f i SimpleDemo.obj
 0001:000366f0       ?lockAndSetupBackground@BaseEngine@@QAEXXZ 004376f0 f i SimpleDemo.obj
 0001:00036730       ?pause@BaseEngine@@QAEXXZ  00437730 f i SimpleDemo.obj
 0001:00036760       ?unpause@BaseEngine@@QAEXXZ 00437760 f i SimpleDemo.obj
 0001:000367b0       ?virtDoUpdate@BouncingObject@@UAEXH@Z 004377b0 f i SimpleDemo.obj
 0001:00036bb0       ?virtDraw@BouncingObject@@UAEXXZ 00437bb0 f i SimpleDemo.obj
 0001:00036c50       ??0StarfieldDemo@@QAE@XZ   00437c50 f   StarfieldDemo.obj
 0001:00036c90       ??1StarfieldDemo@@UAE@XZ   00437c90 f   StarfieldDemo.obj
 0001:00036cc0       ?virtSetupBackgroundBuffer@StarfieldDemo@@UAEXXZ 00437cc0 f   StarfieldDemo.obj
 0001:00036e00       ?virtMainLoopDoBeforeUpdate@StarfieldDemo@@UAEXXZ 00437e00 f   StarfieldDemo.obj
 0001:00036e40       ?copyAllBackgroundBuffer@StarfieldDemo@@UAEXXZ 00437e40 f   StarfieldDemo.obj
 0001:00036f80       ??_EStarfieldDemo@@UAEPAXI@Z 00437f80 f i StarfieldDemo.obj
 0001:00036f80       ??_GStarfieldDemo@@UAEPAXI@Z 00437f80 f i StarfieldDemo.obj
 0001:00036fc0       ??0TextInputBox@@QAE@XZ    00437fc0 f   TextInputBox.obj
 0001:00037000       ?GetText@TextInputBox@@QAEPBDXZ 00438000 f   TextInputBox.obj
 0001:00037020       ?addKey@TextInputBox@@QAEXH@Z 00438020 f   TextInputBox.obj
 0001:00037060       ?backspace@TextInputBox@@QAEXXZ 00438060 f   TextInputBox.obj
 0001:000370d0       ?pop_back@?$basic_string@DU?$char_traits@D@std@@V?$allocator@D@2@@std@@QAEXXZ 004380d0 f i TextInputBox.obj
 0001:00037170       ?drawAllTiles@TileManager@@QBEXPAVBaseEngine@@PAVDrawingSurface@@@Z 00438170 f   TileManager.obj
 0001:00037220       ?drawSomeTiles@TileManager@@QBEXPAVBaseEngine@@PAVDrawingSurface@@HHHH@Z 00438220 f   TileManager.obj
 0001:000372d0       ?virtDrawTileAt@TileManager@@UBEXPAVBaseEngine@@PAVDrawingSurface@@HHHH@Z 004382d0 f   TileManager.obj
 0001:000373c0       ??0BouncingBall@@QAE@PAVBouncingBallMain@@HHHHPBDHH@Z 004383c0 f   BouncingBall.obj
 0001:00037490       ??1BouncingBall@@UAE@XZ    00438490 f   BouncingBall.obj
 0001:000374b0       ?virtDraw@BouncingBall@@UAEXXZ 004384b0 f   BouncingBall.obj
 0001:00037780       ?virtDoUpdate@BouncingBall@@UAEXH@Z 00438780 f   BouncingBall.obj
 0001:000377a0       ??0BouncingBall1@@QAE@PAVBouncingBallMain@@HHHHPBDHHPAVTileManager@@@Z 004387a0 f   BouncingBall.obj
 0001:00037840       ?setMovement@BouncingBall1@@QAEXHHHHHHH@Z 00438840 f   BouncingBall.obj
 0001:000378b0       ?virtDoUpdate@BouncingBall1@@UAEXH@Z 004388b0 f   BouncingBall.obj
 0001:00037a30       ??0BouncingBall2@@QAE@PAVBouncingBallMain@@HHHHPBDHH@Z 00438a30 f   BouncingBall.obj
 0001:00037ab0       ?setPosition@BouncingBall2@@QAEXNN@Z 00438ab0 f   BouncingBall.obj
 0001:00037ae0       ?setSpeed@BouncingBall2@@QAEXNN@Z 00438ae0 f   BouncingBall.obj
 0001:00037b10       ?virtDoUpdate@BouncingBall2@@UAEXH@Z 00438b10 f   BouncingBall.obj
 0001:00038100       ??0MovementPosition@@QAE@XZ 00439100 f i BouncingBall.obj
 0001:00038180       ??1BouncingBall1@@UAE@XZ   00439180 f i BouncingBall.obj
 0001:000381a0       ??1BouncingBall2@@UAE@XZ   004391a0 f i BouncingBall.obj
 0001:000381c0       ??_EBouncingBall1@@UAEPAXI@Z 004391c0 f i BouncingBall.obj
 0001:000381c0       ??_GBouncingBall1@@UAEPAXI@Z 004391c0 f i BouncingBall.obj
 0001:00038200       ??_EBouncingBall2@@UAEPAXI@Z 00439200 f i BouncingBall.obj
 0001:00038200       ??_GBouncingBall2@@UAEPAXI@Z 00439200 f i BouncingBall.obj
 0001:00038240       ??_EBouncingBall@@UAEPAXI@Z 00439240 f i BouncingBall.obj
 0001:00038240       ??_GBouncingBall@@UAEPAXI@Z 00439240 f i BouncingBall.obj
 0001:00038280       ?calculate@MovementPosition@@QAEXH@Z 00439280 f i BouncingBall.obj
 0001:00038370       ?getX@MovementPosition@@QBEHXZ 00439370 f i BouncingBall.obj
 0001:00038390       ?getY@MovementPosition@@QBEHXZ 00439390 f i BouncingBall.obj
 0001:000383b0       ?hasMovementFinished@MovementPosition@@QBE_NH@Z 004393b0 f i BouncingBall.obj
 0001:000383f0       ?reverse@MovementPosition@@QAEXXZ 004393f0 f i BouncingBall.obj
 0001:00038480       ?setup@MovementPosition@@QAEXHHHHHH@Z 00439480 f i BouncingBall.obj
 0001:000384f0       ?virtMouseDown@BouncingBall@@UAEXHHH@Z 004394f0 f i BouncingBall.obj
 0001:00038530       ?virtSetupBackgroundBuffer@BouncingBallMain@@UAEXXZ 00439530 f   BouncingBallMain.obj
 0001:00038d70       ?virtInitialiseObjects@BouncingBallMain@@UAEHXZ 00439d70 f   BouncingBallMain.obj
 0001:00039040       ?virtDrawStringsUnderneath@BouncingBallMain@@UAEXXZ 0043a040 f   BouncingBallMain.obj
 0001:00039080       ?virtMouseDown@BouncingBallMain@@UAEXHHH@Z 0043a080 f   BouncingBallMain.obj
 0001:000390c0       ?virtKeyDown@BouncingBallMain@@UAEXH@Z 0043a0c0 f   BouncingBallMain.obj
 0001:000393e0       ?drawBackgroundLine@BaseEngine@@QAEXHHHHI@Z 0043a3e0 f i BouncingBallMain.obj
 0001:00039450       ?drawBackgroundPolygon@BaseEngine@@QAEXNNNNNNNNI@Z 0043a450 f i BouncingBallMain.obj
 0001:00039510       ?drawBackgroundPolygon@BaseEngine@@QAEXNNNNNNNNNNI@Z 0043a510 f i BouncingBallMain.obj
 0001:000395e0       ?drawBackgroundPolygon@BaseEngine@@QAEXNNNNNNNNNNNNI@Z 0043a5e0 f i BouncingBallMain.obj
 0001:000396d0       ?drawBackgroundPolygon@BaseEngine@@QAEXNNNNNNNNNNNNNNI@Z 0043a6d0 f i BouncingBallMain.obj
 0001:000397d0       ?drawBackgroundPolygon@BaseEngine@@QAEXNNNNNNNNNNNNNNNNI@Z 0043a7d0 f i BouncingBallMain.obj
 0001:00039910       ?drawBackgroundTriangle@BaseEngine@@QAEXHHHHHHI@Z 0043a910 f i BouncingBallMain.obj
 0001:000399a0       ?drawBackgroundVerticalSidedRegion@BaseEngine@@QAEXNNNNNNI@Z 0043a9a0 f i BouncingBallMain.obj
 0001:00039a50       ??0TimerObject@@QAE@PAVGameEngine@@@Z 0043aa50 f   TimerObject.obj
 0001:00039ab0       ?virtDraw@TimerObject@@UAEXXZ 0043aab0 f   TimerObject.obj
 0001:00039b30       ?virtDoUpdate@TimerObject@@UAEXH@Z 0043ab30 f   TimerObject.obj
 0001:00039bb0       ??1TimerObject@@UAE@XZ     0043abb0 f i TimerObject.obj
 0001:00039bd0       ??_ETimerObject@@UAEPAXI@Z 0043abd0 f i TimerObject.obj
 0001:00039bd0       ??_GTimerObject@@UAEPAXI@Z 0043abd0 f i TimerObject.obj
 0001:00039c10       ??0Torch@@QAE@PAVGameEngine@@HH@Z 0043ac10 f   Torch.obj
 0001:00039d10       ?virtDraw@Torch@@UAEXXZ    0043ad10 f   Torch.obj
 0001:00039d70       ?virtDoUpdate@Torch@@UAEXH@Z 0043ad70 f   Torch.obj
 0001:00039dc0       ?virtNotify@Torch@@UAEJHHH@Z 0043adc0 f   Torch.obj
 0001:00039e80       ??1Torch@@UAE@XZ           0043ae80 f i Torch.obj
 0001:00039eb0       ??_ETorch@@UAEPAXI@Z       0043aeb0 f i Torch.obj
 0001:00039eb0       ??_GTorch@@UAEPAXI@Z       0043aeb0 f i Torch.obj
 0001:00039ef0       ?virtInitialise@ZoomingDemo@@UAEHXZ 0043aef0 f   ZoomingDemo.obj
 0001:00039f40       ?virtSetupBackgroundBuffer@ZoomingDemo@@UAEXXZ 0043af40 f   ZoomingDemo.obj
 0001:00039f60       ?virtInitialiseObjects@ZoomingDemo@@UAEHXZ 0043af60 f   ZoomingDemo.obj
 0001:0003a120       ?virtDrawStringsUnderneath@ZoomingDemo@@UAEXXZ 0043b120 f   ZoomingDemo.obj
 0001:0003a1e0       ?virtDrawStringsOnTop@ZoomingDemo@@UAEXXZ 0043b1e0 f   ZoomingDemo.obj
 0001:0003a270       ?virtMouseDown@ZoomingDemo@@UAEXHHH@Z 0043b270 f   ZoomingDemo.obj
 0001:0003a2c0       ?virtKeyDown@ZoomingDemo@@UAEXH@Z 0043b2c0 f   ZoomingDemo.obj
 0001:0003a3c0       ?virtMouseWheel@ZoomingDemo@@UAEXHHHH@Z 0043b3c0 f   ZoomingDemo.obj
 0001:0003a5d0       ??0SimpleFlashingDragableImageObject@@QAE@HHPAVBaseEngine@@V?$basic_string@DU?$char_traits@D@std@@V?$allocator@D@2@@std@@1_N2@Z 0043b5d0 f i ZoomingDemo.obj
 0001:0003a7e0       ??1SimpleFlashingDragableImageObject@@UAE@XZ 0043b7e0 f i ZoomingDemo.obj
 0001:0003a820       ??_ESimpleFlashingDragableImageObject@@UAEPAXI@Z 0043b820 f i ZoomingDemo.obj
 0001:0003a820       ??_GSimpleFlashingDragableImageObject@@UAEPAXI@Z 0043b820 f i ZoomingDemo.obj
 0001:0003a860       ?changeOffset@FilterPointsTranslation@@QAEXHH@Z 0043b860 f i ZoomingDemo.obj
 0001:0003a8a0       ?compress@FilterPointsScaling@@QAEXXZ 0043b8a0 f i ZoomingDemo.obj
 0001:0003a8d0       ?compressX@FilterPointsScaling@@QAEXXZ 0043b8d0 f i ZoomingDemo.obj
 0001:0003a920       ?compressY@FilterPointsScaling@@QAEXXZ 0043b920 f i ZoomingDemo.obj
 0001:0003a970       ?setOffset@FilterPointsTranslation@@QAEXHH@Z 0043b970 f i ZoomingDemo.obj
 0001:0003a9a0       ?stretch@FilterPointsScaling@@QAEXXZ 0043b9a0 f i ZoomingDemo.obj
 0001:0003a9d0       ?stretchX@FilterPointsScaling@@QAEXXZ 0043b9d0 f i ZoomingDemo.obj
 0001:0003aa20       ?stretchY@FilterPointsScaling@@QAEXXZ 0043ba20 f i ZoomingDemo.obj
 0001:0003aa70       ?virtDoUpdate@SimpleFlashingDragableImageObject@@UAEXH@Z 0043ba70 f i ZoomingDemo.obj
 0001:0003aad0       ?virtDraw@SimpleFlashingDragableImageObject@@UAEXXZ 0043bad0 f i ZoomingDemo.obj
 0001:0003abd0       ?virtMouseDown@SimpleFlashingDragableImageObject@@UAEXHHH@Z 0043bbd0 f i ZoomingDemo.obj
 0001:0003ac40       ?virtMouseMoved@SimpleFlashingDragableImageObject@@UAEXHH@Z 0043bc40 f i ZoomingDemo.obj
 0001:0003aca0       ?virtMouseUp@SimpleFlashingDragableImageObject@@UAEXHHH@Z 0043bca0 f i ZoomingDemo.obj
 0001:0003acc0       ??0MazeDemoMain@@QAE@XZ    0043bcc0 f   MazeDemoMain.obj
 0001:0003ad40       ??1MazeDemoMain@@UAE@XZ    0043bd40 f   MazeDemoMain.obj
 0001:0003ad80       ?virtSetupBackgroundBuffer@MazeDemoMain@@UAEXXZ 0043bd80 f   MazeDemoMain.obj
 0001:0003af80       ?virtInitialiseObjects@MazeDemoMain@@UAEHXZ 0043bf80 f   MazeDemoMain.obj
 0001:0003b180       ?virtDrawStringsUnderneath@MazeDemoMain@@UAEXXZ 0043c180 f   MazeDemoMain.obj
 0001:0003b210       ?virtMouseDown@MazeDemoMain@@UAEXHHH@Z 0043c210 f   MazeDemoMain.obj
 0001:0003b220       ?virtKeyDown@MazeDemoMain@@UAEXH@Z 0043c220 f   MazeDemoMain.obj
 0001:0003b480       ??0MazeDemoTileManager@@QAE@XZ 0043c480 f i MazeDemoMain.obj
 0001:0003b4b0       ??0TileManager@@QAE@HH@Z   0043c4b0 f i MazeDemoMain.obj
 0001:0003b530       ??1MazeDemoTileManager@@UAE@XZ 0043c530 f i MazeDemoMain.obj
 0001:0003b560       ??_EMazeDemoMain@@UAEPAXI@Z 0043c560 f i MazeDemoMain.obj
 0001:0003b560       ??_GMazeDemoMain@@UAEPAXI@Z 0043c560 f i MazeDemoMain.obj
 0001:0003b5a0       ??_EMazeDemoTileManager@@UAEPAXI@Z 0043c5a0 f i MazeDemoMain.obj
 0001:0003b5a0       ??_GMazeDemoTileManager@@UAEPAXI@Z 0043c5a0 f i MazeDemoMain.obj
 0001:0003b5e0       ??0MazeDemoObject@@QAE@PAVMazeDemoMain@@HH@Z 0043c5e0 f   MazeDemoObject.obj
 0001:0003b6c0       ??1MazeDemoObject@@UAE@XZ  0043c6c0 f   MazeDemoObject.obj
 0001:0003b6e0       ?virtDraw@MazeDemoObject@@UAEXXZ 0043c6e0 f   MazeDemoObject.obj
 0001:0003b790       ?virtDoUpdate@MazeDemoObject@@UAEXH@Z 0043c790 f   MazeDemoObject.obj
 0001:0003be40       ??A?$vector@PAVDisplayableObject@@V?$allocator@PAVDisplayableObject@@@std@@@std@@QBEABQAVDisplayableObject@@I@Z 0043ce40 f i MazeDemoObject.obj
 0001:0003bef0       ??_EMazeDemoObject@@UAEPAXI@Z 0043cef0 f i MazeDemoObject.obj
 0001:0003bef0       ??_GMazeDemoObject@@UAEPAXI@Z 0043cef0 f i MazeDemoObject.obj
 0001:0003bf30       ?GetTileManager@MazeDemoMain@@QAEAAVMazeDemoTileManager@@XZ 0043cf30 f i MazeDemoObject.obj
 0001:0003bf50       ?drawForegroundOval@BaseEngine@@QAEXHHHHI@Z 0043cf50 f i MazeDemoObject.obj
 0001:0003bf90       ?getDisplayableObject@DisplayableObjectContainer@@QBEPAVDisplayableObject@@H@Z 0043cf90 f i MazeDemoObject.obj
 0001:0003bfd0       ?getXDiffForDirection@MazeDemoObject@@QAEHH@Z 0043cfd0 f i MazeDemoObject.obj
 0001:0003c040       ?getYDiffForDirection@MazeDemoObject@@QAEHH@Z 0043d040 f i MazeDemoObject.obj
 0001:0003c0b0       ?virtDrawTileAt@MazeDemoTileManager@@UBEXPAVBaseEngine@@PAVDrawingSurface@@HHHH@Z 0043d0b0 f   MazeDemoTileManager.obj
 0001:0003c295       _SDL_CreateRGBSurface      0043d295 f   SDL2:SDL2.dll
 0001:0003c29b       _SDL_FreeSurface           0043d29b f   SDL2:SDL2.dll
 0001:0003c2a1       _SDL_LockSurface           0043d2a1 f   SDL2:SDL2.dll
 0001:0003c2a7       _SDL_UnlockSurface         0043d2a7 f   SDL2:SDL2.dll
 0001:0003c2ad       _SDL_FillRect              0043d2ad f   SDL2:SDL2.dll
 0001:0003c2b3       _SDL_UpperBlit             0043d2b3 f   SDL2:SDL2.dll
 0001:0003c2b9       _SDL_GetError              0043d2b9 f   SDL2:SDL2.dll
 0001:0003c2bf       _SDL_CreateWindow          0043d2bf f   SDL2:SDL2.dll
 0001:0003c2c5       _SDL_PollEvent             0043d2c5 f   SDL2:SDL2.dll
 0001:0003c2cb       _SDL_WaitEvent             0043d2cb f   SDL2:SDL2.dll
 0001:0003c2d1       _SDL_CreateRenderer        0043d2d1 f   SDL2:SDL2.dll
 0001:0003c2d7       _SDL_CreateTexture         0043d2d7 f   SDL2:SDL2.dll
 0001:0003c2dd       _SDL_UpdateTexture         0043d2dd f   SDL2:SDL2.dll
 0001:0003c2e3       _SDL_RenderCopy            0043d2e3 f   SDL2:SDL2.dll
 0001:0003c2e9       _SDL_RenderPresent         0043d2e9 f   SDL2:SDL2.dll
 0001:0003c2ef       _SDL_GetTicks              0043d2ef f   SDL2:SDL2.dll
 0001:0003c2f5       _SDL_Init                  0043d2f5 f   SDL2:SDL2.dll
 0001:0003c2fb       _SDL_Quit                  0043d2fb f   SDL2:SDL2.dll
 0001:0003c301       _SDL_SetClipRect           0043d301 f   SDL2:SDL2.dll
 0001:0003c307       _SDL_UpperBlitScaled       0043d307 f   SDL2:SDL2.dll
 0001:0003c30d       _IMG_Load                  0043d30d f   SDL2_image:SDL2_image.dll
 0001:0003c313       _TTF_RenderText_Solid      0043d313 f   SDL2_ttf:SDL2_ttf.dll
 0001:0003c319       _TTF_Init                  0043d319 f   SDL2_ttf:SDL2_ttf.dll
 0001:0003c31f       _TTF_Quit                  0043d31f f   SDL2_ttf:SDL2_ttf.dll
 0001:0003c325       _TTF_OpenFont              0043d325 f   SDL2_ttf:SDL2_ttf.dll
 0001:0003c32b       _TTF_CloseFont             0043d32b f   SDL2_ttf:SDL2_ttf.dll
 0001:0003c331       ??0_Lockit@std@@QAE@H@Z    0043d331 f   msvcprtd:MSVCP140D.dll
 0001:0003c337       ??1_Lockit@std@@QAE@XZ     0043d337 f   msvcprtd:MSVCP140D.dll
 0001:0003c33d       ?_Xbad_alloc@std@@YAXXZ    0043d33d f   msvcprtd:MSVCP140D.dll
 0001:0003c343       ?_Xinvalid_argument@std@@YAXPBD@Z 0043d343 f   msvcprtd:MSVCP140D.dll
 0001:0003c349       ?_Xlength_error@std@@YAXPBD@Z 0043d349 f   msvcprtd:MSVCP140D.dll
 0001:0003c34f       ?_Xout_of_range@std@@YAXPBD@Z 0043d34f f   msvcprtd:MSVCP140D.dll
 0001:0003c355       ?uncaught_exception@std@@YA_NXZ 0043d355 f   msvcprtd:MSVCP140D.dll
 0001:0003c360       ??0_Fac_node@std@@QAE@PAU01@PAV_Facet_base@1@@Z 0043d360 f i msvcprtd:locale0_implib.obj
 0001:0003c390       ??1_Fac_node@std@@QAE@XZ   0043d390 f i msvcprtd:locale0_implib.obj
 0001:0003c410       ??1_Fac_tidy_reg_t@std@@QAE@XZ 0043d410 f i msvcprtd:locale0_implib.obj
 0001:0003c470       ??2_Fac_node@std@@SAPAXI@Z 0043d470 f i msvcprtd:locale0_implib.obj
 0001:0003c4d0       ??3_Fac_node@std@@SAXPAX@Z 0043d4d0 f i msvcprtd:locale0_implib.obj
 0001:0003c4f0       ??_G_Fac_node@std@@QAEPAXI@Z 0043d4f0 f i msvcprtd:locale0_implib.obj
 0001:0003c550       ?_Facet_Register@std@@YAXPAV_Facet_base@1@@Z 0043d550 f   msvcprtd:locale0_implib.obj
 0001:0003c600       ?__empty_global_delete@@YAXPAXIW4align_val_t@std@@@Z 0043d600 f i msvcprtd:locale0_implib.obj
 0001:0003c610       ?__empty_global_delete@@YAXPAXW4align_val_t@std@@@Z 0043d610 f i msvcprtd:locale0_implib.obj
 0001:0003c615       ??Bid@locale@std@@QAEIXZ   0043d615 f   msvcprtd:MSVCP140D.dll
 0001:0003c61b       ?_Getgloballocale@locale@std@@CAPAV_Locimp@12@XZ 0043d61b f   msvcprtd:MSVCP140D.dll
 0001:0003c621       ?always_noconv@codecvt_base@std@@QBE_NXZ 0043d621 f   msvcprtd:MSVCP140D.dll
 0001:0003c627       ?in@?$codecvt@DDU_Mbstatet@@@std@@QBEHAAU_Mbstatet@@PBD1AAPBDPAD3AAPAD@Z 0043d627 f   msvcprtd:MSVCP140D.dll
 0001:0003c62d       ?out@?$codecvt@DDU_Mbstatet@@@std@@QBEHAAU_Mbstatet@@PBD1AAPBDPAD3AAPAD@Z 0043d62d f   msvcprtd:MSVCP140D.dll
 0001:0003c633       ?unshift@?$codecvt@DDU_Mbstatet@@@std@@QBEHAAU_Mbstatet@@PAD1AAPAD@Z 0043d633 f   msvcprtd:MSVCP140D.dll
 0001:0003c639       ?_Getcat@?$codecvt@DDU_Mbstatet@@@std@@SAIPAPBVfacet@locale@2@PBV42@@Z 0043d639 f   msvcprtd:MSVCP140D.dll
 0001:0003c63f       ??Bios_base@std@@QBE_NXZ   0043d63f f   msvcprtd:MSVCP140D.dll
 0001:0003c645       ?good@ios_base@std@@QBE_NXZ 0043d645 f   msvcprtd:MSVCP140D.dll
 0001:0003c64b       ?flags@ios_base@std@@QBEHXZ 0043d64b f   msvcprtd:MSVCP140D.dll
 0001:0003c651       ?width@ios_base@std@@QBE_JXZ 0043d651 f   msvcprtd:MSVCP140D.dll
 0001:0003c657       ?width@ios_base@std@@QAE_J_J@Z 0043d657 f   msvcprtd:MSVCP140D.dll
 0001:0003c65d       ??0?$basic_streambuf@DU?$char_traits@D@std@@@std@@IAE@XZ 0043d65d f   msvcprtd:MSVCP140D.dll
 0001:0003c663       ??1?$basic_streambuf@DU?$char_traits@D@std@@@std@@UAE@XZ 0043d663 f   msvcprtd:MSVCP140D.dll
 0001:0003c669       ?getloc@?$basic_streambuf@DU?$char_traits@D@std@@@std@@QBE?AVlocale@2@XZ 0043d669 f   msvcprtd:MSVCP140D.dll
 0001:0003c66f       ?sbumpc@?$basic_streambuf@DU?$char_traits@D@std@@@std@@QAEHXZ 0043d66f f   msvcprtd:MSVCP140D.dll
 0001:0003c675       ?sgetc@?$basic_streambuf@DU?$char_traits@D@std@@@std@@QAEHXZ 0043d675 f   msvcprtd:MSVCP140D.dll
 0001:0003c67b       ?snextc@?$basic_streambuf@DU?$char_traits@D@std@@@std@@QAEHXZ 0043d67b f   msvcprtd:MSVCP140D.dll
 0001:0003c681       ?sputc@?$basic_streambuf@DU?$char_traits@D@std@@@std@@QAEHD@Z 0043d681 f   msvcprtd:MSVCP140D.dll
 0001:0003c687       ?sputn@?$basic_streambuf@DU?$char_traits@D@std@@@std@@QAE_JPBD_J@Z 0043d687 f   msvcprtd:MSVCP140D.dll
 0001:0003c68d       ?eback@?$basic_streambuf@DU?$char_traits@D@std@@@std@@IBEPADXZ 0043d68d f   msvcprtd:MSVCP140D.dll
 0001:0003c693       ?gptr@?$basic_streambuf@DU?$char_traits@D@std@@@std@@IBEPADXZ 0043d693 f   msvcprtd:MSVCP140D.dll
 0001:0003c699       ?pptr@?$basic_streambuf@DU?$char_traits@D@std@@@std@@IBEPADXZ 0043d699 f   msvcprtd:MSVCP140D.dll
 0001:0003c69f       ?egptr@?$basic_streambuf@DU?$char_traits@D@std@@@std@@IBEPADXZ 0043d69f f   msvcprtd:MSVCP140D.dll
 0001:0003c6a5       ?gbump@?$basic_streambuf@DU?$char_traits@D@std@@@std@@IAEXH@Z 0043d6a5 f   msvcprtd:MSVCP140D.dll
 0001:0003c6ab       ?setg@?$basic_streambuf@DU?$char_traits@D@std@@@std@@IAEXPAD00@Z 0043d6ab f   msvcprtd:MSVCP140D.dll
 0001:0003c6b1       ?epptr@?$basic_streambuf@DU?$char_traits@D@std@@@std@@IBEPADXZ 0043d6b1 f   msvcprtd:MSVCP140D.dll
 0001:0003c6b7       ?_Gndec@?$basic_streambuf@DU?$char_traits@D@std@@@std@@IAEPADXZ 0043d6b7 f   msvcprtd:MSVCP140D.dll
 0001:0003c6bd       ?_Gninc@?$basic_streambuf@DU?$char_traits@D@std@@@std@@IAEPADXZ 0043d6bd f   msvcprtd:MSVCP140D.dll
 0001:0003c6c3       ?_Gnavail@?$basic_streambuf@DU?$char_traits@D@std@@@std@@IBE_JXZ 0043d6c3 f   msvcprtd:MSVCP140D.dll
 0001:0003c6c9       ?pbump@?$basic_streambuf@DU?$char_traits@D@std@@@std@@IAEXH@Z 0043d6c9 f   msvcprtd:MSVCP140D.dll
 0001:0003c6cf       ?setp@?$basic_streambuf@DU?$char_traits@D@std@@@std@@IAEXPAD0@Z 0043d6cf f   msvcprtd:MSVCP140D.dll
 0001:0003c6d5       ?setp@?$basic_streambuf@DU?$char_traits@D@std@@@std@@IAEXPAD00@Z 0043d6d5 f   msvcprtd:MSVCP140D.dll
 0001:0003c6db       ?_Pninc@?$basic_streambuf@DU?$char_traits@D@std@@@std@@IAEPADXZ 0043d6db f   msvcprtd:MSVCP140D.dll
 0001:0003c6e1       ?_Pnavail@?$basic_streambuf@DU?$char_traits@D@std@@@std@@IBE_JXZ 0043d6e1 f   msvcprtd:MSVCP140D.dll
 0001:0003c6e7       ?_Init@?$basic_streambuf@DU?$char_traits@D@std@@@std@@IAEXXZ 0043d6e7 f   msvcprtd:MSVCP140D.dll
 0001:0003c6ed       ?_Init@?$basic_streambuf@DU?$char_traits@D@std@@@std@@IAEXPAPAD0PAH001@Z 0043d6ed f   msvcprtd:MSVCP140D.dll
 0001:0003c6f3       ?xsgetn@?$basic_streambuf@DU?$char_traits@D@std@@@std@@MAE_JPAD_J@Z 0043d6f3 f   msvcprtd:MSVCP140D.dll
 0001:0003c6f9       ?xsputn@?$basic_streambuf@DU?$char_traits@D@std@@@std@@MAE_JPBD_J@Z 0043d6f9 f   msvcprtd:MSVCP140D.dll
 0001:0003c6ff       ??1?$basic_ios@DU?$char_traits@D@std@@@std@@UAE@XZ 0043d6ff f   msvcprtd:MSVCP140D.dll
 0001:0003c705       ?setstate@?$basic_ios@DU?$char_traits@D@std@@@std@@QAEXH_N@Z 0043d705 f   msvcprtd:MSVCP140D.dll
 0001:0003c70b       ?tie@?$basic_ios@DU?$char_traits@D@std@@@std@@QBEPAV?$basic_ostream@DU?$char_traits@D@std@@@2@XZ 0043d70b f   msvcprtd:MSVCP140D.dll
 0001:0003c711       ?rdbuf@?$basic_ios@DU?$char_traits@D@std@@@std@@QBEPAV?$basic_streambuf@DU?$char_traits@D@std@@@2@XZ 0043d711 f   msvcprtd:MSVCP140D.dll
 0001:0003c717       ?fill@?$basic_ios@DU?$char_traits@D@std@@@std@@QBEDXZ 0043d717 f   msvcprtd:MSVCP140D.dll
 0001:0003c71d       ?widen@?$basic_ios@DU?$char_traits@D@std@@@std@@QBEDD@Z 0043d71d f   msvcprtd:MSVCP140D.dll
 0001:0003c723       ??0?$basic_ios@DU?$char_traits@D@std@@@std@@IAE@XZ 0043d723 f   msvcprtd:MSVCP140D.dll
 0001:0003c729       ?_Osfx@?$basic_ostream@DU?$char_traits@D@std@@@std@@QAEXXZ 0043d729 f   msvcprtd:MSVCP140D.dll
 0001:0003c72f       ??6?$basic_ostream@DU?$char_traits@D@std@@@std@@QAEAAV01@P6AAAV01@AAV01@@Z@Z 0043d72f f   msvcprtd:MSVCP140D.dll
 0001:0003c735       ??6?$basic_ostream@DU?$char_traits@D@std@@@std@@QAEAAV01@_N@Z 0043d735 f   msvcprtd:MSVCP140D.dll
 0001:0003c73b       ??6?$basic_ostream@DU?$char_traits@D@std@@@std@@QAEAAV01@H@Z 0043d73b f   msvcprtd:MSVCP140D.dll
 0001:0003c741       ?put@?$basic_ostream@DU?$char_traits@D@std@@@std@@QAEAAV12@D@Z 0043d741 f   msvcprtd:MSVCP140D.dll
 0001:0003c747       ?flush@?$basic_ostream@DU?$char_traits@D@std@@@std@@QAEAAV12@XZ 0043d747 f   msvcprtd:MSVCP140D.dll
 0001:0003c74d       ??0?$basic_istream@DU?$char_traits@D@std@@@std@@QAE@PAV?$basic_streambuf@DU?$char_traits@D@std@@@1@_N@Z 0043d74d f   msvcprtd:MSVCP140D.dll
 0001:0003c753       ??1?$basic_istream@DU?$char_traits@D@std@@@std@@UAE@XZ 0043d753 f   msvcprtd:MSVCP140D.dll
 0001:0003c759       ?_Ipfx@?$basic_istream@DU?$char_traits@D@std@@@std@@QAE_N_N@Z 0043d759 f   msvcprtd:MSVCP140D.dll
 0001:0003c75f       ??0?$basic_iostream@DU?$char_traits@D@std@@@std@@QAE@PAV?$basic_streambuf@DU?$char_traits@D@std@@@1@@Z 0043d75f f   msvcprtd:MSVCP140D.dll
 0001:0003c765       ??1?$basic_iostream@DU?$char_traits@D@std@@@std@@UAE@XZ 0043d765 f   msvcprtd:MSVCP140D.dll
 0001:0003c76b       ?_Fiopen@std@@YAPAU_iobuf@@PBDHH@Z 0043d76b f   msvcprtd:MSVCP140D.dll
 0001:0003c771       ?imbue@?$basic_streambuf@DU?$char_traits@D@std@@@std@@MAEXABVlocale@2@@Z 0043d771 f   msvcprtd:MSVCP140D.dll
 0001:0003c777       ?sync@?$basic_streambuf@DU?$char_traits@D@std@@@std@@MAEHXZ 0043d777 f   msvcprtd:MSVCP140D.dll
 0001:0003c77d       ?setbuf@?$basic_streambuf@DU?$char_traits@D@std@@@std@@MAEPAV12@PAD_J@Z 0043d77d f   msvcprtd:MSVCP140D.dll
 0001:0003c783       ?uflow@?$basic_streambuf@DU?$char_traits@D@std@@@std@@MAEHXZ 0043d783 f   msvcprtd:MSVCP140D.dll
 0001:0003c789       ?showmanyc@?$basic_streambuf@DU?$char_traits@D@std@@@std@@MAE_JXZ 0043d789 f   msvcprtd:MSVCP140D.dll
 0001:0003c78f       ?_Unlock@?$basic_streambuf@DU?$char_traits@D@std@@@std@@UAEXXZ 0043d78f f   msvcprtd:MSVCP140D.dll
 0001:0003c795       ?_Lock@?$basic_streambuf@DU?$char_traits@D@std@@@std@@UAEXXZ 0043d795 f   msvcprtd:MSVCP140D.dll
 0001:000567b0       ___std_bitset_to_string_1@20 004577b0 f   msvcprtd:vector_algorithms.obj
 0001:00056cb0       ___std_bitset_to_string_2@20 00457cb0 f   msvcprtd:vector_algorithms.obj
 0001:00057160       ___std_count_trivial_1@12  00458160 f   msvcprtd:vector_algorithms.obj
 0001:00057180       ___std_count_trivial_2@12  00458180 f   msvcprtd:vector_algorithms.obj
 0001:000571a0       ___std_count_trivial_4@12  004581a0 f   msvcprtd:vector_algorithms.obj
 0001:000571c0       ___std_count_trivial_8@16  004581c0 f   msvcprtd:vector_algorithms.obj
 0001:000571f0       ___std_find_first_of_trivial_1@16 004581f0 f   msvcprtd:vector_algorithms.obj
 0001:00057220       ___std_find_first_of_trivial_2@16 00458220 f   msvcprtd:vector_algorithms.obj
 0001:00057250       ___std_find_first_of_trivial_4@16 00458250 f   msvcprtd:vector_algorithms.obj
 0001:00057280       ___std_find_first_of_trivial_8@16 00458280 f   msvcprtd:vector_algorithms.obj
 0001:000572b0       ___std_find_last_trivial_1@12 004582b0 f   msvcprtd:vector_algorithms.obj
 0001:000572d0       ___std_find_last_trivial_2@12 004582d0 f   msvcprtd:vector_algorithms.obj
 0001:000572f0       ___std_find_last_trivial_4@12 004582f0 f   msvcprtd:vector_algorithms.obj
 0001:00057310       ___std_find_last_trivial_8@16 00458310 f   msvcprtd:vector_algorithms.obj
 0001:00057340       ___std_find_trivial_1@12   00458340 f   msvcprtd:vector_algorithms.obj
 0001:00057360       ___std_find_trivial_2@12   00458360 f   msvcprtd:vector_algorithms.obj
 0001:00057380       ___std_find_trivial_4@12   00458380 f   msvcprtd:vector_algorithms.obj
 0001:000573a0       ___std_find_trivial_8@16   004583a0 f   msvcprtd:vector_algorithms.obj
 0001:000573d0       ___std_find_trivial_unsized_1@8 004583d0 f   msvcprtd:vector_algorithms.obj
 0001:000573f0       ___std_find_trivial_unsized_2@8 004583f0 f   msvcprtd:vector_algorithms.obj
 0001:00057410       ___std_find_trivial_unsized_4@8 00458410 f   msvcprtd:vector_algorithms.obj
 0001:00057430       ___std_find_trivial_unsized_8@12 00458430 f   msvcprtd:vector_algorithms.obj
 0001:00057460       ___std_max_1i@8            00458460 f   msvcprtd:vector_algorithms.obj
 0001:00057480       ___std_max_1u@8            00458480 f   msvcprtd:vector_algorithms.obj
 0001:000574a0       ___std_max_2i@8            004584a0 f   msvcprtd:vector_algorithms.obj
 0001:000574c0       ___std_max_2u@8            004584c0 f   msvcprtd:vector_algorithms.obj
 0001:000574e0       ___std_max_4i@8            004584e0 f   msvcprtd:vector_algorithms.obj
 0001:00057500       ___std_max_4u@8            00458500 f   msvcprtd:vector_algorithms.obj
 0001:00057520       ___std_max_8i@8            00458520 f   msvcprtd:vector_algorithms.obj
 0001:00057540       ___std_max_8u@8            00458540 f   msvcprtd:vector_algorithms.obj
 0001:00057560       ___std_max_d@8             00458560 f   msvcprtd:vector_algorithms.obj
 0001:00057580       ___std_max_element_1@12    00458580 f   msvcprtd:vector_algorithms.obj
 0001:000575a0       ___std_max_element_2@12    004585a0 f   msvcprtd:vector_algorithms.obj
 0001:000575c0       ___std_max_element_4@12    004585c0 f   msvcprtd:vector_algorithms.obj
 0001:000575e0       ___std_max_element_8@12    004585e0 f   msvcprtd:vector_algorithms.obj
 0001:00057600       ___std_max_element_d@12    00458600 f   msvcprtd:vector_algorithms.obj
 0001:00057620       ___std_max_element_f@12    00458620 f   msvcprtd:vector_algorithms.obj
 0001:00057640       ___std_max_f@8             00458640 f   msvcprtd:vector_algorithms.obj
 0001:00057660       ___std_min_1i@8            00458660 f   msvcprtd:vector_algorithms.obj
 0001:00057680       ___std_min_1u@8            00458680 f   msvcprtd:vector_algorithms.obj
 0001:000576a0       ___std_min_2i@8            004586a0 f   msvcprtd:vector_algorithms.obj
 0001:000576c0       ___std_min_2u@8            004586c0 f   msvcprtd:vector_algorithms.obj
 0001:000576e0       ___std_min_4i@8            004586e0 f   msvcprtd:vector_algorithms.obj
 0001:00057700       ___std_min_4u@8            00458700 f   msvcprtd:vector_algorithms.obj
 0001:00057720       ___std_min_8i@8            00458720 f   msvcprtd:vector_algorithms.obj
 0001:00057740       ___std_min_8u@8            00458740 f   msvcprtd:vector_algorithms.obj
 0001:00057760       ___std_min_d@8             00458760 f   msvcprtd:vector_algorithms.obj
 0001:00057780       ___std_min_element_1@12    00458780 f   msvcprtd:vector_algorithms.obj
 0001:000577a0       ___std_min_element_2@12    004587a0 f   msvcprtd:vector_algorithms.obj
 0001:000577c0       ___std_min_element_4@12    004587c0 f   msvcprtd:vector_algorithms.obj
 0001:000577e0       ___std_min_element_8@12    004587e0 f   msvcprtd:vector_algorithms.obj
 0001:00057800       ___std_min_element_d@12    00458800 f   msvcprtd:vector_algorithms.obj
 0001:00057820       ___std_min_element_f@12    00458820 f   msvcprtd:vector_algorithms.obj
 0001:00057840       ___std_min_f@8             00458840 f   msvcprtd:vector_algorithms.obj
 0001:00057860       ___std_minmax_1i@8         00458860 f   msvcprtd:vector_algorithms.obj
 0001:00057890       ___std_minmax_1u@8         00458890 f   msvcprtd:vector_algorithms.obj
 0001:000578c0       ___std_minmax_2i@8         004588c0 f   msvcprtd:vector_algorithms.obj
 0001:000578f0       ___std_minmax_2u@8         004588f0 f   msvcprtd:vector_algorithms.obj
 0001:00057920       ___std_minmax_4i@8         00458920 f   msvcprtd:vector_algorithms.obj
 0001:00057950       ___std_minmax_4u@8         00458950 f   msvcprtd:vector_algorithms.obj
 0001:00057980       ___std_minmax_8i@8         00458980 f   msvcprtd:vector_algorithms.obj
 0001:000579d0       ___std_minmax_8u@8         004589d0 f   msvcprtd:vector_algorithms.obj
 0001:00057a20       ___std_minmax_d@8          00458a20 f   msvcprtd:vector_algorithms.obj
 0001:00057a70       ___std_minmax_element_1@12 00458a70 f   msvcprtd:vector_algorithms.obj
 0001:00057ab0       ___std_minmax_element_2@12 00458ab0 f   msvcprtd:vector_algorithms.obj
 0001:00057af0       ___std_minmax_element_4@12 00458af0 f   msvcprtd:vector_algorithms.obj
 0001:00057b30       ___std_minmax_element_8@12 00458b30 f   msvcprtd:vector_algorithms.obj
 0001:00057b70       ___std_minmax_element_d@12 00458b70 f   msvcprtd:vector_algorithms.obj
 0001:00057bb0       ___std_minmax_element_f@12 00458bb0 f   msvcprtd:vector_algorithms.obj
 0001:00057bf0       ___std_minmax_f@8          00458bf0 f   msvcprtd:vector_algorithms.obj
 0001:00057c20       ___std_mismatch_1@12       00458c20 f   msvcprtd:vector_algorithms.obj
 0001:00057c40       ___std_mismatch_2@12       00458c40 f   msvcprtd:vector_algorithms.obj
 0001:00057c60       ___std_mismatch_4@12       00458c60 f   msvcprtd:vector_algorithms.obj
 0001:00057c80       ___std_mismatch_8@12       00458c80 f   msvcprtd:vector_algorithms.obj
 0001:00057ca0       ___std_replace_4@16        00458ca0 f   msvcprtd:vector_algorithms.obj
 0001:00057f10       ___std_replace_8@24        00458f10 f   msvcprtd:vector_algorithms.obj
 0001:000581a0       ___std_reverse_copy_trivially_copyable_1 004591a0 f   msvcprtd:vector_algorithms.obj
 0001:00058430       ___std_reverse_copy_trivially_copyable_2 00459430 f   msvcprtd:vector_algorithms.obj
 0001:000586c0       ___std_reverse_copy_trivially_copyable_4 004596c0 f   msvcprtd:vector_algorithms.obj
 0001:000588f0       ___std_reverse_copy_trivially_copyable_8 004598f0 f   msvcprtd:vector_algorithms.obj
 0001:00058af0       ___std_reverse_trivially_swappable_1 00459af0 f   msvcprtd:vector_algorithms.obj
 0001:00058e70       ___std_reverse_trivially_swappable_2 00459e70 f   msvcprtd:vector_algorithms.obj
 0001:000591f0       ___std_reverse_trivially_swappable_4 0045a1f0 f   msvcprtd:vector_algorithms.obj
 0001:000594e0       ___std_reverse_trivially_swappable_8 0045a4e0 f   msvcprtd:vector_algorithms.obj
 0001:000597a0       ___std_swap_ranges_trivially_swappable 0045a7a0 f   msvcprtd:vector_algorithms.obj
 0001:000597d0       ___std_swap_ranges_trivially_swappable_noalias 0045a7d0 f   msvcprtd:vector_algorithms.obj
 0001:00059aed       __Mbrtowc                  0045aaed f   msvcprtd:MSVCP140D.dll
 0001:00059af3       ?_Getcvt@_Locinfo@std@@QBE?AU_Cvtvec@@XZ 0045aaf3 f   msvcprtd:MSVCP140D.dll
 0001:00059af9       ?_Getdays@_Locinfo@std@@QBEPBDXZ 0045aaf9 f   msvcprtd:MSVCP140D.dll
 0001:00059aff       ?_Getmonths@_Locinfo@std@@QBEPBDXZ 0045aaff f   msvcprtd:MSVCP140D.dll
 0001:00059b05       ?_W_Getdays@_Locinfo@std@@QBEPBGXZ 0045ab05 f   msvcprtd:MSVCP140D.dll
 0001:00059b0b       ?_W_Getmonths@_Locinfo@std@@QBEPBGXZ 0045ab0b f   msvcprtd:MSVCP140D.dll
 0001:00059b11       ?pbase@?$basic_streambuf@DU?$char_traits@D@std@@@std@@IBEPADXZ 0045ab11 f   msvcprtd:MSVCP140D.dll
 0001:00059b17       ?fill@?$basic_ios@DU?$char_traits@D@std@@@std@@QAEDD@Z 0045ab17 f   msvcprtd:MSVCP140D.dll
 0001:00059b1d       ??6?$basic_ostream@DU?$char_traits@D@std@@@std@@QAEAAV01@_J@Z 0045ab1d f   msvcprtd:MSVCP140D.dll
 0001:00059b23       ?setw@std@@YA?AU?$_Smanip@_J@1@_J@Z 0045ab23 f   msvcprtd:MSVCP140D.dll
 0001:00059b29       ??0?$basic_ostream@DU?$char_traits@D@std@@@std@@QAE@PAV?$basic_streambuf@DU?$char_traits@D@std@@@1@_N@Z 0045ab29 f   msvcprtd:MSVCP140D.dll
 0001:00059b2f       ??1?$basic_ostream@DU?$char_traits@D@std@@@std@@UAE@XZ 0045ab2f f   msvcprtd:MSVCP140D.dll
 0001:00059f30       ?configure_argv@__scrt_narrow_argv_policy@@SAHXZ 0045af30 f i MSVCRTD:exe_main.obj
 0001:00059f50       ?initialize_environment@__scrt_narrow_environment_policy@@SAHXZ 0045af50 f i MSVCRTD:exe_main.obj
 0001:00059fb0       ?set_app_type@__scrt_main_policy@@SAXXZ 0045afb0 f i MSVCRTD:exe_main.obj
 0001:00059fd0       ?set_commode@__scrt_file_policy@@SAXXZ 0045afd0 f i MSVCRTD:exe_main.obj
 0001:00059ff0       ?set_fmode@__scrt_file_policy@@SAXXZ 0045aff0 f i MSVCRTD:exe_main.obj
 0001:0005a010       _mainCRTStartup            0045b010 f   MSVCRTD:exe_main.obj
 0001:0005a020       ??2@YAPAXI@Z               0045b020 f   MSVCRTD:new_scalar.obj
 0001:0005a080       ??3@YAXPAXI@Z              0045b080 f   MSVCRTD:delete_scalar_size.obj
 0001:0005a0a0       ??_U@YAPAXI@Z              0045b0a0 f   MSVCRTD:new_array.obj
 0001:0005a0c0       ??_V@YAXPAX@Z              0045b0c0 f   MSVCRTD:delete_array.obj
 0001:0005a0e0       @__security_check_cookie@4 0045b0e0 f   MSVCRTD:secchk.obj
 0001:0005a100       ??1type_info@@UAE@XZ       0045b100 f   MSVCRTD:std_type_info_static.obj
 0001:0005a120       ??_Etype_info@@UAEPAXI@Z   0045b120 f i MSVCRTD:std_type_info_static.obj
 0001:0005a120       ??_Gtype_info@@UAEPAXI@Z   0045b120 f i MSVCRTD:std_type_info_static.obj
 0001:0005a160       __alldiv                   0045b160 f   MSVCRTD:lldiv.obj
 0001:0005a240       __allrem                   0045b240 f   MSVCRTD:llrem.obj
 0001:0005a460       _NtCurrentTeb              0045b460 f i MSVCRTD:utility.obj
 0001:0005a470       ___scrt_acquire_startup_lock 0045b470 f   MSVCRTD:utility.obj
 0001:0005a4d0       ___scrt_dllmain_after_initialize_c 0045b4d0 f   MSVCRTD:utility.obj
 0001:0005a510       ___scrt_dllmain_before_initialize_c 0045b510 f   MSVCRTD:utility.obj
 0001:0005a540       ___scrt_dllmain_crt_thread_attach 0045b540 f   MSVCRTD:utility.obj
 0001:0005a580       ___scrt_dllmain_crt_thread_detach 0045b580 f   MSVCRTD:utility.obj
 0001:0005a5a0       ___scrt_dllmain_exception_filter 0045b5a0 f   MSVCRTD:utility.obj
 0001:0005a600       ___scrt_dllmain_uninitialize_c 0045b600 f   MSVCRTD:utility.obj
 0001:0005a640       ___scrt_dllmain_uninitialize_critical 0045b640 f   MSVCRTD:utility.obj
 0001:0005a660       ___scrt_initialize_crt     0045b660 f   MSVCRTD:utility.obj
 0001:0005a6c0       ___scrt_initialize_onexit_tables 0045b6c0 f   MSVCRTD:utility.obj
 0001:0005a7d0       ___scrt_is_nonwritable_in_current_image 0045b7d0 f   MSVCRTD:utility.obj
 0001:0005a950       ___scrt_release_startup_lock 0045b950 f   MSVCRTD:utility.obj
 0001:0005a980       ___scrt_uninitialize_crt   0045b980 f   MSVCRTD:utility.obj
 0001:0005a9d0       __onexit                   0045b9d0 f   MSVCRTD:utility.obj
 0001:0005aa50       _at_quick_exit             0045ba50 f   MSVCRTD:utility.obj
 0001:0005aaa0       _atexit                    0045baa0 f   MSVCRTD:utility.obj
 0001:0005aae0       @_guard_check_icall_nop@4  0045bae0 f i MSVCRTD:guard_support.obj
 0001:0005aaf0       _ReadNoFence               0045baf0 f i MSVCRTD:guard_support.obj
 0001:0005ab10       _ReadPointerNoFence        0045bb10 f i MSVCRTD:guard_support.obj
 0001:0005ab30       __InlineInterlockedExchangePointer 0045bb30 f i MSVCRTD:guard_support.obj
 0001:0005ab40       ___castguard_check_failure_debugbreak 0045bb40 f i MSVCRTD:guard_support.obj
 0001:0005ab60       ___castguard_check_failure_fastfail 0045bb60 f i MSVCRTD:guard_support.obj
 0001:0005ab90       ___castguard_check_failure_nop 0045bb90 f i MSVCRTD:guard_support.obj
 0001:0005aba0       ___castguard_check_failure_os_handled 0045bba0 f i MSVCRTD:guard_support.obj
 0001:0005ac10       ___castguard_check_failure_user_handled 0045bc10 f i MSVCRTD:guard_support.obj
 0001:0005ace0       ___castguard_set_user_handler 0045bce0 f i MSVCRTD:guard_support.obj
 0001:0005ad10       ___castguard_slow_path_check_debugbreak 0045bd10 f i MSVCRTD:guard_support.obj
 0001:0005ad50       ___castguard_slow_path_check_fastfail 0045bd50 f i MSVCRTD:guard_support.obj
 0001:0005ada0       ___castguard_slow_path_check_nop 0045bda0 f i MSVCRTD:guard_support.obj
 0001:0005adb0       ___castguard_slow_path_check_os_handled 0045bdb0 f i MSVCRTD:guard_support.obj
 0001:0005ae00       ___castguard_slow_path_check_user_handled 0045be00 f i MSVCRTD:guard_support.obj
 0001:0005aea0       __guard_icall_checks_enforced 0045bea0 f i MSVCRTD:guard_support.obj
 0001:0005aee0       ___isa_available_init      0045bee0 f   MSVCRTD:cpu_disp.obj
 0001:0005b530       ___security_init_cookie    0045c530 f   MSVCRTD:gs_support.obj
 0001:0005b5d0       __matherr                  0045c5d0 f   MSVCRTD:matherr.obj
 0001:0005b5e0       __get_startup_argv_mode    0045c5e0 f   MSVCRTD:argv_mode.obj
 0001:0005b5f0       __get_startup_commit_mode  0045c5f0 f   MSVCRTD:commit_mode.obj
 0001:0005b600       __get_startup_file_mode    0045c600 f   MSVCRTD:file_mode.obj
 0001:0005b610       __get_startup_new_mode     0045c610 f   MSVCRTD:new_mode.obj
 0001:0005b620       __get_startup_thread_locale_mode 0045c620 f   MSVCRTD:thread_locale.obj
 0001:0005b630       ?__scrt_initialize_type_info@@YAXXZ 0045c630 f   MSVCRTD:tncleanup.obj
 0001:0005b650       ?__scrt_uninitialize_type_info@@YAXXZ 0045c650 f   MSVCRTD:tncleanup.obj
 0001:0005b670       __should_initialize_environment 0045c670 f   MSVCRTD:env_mode.obj
 0001:0005b680       __initialize_default_precision 0045c680 f   MSVCRTD:default_precision.obj
 0001:0005b6b0       __initialize_invalid_parameter_handler 0045c6b0 f   MSVCRTD:invalid_parameter_handler.obj
 0001:0005b6c0       __initialize_denormal_control 0045c6c0 f   MSVCRTD:denormal_control.obj
 0001:0005b6d0       ___local_stdio_scanf_options 0045c6d0 f i MSVCRTD:default_local_stdio_options.obj
 0001:0005b6e0       ___scrt_initialize_default_local_stdio_options 0045c6e0 f   MSVCRTD:default_local_stdio_options.obj
 0001:0005b730       ___scrt_is_user_matherr_present 0045c730 f   MSVCRTD:matherr_detection.obj
 0001:0005b760       ___scrt_get_dyn_tls_init_callback 0045c760 f   MSVCRTD:dyn_tls_init.obj
 0001:0005b770       ___scrt_get_dyn_tls_dtor_callback 0045c770 f   MSVCRTD:dyn_tls_dtor.obj
 0001:0005b780       ___scrt_fastfail           0045c780 f   MSVCRTD:utility_desktop.obj
 0001:0005b910       ___scrt_get_show_window_mode 0045c910 f   MSVCRTD:utility_desktop.obj
 0001:0005b960       ___scrt_initialize_mta     0045c960 f   MSVCRTD:utility_desktop.obj
 0001:0005b970       ___scrt_initialize_winrt   0045c970 f   MSVCRTD:utility_desktop.obj
 0001:0005b980       ___scrt_is_managed_app     0045c980 f   MSVCRTD:utility_desktop.obj
 0001:0005ba30       ___scrt_set_unhandled_exception_filter 0045ca30 f   MSVCRTD:utility_desktop.obj
 0001:0005ba50       ___scrt_exe_initialize_mta 0045ca50 f   MSVCRTD:utility_desktop.obj
 0001:0005ba50       ___scrt_stub_for_initialize_mta 0045ca50 f   MSVCRTD:utility_desktop.obj
 0001:0005ba60       ___scrt_unhandled_exception_filter@4 0045ca60 f   MSVCRTD:utility_desktop.obj
 0001:0005bb00       __crt_debugger_hook        0045cb00 f   MSVCRTD:utility_desktop.obj
 0001:0005bb20       __RTC_Initialize           0045cb20 f   MSVCRTD:initsect.obj
 0001:0005bb60       __RTC_Terminate            0045cb60 f   MSVCRTD:initsect.obj
 0001:0005bba0       __except_handler4          0045cba0 f   MSVCRTD:chandler4gs.obj
 0001:0005bbf0       ??0bad_alloc@std@@QAE@XZ   0045cbf0 f i MSVCRTD:throw_bad_alloc.obj
 0001:0005bc20       ?__scrt_throw_std_bad_alloc@@YAXXZ 0045cc20 f   MSVCRTD:throw_bad_alloc.obj
 0001:0005bc50       ?__scrt_throw_std_bad_array_new_length@@YAXXZ 0045cc50 f   MSVCRTD:throw_bad_alloc.obj
 0001:0005bc80       ??3@YAXPAX@Z               0045cc80 f   MSVCRTD:delete_scalar.obj
 0001:0005bca0       ___raise_securityfailure   0045cca0 f   MSVCRTD:gs_report.obj
 0001:0005bce0       ___report_gsfailure        0045cce0 f   MSVCRTD:gs_report.obj
 0001:0005be30       ___report_rangecheckfailure 0045ce30 f   MSVCRTD:gs_report.obj
 0001:0005be40       ___report_securityfailure  0045ce40 f   MSVCRTD:gs_report.obj
 0001:0005bf50       ___report_securityfailureEx 0045cf50 f   MSVCRTD:gs_report.obj
 0001:0005c0c0       ___scrt_is_ucrt_dll_in_use 0045d0c0 f   MSVCRTD:ucrt_detection.obj
 0001:0005c0ed       _memcmp                    0045d0ed f   vcruntimed:VCRUNTIME140D.dll
 0001:0005c0f3       _memcpy                    0045d0f3 f   vcruntimed:VCRUNTIME140D.dll
 0001:0005c0f9       _memmove                   0045d0f9 f   vcruntimed:VCRUNTIME140D.dll
 0001:0005c0ff       _memset                    0045d0ff f   vcruntimed:VCRUNTIME140D.dll
 0001:0005c105       ___std_exception_copy      0045d105 f   vcruntimed:VCRUNTIME140D.dll
 0001:0005c10b       ___std_exception_destroy   0045d10b f   vcruntimed:VCRUNTIME140D.dll
 0001:0005c111       __CxxThrowException@8      0045d111 f   vcruntimed:VCRUNTIME140D.dll
 0001:0005c117       ___CxxFrameHandler3        0045d117 f   vcruntimed:VCRUNTIME140D.dll
 0001:0005c11d       __purecall                 0045d11d f   vcruntimed:VCRUNTIME140D.dll
 0001:0005c123       ___RTDynamicCast           0045d123 f   vcruntimed:VCRUNTIME140D.dll
 0001:0005c129       _memchr                    0045d129 f   vcruntimed:VCRUNTIME140D.dll
 0001:0005c12f       ___std_type_info_destroy_list 0045d12f f   vcruntimed:VCRUNTIME140D.dll
 0001:0005c135       ___current_exception       0045d135 f   vcruntimed:VCRUNTIME140D.dll
 0001:0005c13b       ___current_exception_context 0045d13b f   vcruntimed:VCRUNTIME140D.dll
 0001:0005c141       __except_handler4_common   0045d141 f   vcruntimed:VCRUNTIME140D.dll
 0001:0005c147       __invalid_parameter        0045d147 f   ucrtd:ucrtbased.dll
 0001:0005c14d       __CrtDbgReport             0045d14d f   ucrtd:ucrtbased.dll
 0001:0005c153       __errno                    0045d153 f   ucrtd:ucrtbased.dll
 0001:0005c159       _rand                      0045d159 f   ucrtd:ucrtbased.dll
 0001:0005c15f       _strtol                    0045d15f f   ucrtd:ucrtbased.dll
 0001:0005c165       ___acrt_iob_func           0045d165 f   ucrtd:ucrtbased.dll
 0001:0005c16b       __get_stream_buffer_pointers 0045d16b f   ucrtd:ucrtbased.dll
 0001:0005c171       _fclose                    0045d171 f   ucrtd:ucrtbased.dll
 0001:0005c177       _fflush                    0045d177 f   ucrtd:ucrtbased.dll
 0001:0005c17d       _fgetc                     0045d17d f   ucrtd:ucrtbased.dll
 0001:0005c183       _fgetpos                   0045d183 f   ucrtd:ucrtbased.dll
 0001:0005c189       _fputc                     0045d189 f   ucrtd:ucrtbased.dll
 0001:0005c18f       _fread                     0045d18f f   ucrtd:ucrtbased.dll
 0001:0005c195       _fsetpos                   0045d195 f   ucrtd:ucrtbased.dll
 0001:0005c19b       __fseeki64                 0045d19b f   ucrtd:ucrtbased.dll
 0001:0005c1a1       _fwrite                    0045d1a1 f   ucrtd:ucrtbased.dll
 0001:0005c1a7       _setvbuf                   0045d1a7 f   ucrtd:ucrtbased.dll
 0001:0005c1ad       _ungetc                    0045d1ad f   ucrtd:ucrtbased.dll
 0001:0005c1b3       __lock_file                0045d1b3 f   ucrtd:ucrtbased.dll
 0001:0005c1b9       __unlock_file              0045d1b9 f   ucrtd:ucrtbased.dll
 0001:0005c1bf       ___stdio_common_vfprintf   0045d1bf f   ucrtd:ucrtbased.dll
 0001:0005c1c5       _strlen                    0045d1c5 f   ucrtd:ucrtbased.dll
 0001:0005c1cb       _srand                     0045d1cb f   ucrtd:ucrtbased.dll
 0001:0005c1d1       _sqrt                      0045d1d1 f   ucrtd:ucrtbased.dll
 0001:0005c1d7       _atan                      0045d1d7 f   ucrtd:ucrtbased.dll
 0001:0005c1dd       _atan2                     0045d1dd f   ucrtd:ucrtbased.dll
 0001:0005c1e3       _cos                       0045d1e3 f   ucrtd:ucrtbased.dll
 0001:0005c1e9       _sin                       0045d1e9 f   ucrtd:ucrtbased.dll
 0001:0005c1ef       __calloc_dbg               0045d1ef f   ucrtd:ucrtbased.dll
 0001:0005c1f5       ___stdio_common_vsprintf   0045d1f5 f   ucrtd:ucrtbased.dll
 0001:0005c1fb       _wcslen                    0045d1fb f   ucrtd:ucrtbased.dll
 0001:0005c201       __time64                   0045d201 f   ucrtd:ucrtbased.dll
 0001:0005c207       _atoi                      0045d207 f   ucrtd:ucrtbased.dll
 0001:0005c20d       _remove                    0045d20d f   ucrtd:ucrtbased.dll
 0001:0005c213       _rename                    0045d213 f   ucrtd:ucrtbased.dll
 0001:0005c219       __CrtDumpMemoryLeaks       0045d219 f   ucrtd:ucrtbased.dll
 0001:0005c21f       _puts                      0045d21f f   ucrtd:ucrtbased.dll
 0001:0005c225       _strcmp                    0045d225 f   ucrtd:ucrtbased.dll
 0001:0005c22b       _strcpy                    0045d22b f   ucrtd:ucrtbased.dll
 0001:0005c231       __free_dbg                 0045d231 f   ucrtd:ucrtbased.dll
 0001:0005c237       __malloc_dbg               0045d237 f   ucrtd:ucrtbased.dll
 0001:0005c23d       __seh_filter_exe           0045d23d f   ucrtd:ucrtbased.dll
 0001:0005c243       __set_app_type             0045d243 f   ucrtd:ucrtbased.dll
 0001:0005c249       ___setusermatherr          0045d249 f   ucrtd:ucrtbased.dll
 0001:0005c24f       __configure_narrow_argv    0045d24f f   ucrtd:ucrtbased.dll
 0001:0005c255       __initialize_narrow_environment 0045d255 f   ucrtd:ucrtbased.dll
 0001:0005c25b       __get_initial_narrow_environment 0045d25b f   ucrtd:ucrtbased.dll
 0001:0005c261       __initterm                 0045d261 f   ucrtd:ucrtbased.dll
 0001:0005c267       __initterm_e               0045d267 f   ucrtd:ucrtbased.dll
 0001:0005c26d       _exit                      0045d26d f   ucrtd:ucrtbased.dll
 0001:0005c273       __exit                     0045d273 f   ucrtd:ucrtbased.dll
 0001:0005c279       __set_fmode                0045d279 f   ucrtd:ucrtbased.dll
 0001:0005c27f       ___p___argc                0045d27f f   ucrtd:ucrtbased.dll
 0001:0005c285       ___p___argv                0045d285 f   ucrtd:ucrtbased.dll
 0001:0005c28b       __cexit                    0045d28b f   ucrtd:ucrtbased.dll
 0001:0005c291       __c_exit                   0045d291 f   ucrtd:ucrtbased.dll
 0001:0005c297       __register_thread_local_exe_atexit_callback 0045d297 f   ucrtd:ucrtbased.dll
 0001:0005c29d       __configthreadlocale       0045d29d f   ucrtd:ucrtbased.dll
 0001:0005c2a3       __set_new_mode             0045d2a3 f   ucrtd:ucrtbased.dll
 0001:0005c2a9       ___p__commode              0045d2a9 f   ucrtd:ucrtbased.dll
 0001:0005c2af       __callnewh                 0045d2af f   ucrtd:ucrtbased.dll
 0001:0005c2b5       _malloc                    0045d2b5 f   ucrtd:ucrtbased.dll
 0001:0005c2bb       __seh_filter_dll           0045d2bb f   ucrtd:ucrtbased.dll
 0001:0005c2c1       __initialize_onexit_table  0045d2c1 f   ucrtd:ucrtbased.dll
 0001:0005c2c7       __register_onexit_function 0045d2c7 f   ucrtd:ucrtbased.dll
 0001:0005c2cd       __execute_onexit_table     0045d2cd f   ucrtd:ucrtbased.dll
 0001:0005c2d3       __crt_atexit               0045d2d3 f   ucrtd:ucrtbased.dll
 0001:0005c2d9       __crt_at_quick_exit        0045d2d9 f   ucrtd:ucrtbased.dll
 0001:0005c2df       __controlfp_s              0045d2df f   ucrtd:ucrtbased.dll
 0001:0005c2e5       _terminate                 0045d2e5 f   ucrtd:ucrtbased.dll
 0001:0005c430       _WinMain@16                0045d430 f   SDL2main:SDL_windows_main.obj
 0001:0005c440       _main                      0045d440 f   SDL2main:SDL_windows_main.obj
 0001:0005c590       _wmain                     0045d590 f   SDL2main:SDL_windows_main.obj
 0001:0005c595       _IsProcessorFeaturePresent@4 0045d595 f   kernel32:KERNEL32.dll
 0001:0005c59b       _QueryPerformanceCounter@4 0045d59b f   kernel32:KERNEL32.dll
 0001:0005c5a1       _GetCurrentProcessId@0     0045d5a1 f   kernel32:KERNEL32.dll
 0001:0005c5a7       _GetCurrentThreadId@0      0045d5a7 f   kernel32:KERNEL32.dll
 0001:0005c5ad       _GetSystemTimeAsFileTime@4 0045d5ad f   kernel32:KERNEL32.dll
 0001:0005c5b3       _InitializeSListHead@4     0045d5b3 f   kernel32:KERNEL32.dll
 0001:0005c5b9       _IsDebuggerPresent@0       0045d5b9 f   kernel32:KERNEL32.dll
 0001:0005c5bf       _UnhandledExceptionFilter@4 0045d5bf f   kernel32:KERNEL32.dll
 0001:0005c5c5       _SetUnhandledExceptionFilter@4 0045d5c5 f   kernel32:KERNEL32.dll
 0001:0005c5cb       _GetStartupInfoW@4         0045d5cb f   kernel32:KERNEL32.dll
 0001:0005c5d1       _GetModuleHandleW@4        0045d5d1 f   kernel32:KERNEL32.dll
 0001:0005c5d7       _GetCurrentProcess@0       0045d5d7 f   kernel32:KERNEL32.dll
 0001:0005c5dd       _TerminateProcess@8        0045d5dd f   kernel32:KERNEL32.dll
 0001:0005c5e3       _GetCommandLineW@0         0045d5e3 f   kernel32:KERNEL32.dll
 0001:0005c5e9       _VirtualAlloc@16           0045d5e9 f   kernel32:KERNEL32.dll
 0001:0005c5ef       _VirtualFree@12            0045d5ef f   kernel32:KERNEL32.dll
 0001:0005c5f5       _WideCharToMultiByte@32    0045d5f5 f   kernel32:KERNEL32.dll
 0001:0005c5fb       _SDL_SetMainReady          0045d5fb f   SDL2:SDL2.dll
 0001:0005c601       _SDL_ShowSimpleMessageBox  0045d601 f   SDL2:SDL2.dll
 0001:0005c610       ___acrt_initialize         0045d610 f   MSVCRTD:ucrt_stubs.obj
 0001:0005c610       ___scrt_stub_for_acrt_initialize 0045d610 f   MSVCRTD:ucrt_stubs.obj
 0001:0005c610       ___vcrt_initialize         0045d610 f   MSVCRTD:ucrt_stubs.obj
 0001:0005c620       ___acrt_thread_attach      0045d620 f   MSVCRTD:ucrt_stubs.obj
 0001:0005c620       ___scrt_stub_for_acrt_thread_attach 0045d620 f   MSVCRTD:ucrt_stubs.obj
 0001:0005c620       ___vcrt_thread_attach      0045d620 f   MSVCRTD:ucrt_stubs.obj
 0001:0005c630       ___acrt_thread_detach      0045d630 f   MSVCRTD:ucrt_stubs.obj
 0001:0005c630       ___scrt_stub_for_acrt_thread_detach 0045d630 f   MSVCRTD:ucrt_stubs.obj
 0001:0005c630       ___vcrt_thread_detach      0045d630 f   MSVCRTD:ucrt_stubs.obj
 0001:0005c640       ___acrt_uninitialize       0045d640 f   MSVCRTD:ucrt_stubs.obj
 0001:0005c640       ___scrt_stub_for_acrt_uninitialize 0045d640 f   MSVCRTD:ucrt_stubs.obj
 0001:0005c640       ___vcrt_uninitialize       0045d640 f   MSVCRTD:ucrt_stubs.obj
 0001:0005c650       ___acrt_uninitialize_critical 0045d650 f   MSVCRTD:ucrt_stubs.obj
 0001:0005c650       ___scrt_stub_for_acrt_uninitialize_critical 0045d650 f   MSVCRTD:ucrt_stubs.obj
 0001:0005c650       ___vcrt_uninitialize_critical 0045d650 f   MSVCRTD:ucrt_stubs.obj
 0001:0005c660       ___scrt_stub_for_is_c_termination_complete 0045d660 f   MSVCRTD:ucrt_stubs.obj
 0001:0005c660       __is_c_termination_complete 0045d660 f   MSVCRTD:ucrt_stubs.obj
 0001:0005c670       __filter_x86_sse2_floating_point_exception 0045d670 f   MSVCRTD:x86_exception_filter.obj
 0001:0005c670       __filter_x86_sse2_floating_point_exception_default 0045d670 f   MSVCRTD:x86_exception_filter.obj
 0002:00000000       ___xc_a                    00466000     MSVCRTD:initializers.obj
 0002:0000030c       ___xc_z                    0046630c     MSVCRTD:initializers.obj
 0002:00000410       ___xi_a                    00466410     MSVCRTD:initializers.obj
 0002:0000071c       ___xi_z                    0046671c     MSVCRTD:initializers.obj
 0002:00000820       ___xp_a                    00466820     MSVCRTD:initializers.obj
 0002:00000924       ___xp_z                    00466924     MSVCRTD:initializers.obj
 0002:00000a28       ___xt_a                    00466a28     MSVCRTD:initializers.obj
 0002:00000b2c       ___xt_z                    00466b2c     MSVCRTD:initializers.obj
 0002:000014fc       ??_7exception@std@@6B@     004674fc     BackgroundTileObject.obj
 0002:00001508       ??_C@_0BC@EOODALEL@Unknown?5exception@ 00467508     BackgroundTileObject.obj
 0002:00001524       ??_7bad_alloc@std@@6B@     00467524     BackgroundTileObject.obj
 0002:00001534       ??_7bad_array_new_length@std@@6B@ 00467534     BackgroundTileObject.obj
 0002:00001540       ??_C@_0BF@KINCDENJ@bad?5array?5new?5length@ 00467540     BackgroundTileObject.obj
 0002:0000155c       ??_C@_0BB@FCMFBGOM@invalid?5argument@ 0046755c     BackgroundTileObject.obj
 0002:00001570       ??_C@_02DKCKIIND@?$CFs@    00467570     BackgroundTileObject.obj
 0002:00001578       ??_C@_0GC@OGIIGPAB@C?3?2Program?5Files?2Microsoft?5Visu@ 00467578     BackgroundTileObject.obj
 0002:000015f0       ??_C@_1ME@MIFAIHL@?$AAC?$AA?3?$AA?2?$AAP?$AAr?$AAo?$AAg?$AAr?$AAa?$AAm?$AA?5?$AAF?$AAi?$AAl?$AAe@ 004675f0     BackgroundTileObject.obj
 0002:000016dc       ??_C@_11LOCGONAA@@         004676dc     BackgroundTileObject.obj
 0002:000016e0       ??_C@_1CG@JNLFBNGN@?$AA?$CC?$AAi?$AAn?$AAv?$AAa?$AAl?$AAi?$AAd?$AA?5?$AAa?$AAr?$AAg?$AAu?$AAm?$AAe@ 004676e0     BackgroundTileObject.obj
 0002:00001710       ??_C@_0BJ@LFDBABJJ@ITERATOR?5LIST?5CORRUPTED?$CB@ 00467710     BackgroundTileObject.obj
 0002:00001730       ??_C@_1DG@PLBPCAEM@?$AA?$CC?$AAI?$AAT?$AAE?$AAR?$AAA?$AAT?$AAO?$AAR?$AA?5?$AAL?$AAI?$AAS?$AAT?$AA?5@ 00467730     BackgroundTileObject.obj
 0002:00001770       ??_C@_0BA@JFNIOLAK@string?5too?5long@ 00467770     BackgroundTileObject.obj
 0002:00001788       ??_7bad_cast@std@@6B@      00467788     BackgroundTileObject.obj
 0002:00001794       ??_C@_08EPJLHIJG@bad?5cast@ 00467794     BackgroundTileObject.obj
 0002:000017a0       ??_C@_0BG@HGEDEDEC@invalid?5stoi?5argument@ 004677a0     BackgroundTileObject.obj
 0002:000017bc       ??_C@_0BL@MFFNMGGC@stoi?5argument?5out?5of?5range@ 004677bc     BackgroundTileObject.obj
 0002:000017dc       ??_C@_0BB@GCADKGJO@map?1set?5too?5long@ 004677dc     BackgroundTileObject.obj
 0002:000017f0       ??_C@_0DC@BNOGMHFL@Error?5creating?5surface?5in?5RawIm@ 004677f0     BackgroundTileObject.obj
 0002:0000182c       ??_C@_0BD@IFIGDDIC@?7?7?$CL?$CL?$CL?5Load?5image?3?5@ 0046782c     BackgroundTileObject.obj
 0002:00001844       ??_C@_0DJ@OJEPJEDH@ImageManager?3?3getImagePtrbyURL?$CI@ 00467844     BackgroundTileObject.obj
 0002:00001888       ??_C@_0BJ@LOCNEGOL@Failed?5to?5load?5image?5?$CFs?6@ 00467888     BackgroundTileObject.obj
 0002:000018ac       ??_7TileManager@@6B@       004678ac     BackgroundTileObject.obj
 0002:000018bc       ??_7BackgroundTileManager@@6B@ 004678bc     BackgroundTileObject.obj
 0002:000018c8       ??_C@_0BO@FPFKBFEF@resources?1Dungeon_Tileset?4png@ 004678c8     BackgroundTileObject.obj
 0002:000018f0       ??_7BaseEntity@@6B@        004678f0     BackgroundTileObject.obj
 0002:00001944       ??_7BackgroundTileObject@@6B@ 00467944     BackgroundTileObject.obj
 0002:00001998       ??_7?$basic_filebuf@DU?$char_traits@D@std@@@std@@6B@ 00467998     BackgroundTileObject.obj
 0002:000019e4       ??_7?$basic_ifstream@DU?$char_traits@D@std@@@std@@6B@ 004679e4     BackgroundTileObject.obj
 0002:000019ec       ??_8?$basic_ifstream@DU?$char_traits@D@std@@@std@@7B@ 004679ec     BackgroundTileObject.obj
 0002:000019fc       ??_7?$basic_stringbuf@DU?$char_traits@D@std@@V?$allocator@D@2@@std@@6B@ 004679fc     BackgroundTileObject.obj
 0002:00001a48       ??_7?$basic_stringstream@DU?$char_traits@D@std@@V?$allocator@D@2@@std@@6B@ 00467a48     BackgroundTileObject.obj
 0002:00001a50       ??_8?$basic_stringstream@DU?$char_traits@D@std@@V?$allocator@D@2@@std@@7B?$basic_istream@DU?$char_traits@D@std@@@1@@ 00467a50     BackgroundTileObject.obj
 0002:00001a5c       ??_8?$basic_stringstream@DU?$char_traits@D@std@@V?$allocator@D@2@@std@@7B?$basic_ostream@DU?$char_traits@D@std@@@1@@ 00467a5c     BackgroundTileObject.obj
 0002:00001a68       ??_C@_0GC@BPEFGDOI@C?3?2Program?5Files?2Microsoft?5Visu@ 00467a68     BackgroundTileObject.obj
 0002:00001ae0       ??_C@_1ME@OCAJPBKK@?$AAC?$AA?3?$AA?2?$AAP?$AAr?$AAo?$AAg?$AAr?$AAa?$AAm?$AA?5?$AAF?$AAi?$AAl?$AAe@ 00467ae0     BackgroundTileObject.obj
 0002:00001bcc       ??_C@_0BJ@DHFDPMIM@invalid?5vector?5subscript@ 00467bcc     BackgroundTileObject.obj
 0002:00001bec       ??_C@_0BP@OLDKBHLM@map?1set?5iterators?5incompatible@ 00467bec     BackgroundTileObject.obj
 0002:00001c18       ??_C@_0GA@NHPPEDEL@C?3?2Program?5Files?2Microsoft?5Visu@ 00467c18     BackgroundTileObject.obj
 0002:00001c90       ??_C@_1MA@NJFEKPAH@?$AAC?$AA?3?$AA?2?$AAP?$AAr?$AAo?$AAg?$AAr?$AAa?$AAm?$AA?5?$AAF?$AAi?$AAl?$AAe@ 00467c90     BackgroundTileObject.obj
 0002:00001d78       ??_C@_1EC@JLIDLCDH@?$AA?$CC?$AAm?$AAa?$AAp?$AA?1?$AAs?$AAe?$AAt?$AA?5?$AAi?$AAt?$AAe?$AAr?$AAa?$AAt@ 00467d78     BackgroundTileObject.obj
 0002:00001dc8       ??_C@_0BP@PFIPNLNI@front?$CI?$CJ?5called?5on?5empty?5string@ 00467dc8     BackgroundTileObject.obj
 0002:00001df0       ??_C@_1EC@DINNLDHA@?$AA?$CC?$AAf?$AAr?$AAo?$AAn?$AAt?$AA?$CI?$AA?$CJ?$AA?5?$AAc?$AAa?$AAl?$AAl?$AAe?$AAd@ 00467df0     BackgroundTileObject.obj
 0002:00001e40       ??_C@_0DG@KGHKKGBC@null?5pointer?5cannot?5point?5to?5a?5@ 00467e40     BackgroundTileObject.obj
 0002:00001e80       ??_C@_1HA@FACCKGGH@?$AA?$CC?$AAn?$AAu?$AAl?$AAl?$AA?5?$AAp?$AAo?$AAi?$AAn?$AAt?$AAe?$AAr?$AA?5?$AAc@ 00467e80     BackgroundTileObject.obj
 0002:00001f08       ??_C@_0DG@LCFNIIPB@cannot?5dereference?5value?9initia@ 00467f08     BackgroundTileObject.obj
 0002:00001f48       ??_C@_1HA@ILGCNILF@?$AA?$CC?$AAc?$AAa?$AAn?$AAn?$AAo?$AAt?$AA?5?$AAd?$AAe?$AAr?$AAe?$AAf?$AAe?$AAr@ 00467f48     BackgroundTileObject.obj
 0002:00001fd0       ??_C@_0CI@OKFEHCEB@cannot?5dereference?5end?5map?1set?5@ 00467fd0     BackgroundTileObject.obj
 0002:00002000       ??_C@_1FE@NKHAAGMB@?$AA?$CC?$AAc?$AAa?$AAn?$AAn?$AAo?$AAt?$AA?5?$AAd?$AAe?$AAr?$AAe?$AAf?$AAe?$AAr@ 00468000     BackgroundTileObject.obj
 0002:00002064       ??_C@_0BI@CFPLBAOH@invalid?5string?5position@ 00468064     BackgroundTileObject.obj
 0002:00002080       ??_C@_0GD@LEBKLMKJ@C?3?2Program?5Files?2Microsoft?5Visu@ 00468080     BackgroundTileObject.obj
 0002:000020f8       ??_C@_1MG@MPNAAJII@?$AAC?$AA?3?$AA?2?$AAP?$AAr?$AAo?$AAg?$AAr?$AAa?$AAm?$AA?5?$AAF?$AAi?$AAl?$AAe@ 004680f8     BackgroundTileObject.obj
 0002:000021e8       ??_C@_0DA@GGPHOHEL@map?1set?5erase?5iterator?5from?5inc@ 004681e8     BackgroundTileObject.obj
 0002:00002228       ??_C@_1GE@FENJBJJO@?$AA?$CC?$AAm?$AAa?$AAp?$AA?1?$AAs?$AAe?$AAt?$AA?5?$AAe?$AAr?$AAa?$AAs?$AAe?$AA?5@ 00468228     BackgroundTileObject.obj
 0002:000022a0       ??_C@_0CE@JAJNKOFK@cannot?5erase?5map?1set?5end?$CI?$CJ?5iter@ 004682a0     BackgroundTileObject.obj
 0002:000022d0       ??_C@_1EM@MEAEPHLP@?$AA?$CC?$AAc?$AAa?$AAn?$AAn?$AAo?$AAt?$AA?5?$AAe?$AAr?$AAa?$AAs?$AAe?$AA?5?$AAm@ 004682d0     BackgroundTileObject.obj
 0002:00002330       ??_7?$_Ref_count@VRawImageData@@@std@@6B@ 00468330     BackgroundTileObject.obj
 0002:00002344       ??_C@_0BA@FOIKENOD@vector?5too?5long@ 00468344     BackgroundTileObject.obj
 0002:00002358       ??_C@_0BD@FEEMDEPI@invalid?5comparator@ 00468358     BackgroundTileObject.obj
 0002:00002370       ??_C@_1CK@NDNHPKPI@?$AA?$CC?$AAi?$AAn?$AAv?$AAa?$AAl?$AAi?$AAd?$AA?5?$AAc?$AAo?$AAm?$AAp?$AAa?$AAr@ 00468370     BackgroundTileObject.obj
 0002:000027e4       ??_7BaseButton@@6B@        004687e4     BaseButton.obj
 0002:00002828       ??_C@_0GB@NMNHNNFC@C?3?2Program?5Files?2Microsoft?5Visu@ 00468828     BaseButton.obj
 0002:000028a0       ??_C@_1MC@ENNOJFOL@?$AAC?$AA?3?$AA?2?$AAP?$AAr?$AAo?$AAg?$AAr?$AAa?$AAm?$AA?5?$AAF?$AAi?$AAl?$AAe@ 004688a0     BaseButton.obj
 0002:00002988       ??_C@_0CE@EAMOGAIE@vector?5erase?5iterator?5outside?5r@ 00468988     BaseButton.obj
 0002:000029b8       ??_C@_1EM@BEMPOGMM@?$AA?$CC?$AAv?$AAe?$AAc?$AAt?$AAo?$AAr?$AA?5?$AAe?$AAr?$AAa?$AAs?$AAe?$AA?5?$AAi@ 004689b8     BaseButton.obj
 0002:00002a14       ??_C@_0BO@CAOBBIOC@vector?5iterators?5incompatible@ 00468a14     BaseButton.obj
 0002:00002a38       ??_C@_1EA@DJDGNIII@?$AA?$CC?$AAv?$AAe?$AAc?$AAt?$AAo?$AAr?$AA?5?$AAi?$AAt?$AAe?$AAr?$AAa?$AAt?$AAo@ 00468a38     BaseButton.obj
 0002:00002a84       ??_C@_0DI@PBEELKIF@vector?5iterators?5in?5range?5are?5f@ 00468a84     BaseButton.obj
 0002:00002ac8       ??_C@_1HE@KBMFDAFB@?$AA?$CC?$AAv?$AAe?$AAc?$AAt?$AAo?$AAr?$AA?5?$AAi?$AAt?$AAe?$AAr?$AAa?$AAt?$AAo@ 00468ac8     BaseButton.obj
 0002:00002b54       ??_C@_0CB@LIAHLBAO@vector?5iterator?5range?5transpose@ 00468b54     BaseButton.obj
 0002:00002b80       ??_C@_1EG@ODKBEHFN@?$AA?$CC?$AAv?$AAe?$AAc?$AAt?$AAo?$AAr?$AA?5?$AAi?$AAt?$AAe?$AAr?$AAa?$AAt?$AAo@ 00468b80     BaseButton.obj
 0002:00002bd8       __real@3fb999999999999a    00468bd8     BaseButton.obj
 0002:00002be8       __real@3fc999999999999a    00468be8     BaseButton.obj
 0002:00003010       ??_7BaseDisplay@@6B@       00469010     BaseDisplay.obj
 0002:0000348c       ??_7ImagePixelMapping@@6B@ 0046948c     BaseEntity.obj
 0002:0000349c       ??_7ImagePixelMappingShiftXY@@6B@ 0046949c     BaseEntity.obj
 0002:000034ac       ??_7MirrorImagePixelMapping@@6B@ 004694ac     BaseEntity.obj
 0002:000034b8       __real@3fe0000000000000    004694b8     BaseEntity.obj
 0002:000034c8       __real@3ff0000000000000    004694c8     BaseEntity.obj
 0002:000034d8       __real@4050000000000000    004694d8     BaseEntity.obj
 0002:00003930       ??_7BaseEnemy@@6B@         00469930     BaseEnemy.obj
 0002:0000399c       __real@3f800000            0046999c     BaseEnemy.obj
 0002:000039a0       __real@40000000            004699a0     BaseEnemy.obj
 0002:00003dc0       ??_7ImagePixelMappingRotate@@6B@ 00469dc0     BaseRangedAttack.obj
 0002:00003dd0       ??_7RotateAndShiftXYImagePixelMapping@@6B@ 00469dd0     BaseRangedAttack.obj
 0002:00003de0       ??_7BaseRangedAttack@@6B@  00469de0     BaseRangedAttack.obj
 0002:00003e40       __real@3f1a36e2eb1c432d    00469e40     BaseRangedAttack.obj
 0002:00003e50       __real@400921fb54442d18    00469e50     BaseRangedAttack.obj
 0002:00003e60       __real@4040000000000000    00469e60     BaseRangedAttack.obj
 0002:00003e6c       __real@43c80000            00469e6c     BaseRangedAttack.obj
 0002:00003e70       __xmm@80000000800000008000000080000000 00469e70     BaseRangedAttack.obj
 0002:000042a0       ??_7BaseStateManager@@6B@  0046a2a0     BaseStateManager.obj
 0002:000042b8       ??_7StartState@@6B@        0046a2b8     BaseStateManager.obj
 0002:000042d0       ??_7RunningState@@6B@      0046a2d0     BaseStateManager.obj
 0002:000042e8       ??_7PausedState@@6B@       0046a2e8     BaseStateManager.obj
 0002:00004300       ??_7EndState@@6B@          0046a300     BaseStateManager.obj
 0002:00004318       ??_7ScoreState@@6B@        0046a318     BaseStateManager.obj
 0002:00004330       ??_7OptionsState@@6B@      0046a330     BaseStateManager.obj
 0002:00004810       ??_C@_0GC@EOEEFNKG@C?3?2Program?5Files?2Microsoft?5Visu@ 0046a810     Overlay.obj
 0002:00004888       ??_C@_0GC@MNAJFPAH@C?3?2Program?5Files?2Microsoft?5Visu@ 0046a888     Overlay.obj
 0002:00004904       ??_7Overlay@@6B@           0046a904     Overlay.obj
 0002:00004944       ??_C@_0N@LPFKKEBD@?3AM?3am?3PM?3pm@ 0046a944     Overlay.obj
 0002:00004954       ??_C@_1BK@MHIKGOKE@?$AA?3?$AAA?$AAM?$AA?3?$AAa?$AAm?$AA?3?$AAP?$AAM?$AA?3?$AAp?$AAm@ 0046a954     Overlay.obj
 0002:00004ddc       ??_7PauseDisplay@@6B@      0046addc     PauseDisplay.obj
 0002:00005260       ??_7RatMage@@6B@           0046b260     RatMage.obj
 0002:00005764       ??_7StartDisplay@@6B@      0046b764     StartDisplay.obj
 0002:00005bd0       ??_7SubmitButton@@6B@      0046bbd0     SubmitButton.obj
 0002:0000607c       ??_7ChaseObject@@6B@       0046c07c     ChaseObject.obj
 0002:000064ec       ??_C@_0CN@GHCLOPHF@Error?5in?5setting?5pixel?9?5should?5@ 0046c4ec     DraggingDemo.obj
 0002:00006528       ??_C@_0JM@GIEKPEHN@WARNING?3?5Attempted?5write?5to?5sur@ 0046c528     DraggingDemo.obj
 0002:000065e8       ??_7DragableBaseClassObject@@6B@ 0046c5e8     DraggingDemo.obj
 0002:00006640       ??_7DragableObject@@6B@    0046c640     DraggingDemo.obj
 0002:00006698       ??_7DragableImageObject@@6B@ 0046c698     DraggingDemo.obj
 0002:000066f0       ??_7ImageObject@@6B@       0046c6f0     DraggingDemo.obj
 0002:00006730       ??_C@_0BO@PFKOHNJC@vector?5subscript?5out?5of?5range@ 0046c730     DraggingDemo.obj
 0002:00006758       ??_C@_1EA@LEKOKFNB@?$AA?$CC?$AAv?$AAe?$AAc?$AAt?$AAo?$AAr?$AA?5?$AAs?$AAu?$AAb?$AAs?$AAc?$AAr?$AAi@ 0046c758     DraggingDemo.obj
 0002:000067a8       ?MY_PI@DrawingSurface@@2NB 0046c7a8     DrawingSurface.obj
 0002:00006bc8       ??_C@_0LN@HOLHFHJI@WARNING?3?5Attempted?5blit?5to?5lock@ 0046cbc8     DrawingSurface.obj
 0002:00006cb0       __real@3fe0c152382d7365    0046ccb0     DrawingSurface.obj
 0002:00006cc0       __real@3ff8000000000000    0046ccc0     DrawingSurface.obj
 0002:00006cd0       __real@3ff921fb54442d18    0046ccd0     DrawingSurface.obj
 0002:00006ce0       __real@4000000000000000    0046cce0     DrawingSurface.obj
 0002:00006cf0       __real@4008000000000000    0046ccf0     DrawingSurface.obj
 0002:00006d00       __real@400f6a7a2955385e    0046cd00     DrawingSurface.obj
 0002:00006d10       __real@4010000000000000    0046cd10     DrawingSurface.obj
 0002:00006d20       __real@401921fb54442d18    0046cd20     DrawingSurface.obj
 0002:00007240       ??_7EndDisplay@@6B@        0046d240     EndDisplay.obj
 0002:00007288       ??_7?$basic_fstream@DU?$char_traits@D@std@@@std@@6B@ 0046d288     EndDisplay.obj
 0002:00007290       ??_8?$basic_fstream@DU?$char_traits@D@std@@@std@@7B?$basic_istream@DU?$char_traits@D@std@@@1@@ 0046d290     EndDisplay.obj
 0002:0000729c       ??_8?$basic_fstream@DU?$char_traits@D@std@@@std@@7B?$basic_ostream@DU?$char_traits@D@std@@@1@@ 0046d29c     EndDisplay.obj
 0002:000072ac       ??_7?$basic_ofstream@DU?$char_traits@D@std@@@std@@6B@ 0046d2ac     EndDisplay.obj
 0002:000072b4       ??_8?$basic_ofstream@DU?$char_traits@D@std@@@std@@7B@ 0046d2b4     EndDisplay.obj
 0002:000072c4       ??_7?$basic_istringstream@DU?$char_traits@D@std@@V?$allocator@D@2@@std@@6B@ 0046d2c4     EndDisplay.obj
 0002:000072cc       ??_8?$basic_istringstream@DU?$char_traits@D@std@@V?$allocator@D@2@@std@@7B@ 0046d2cc     EndDisplay.obj
 0002:000072d8       ??_C@_0BJ@HAJGEHKO@transposed?5pointer?5range@ 0046d2d8     EndDisplay.obj
 0002:000072f8       ??_C@_1DG@FJIKMGFD@?$AA?$CC?$AAt?$AAr?$AAa?$AAn?$AAs?$AAp?$AAo?$AAs?$AAe?$AAd?$AA?5?$AAp?$AAo?$AAi@ 0046d2f8     EndDisplay.obj
 0002:00007c08       ??_7ScoreDisplay@@6B@      0046dc08     ScoreDisplay.obj
 0002:00008078       ??_7ExitButton@@6B@        0046e078     SimpleButtons.obj
 0002:000080c0       ??_7BackButton@@6B@        0046e0c0     SimpleButtons.obj
 0002:00008108       ??_7SwitchButton@@6B@      0046e108     SimpleButtons.obj
 0002:0000858c       ??_7Fireball@@6B@          0046e58c     Fireball.obj
 0002:00008a08       ??_7FlashingDemo@@6BDisplayableObjectContainer@@@ 0046ea08     FlashingDemo.obj
 0002:00008ab4       ??_7FlashingDemo@@6BFilterPoints@@@ 0046eab4     FlashingDemo.obj
 0002:00008f54       ??_C@_0DE@CHADHGFF@can?8t?5dereference?5value?9initial@ 0046ef54     GameEngine.obj
 0002:00008f98       ??_C@_1GM@FNBFNBEL@?$AA?$CC?$AAc?$AAa?$AAn?$AA?8?$AAt?$AA?5?$AAd?$AAe?$AAr?$AAe?$AAf?$AAe?$AAr?$AAe@ 0046ef98     GameEngine.obj
 0002:0000901c       ??_C@_0CO@PGFNEDAH@can?8t?5dereference?5invalidated?5v@ 0046f01c     GameEngine.obj
 0002:00009058       ??_C@_1GA@CLCDIGKJ@?$AA?$CC?$AAc?$AAa?$AAn?$AA?8?$AAt?$AA?5?$AAd?$AAe?$AAr?$AAe?$AAf?$AAe?$AAr?$AAe@ 0046f058     GameEngine.obj
 0002:000090cc       ??_C@_0CP@MDHADBHN@can?8t?5dereference?5out?5of?5range?5@ 0046f0cc     GameEngine.obj
 0002:00009108       ??_C@_1GC@JDCKOLAC@?$AA?$CC?$AAc?$AAa?$AAn?$AA?8?$AAt?$AA?5?$AAd?$AAe?$AAr?$AAe?$AAf?$AAe?$AAr?$AAe@ 0046f108     GameEngine.obj
 0002:00009180       ??_C@_0DC@KEKNBAEB@can?8t?5increment?5value?9initializ@ 0046f180     GameEngine.obj
 0002:000091c0       ??_C@_1GI@EDCILPL@?$AA?$CC?$AAc?$AAa?$AAn?$AA?8?$AAt?$AA?5?$AAi?$AAn?$AAc?$AAr?$AAe?$AAm?$AAe?$AAn@ 0046f1c0     GameEngine.obj
 0002:0000923c       ??_C@_0CM@MNNBKIBC@can?8t?5increment?5invalidated?5vec@ 0046f23c     GameEngine.obj
 0002:00009270       ??_C@_1FM@ICPJNHLL@?$AA?$CC?$AAc?$AAa?$AAn?$AA?8?$AAt?$AA?5?$AAi?$AAn?$AAc?$AAr?$AAe?$AAm?$AAe?$AAn@ 0046f270     GameEngine.obj
 0002:000092e0       ??_C@_0CJ@OAAAAGPM@can?8t?5increment?5vector?5iterator@ 0046f2e0     GameEngine.obj
 0002:00009318       ??_C@_1FG@LDPPKMGP@?$AA?$CC?$AAc?$AAa?$AAn?$AA?8?$AAt?$AA?5?$AAi?$AAn?$AAc?$AAr?$AAe?$AAm?$AAe?$AAn@ 0046f318     GameEngine.obj
 0002:00009860       ??_7DisplayableObjectContainer@@6B@ 0046f860     GameManager.obj
 0002:00009870       ??_7GameManager@@6B@       0046f870     GameManager.obj
 0002:0000987c       ??_C@_05EJJKHDCK@ENEMY@    0046f87c     GameManager.obj
 0002:00009888       __real@3fd3333333333333    0046f888     GameManager.obj
 0002:00009898       __real@3fd999999999999a    0046f898     GameManager.obj
 0002:000098a8       __real@3fe3333333333333    0046f8a8     GameManager.obj
 0002:000098b8       __real@4024000000000000    0046f8b8     GameManager.obj
 0002:00009d2c       ??_7MappableImageObject@@6B@ 0046fd2c     ImageMappingDemo.obj
 0002:00009d80       __real@4059000000000000    0046fd80     ImageMappingDemo.obj
 0002:00009d90       __real@c059000000000000    0046fd90     ImageMappingDemo.obj
 0002:0000a20c       ??_7GameEngine@@6BDisplayableObjectContainer@@@ 0047020c     mainfunction.obj
 0002:0000a2b8       ??_7GameEngine@@6BFilterPoints@@@ 004702b8     mainfunction.obj
 0002:0000a73c       ??_7FilterPoints@@6B@      0047073c     BaseEngine.obj
 0002:0000a758       ??_7BaseEngine@@6BDisplayableObjectContainer@@@ 00470758     BaseEngine.obj
 0002:0000a804       ??_7BaseEngine@@6BFilterPoints@@@ 00470804     BaseEngine.obj
 0002:0000ac38       ??_7DisplayableObject@@6B@ 00470c38     DisplayableObject.obj
 0002:0000aeec       ??_C@_0BI@GMOFELCF@Free?5font?3?5?$CFd?5point?5?$CFs?6@ 00470eec     FontManager.obj
 0002:0000b388       ??_7MouseObject@@6B@       00471388     MouseObject.obj
 0002:0000b808       ??_7MyObjectB@@6B@         00471808     MyDemoA.obj
 0002:0000c4f0       ??_7PlayerObject@@6B@      004724f0     PlayerObject.obj
 0002:0000d1c4       ??_7RatWarrior@@6B@        004731c4     RatWarrior.obj
 0002:0000d648       ??_7CroppedImagePixelMapping@@6B@ 00473648     SimpleImage.obj
 0002:0000db24       ??_7BouncingObject@@6B@    00473b24     SimpleDemo.obj
 0002:0000db68       __real@0000000000000000    00473b68     SimpleDemo.obj
 0002:0000db78       __real@3f747ae147ae147b    00473b78     SimpleDemo.obj
 0002:0000db88       __real@4004000000000000    00473b88     SimpleDemo.obj
 0002:0000db98       __real@400c000000000000    00473b98     SimpleDemo.obj
 0002:0000dba8       __real@4069000000000000    00473ba8     SimpleDemo.obj
 0002:0000dbb8       __real@4072c00000000000    00473bb8     SimpleDemo.obj
 0002:0000dbd0       __xmm@80000000000000008000000000000000 00473bd0     SimpleDemo.obj
 0002:0000e000       ??_7StarfieldDemo@@6BDisplayableObjectContainer@@@ 00474000     StarfieldDemo.obj
 0002:0000e0ac       ??_7StarfieldDemo@@6BFilterPoints@@@ 004740ac     StarfieldDemo.obj
 0002:0000e2fc       ??_C@_0CB@EJBNKHHC@invalid?5to?5pop_back?5empty?5strin@ 004742fc     TextInputBox.obj
 0002:0000e328       ??_C@_1EG@GNALHNOG@?$AA?$CC?$AAi?$AAn?$AAv?$AAa?$AAl?$AAi?$AAd?$AA?5?$AAt?$AAo?$AA?5?$AAp?$AAo?$AAp@ 00474328     TextInputBox.obj
 0002:0000ebb0       ??_7BouncingBall@@6B@      00474bb0     BouncingBall.obj
 0002:0000ebf4       ??_7BouncingBall1@@6B@     00474bf4     BouncingBall.obj
 0002:0000ec38       ??_7BouncingBall2@@6B@     00474c38     BouncingBall.obj
 0002:0000ec78       __real@3f847ae147ae147b    00474c78     BouncingBall.obj
 0002:0000f0d8       __real@3fe999999999999a    004750d8     BouncingBallMain.obj
 0002:0000f0e8       __real@3ff199999999999a    004750e8     BouncingBallMain.obj
 0002:0000f0f8       __real@3ff3333333333333    004750f8     BouncingBallMain.obj
 0002:0000f108       __real@4049000000000000    00475108     BouncingBallMain.obj
 0002:0000f118       __real@4062c00000000000    00475118     BouncingBallMain.obj
 0002:0000f128       __real@4066800000000000    00475128     BouncingBallMain.obj
 0002:0000f138       __real@406f400000000000    00475138     BouncingBallMain.obj
 0002:0000f148       __real@4071300000000000    00475148     BouncingBallMain.obj
 0002:0000f158       __real@4074500000000000    00475158     BouncingBallMain.obj
 0002:0000f168       __real@4075e00000000000    00475168     BouncingBallMain.obj
 0002:0000f178       __real@4077700000000000    00475178     BouncingBallMain.obj
 0002:0000f188       __real@4079000000000000    00475188     BouncingBallMain.obj
 0002:0000f198       __real@4079a00000000000    00475198     BouncingBallMain.obj
 0002:0000f1a8       __real@407c200000000000    004751a8     BouncingBallMain.obj
 0002:0000f1b8       __real@407f400000000000    004751b8     BouncingBallMain.obj
 0002:0000f1c8       __real@4081300000000000    004751c8     BouncingBallMain.obj
 0002:0000f1d8       __real@4082c00000000000    004751d8     BouncingBallMain.obj
 0002:0000f1e8       __real@4084500000000000    004751e8     BouncingBallMain.obj
 0002:0000f1f8       __real@4087700000000000    004751f8     BouncingBallMain.obj
 0002:0000f63c       ??_7TimerObject@@6B@       0047563c     TimerObject.obj
 0002:0000fab4       ??_7Torch@@6B@             00475ab4     Torch.obj
 0002:0000ffb0       ??_7SimpleFlashingDragableImageObject@@6B@ 00475fb0     ZoomingDemo.obj
 0002:000105a0       ??_7MazeDemoTileManager@@6B@ 004765a0     MazeDemoMain.obj
 0002:000105b0       ??_7MazeDemoMain@@6BDisplayableObjectContainer@@@ 004765b0     MazeDemoMain.obj
 0002:0001065c       ??_7MazeDemoMain@@6BFilterPoints@@@ 0047665c     MazeDemoMain.obj
 0002:00010a90       ??_7MazeDemoObject@@6B@    00476a90     MazeDemoObject.obj
 0002:00010ee4       ??_C@_0DK@PCBCHJKC@D?3?2a?2_work?21?2s?2src?2vctools?2crt?2@ 00476ee4     msvcprtd:locale0_implib.obj
 0002:00011048       __real@7f800000            00477048     msvcprtd:vector_algorithms.obj
 0002:00011050       __real@7ff0000000000000    00477050     msvcprtd:vector_algorithms.obj
 0002:0001105c       __real@ff800000            0047705c     msvcprtd:vector_algorithms.obj
 0002:00011060       __real@fff0000000000000    00477060     msvcprtd:vector_algorithms.obj
 0002:00011070       __xmm@00000000000000000101010101010101 00477070     msvcprtd:vector_algorithms.obj
 0002:00011090       __xmm@00000000000000010000000000000001 00477090     msvcprtd:vector_algorithms.obj
 0002:000110b0       __xmm@00000000010101010202020203030303 004770b0     msvcprtd:vector_algorithms.obj
 0002:000110d0       __xmm@00000001000000010000000100000001 004770d0     msvcprtd:vector_algorithms.obj
 0002:000110f0       __xmm@00010001000100010001000100010001 004770f0     msvcprtd:vector_algorithms.obj
 0002:00011110       __xmm@00010002000400080010002000400080 00477110     msvcprtd:vector_algorithms.obj
 0002:00011130       __xmm@000102030405060708090a0b0c0d0e0f 00477130     msvcprtd:vector_algorithms.obj
 0002:00011150       __xmm@010003020504070609080b0a0d0c0f0e 00477150     msvcprtd:vector_algorithms.obj
 0002:00011170       __xmm@01010101010101010101010101010101 00477170     msvcprtd:vector_algorithms.obj
 0002:00011190       __xmm@01020408102040800102040810204080 00477190     msvcprtd:vector_algorithms.obj
 0002:000111b0       __xmm@0d0c0f0e09080b0a0504070601000302 004771b0     msvcprtd:vector_algorithms.obj
 0002:000111d0       __xmm@0e0f0c0d0a0b08090607040502030001 004771d0     msvcprtd:vector_algorithms.obj
 0002:000111f0       __xmm@ffffffffffffffffffffffffffffffff 004771f0     msvcprtd:vector_algorithms.obj
 0002:00011220       __ymm@0000000000000001000000020000000300000004000000050000000600000007 00477220     msvcprtd:vector_algorithms.obj
 0002:00011260       __ymm@0000000300000003000000020000000200000001000000010000000000000000 00477260     msvcprtd:vector_algorithms.obj
 0002:000112a0       __ymm@0000000700000006000000050000000400000003000000020000000100000000 004772a0     msvcprtd:vector_algorithms.obj
 0002:000112e0       __ymm@0001000200040008001000200040008000010002000400080010002000400080 004772e0     msvcprtd:vector_algorithms.obj
 0002:00011320       __ymm@000102030405060708090a0b0c0d0e0f000102030405060708090a0b0c0d0e0f 00477320     msvcprtd:vector_algorithms.obj
 0002:00011360       __ymm@010003020504070609080b0a0d0c0f0e010003020504070609080b0a0d0c0f0e 00477360     msvcprtd:vector_algorithms.obj
 0002:000113a0       __ymm@0102040810204080010204081020408001020408102040800102040810204080 004773a0     msvcprtd:vector_algorithms.obj
 0002:000113cc       ??_7type_info@@6B@         004773cc     MSVCRTD:std_type_info_static.obj
 0002:000113d4       ??_C@_0P@GHFPNOJB@bad?5allocation@ 004773d4     MSVCRTD:throw_bad_alloc.obj
 0002:000113f4       ??_C@_0BJ@HFNMHALN@Out?5of?5memory?5?9?5aborting@ 004773f4     SDL2main:SDL_windows_main.obj
 0002:00011414       ??_C@_0M@HFFOIJBL@Fatal?5Error@ 00477414     SDL2main:SDL_windows_main.obj
 0002:00011428       __load_config_used         00477428     MSVCRTD:loadcfg.obj
 0002:00011800       ___CastGuardVftablesStart  00477800     MSVCRTD:guard_support.obj
 0002:00011980       ___CastGuardVftablesEnd    00477980     MSVCRTD:guard_support.obj
 0002:00011acc       ??_R4?$basic_stringbuf@DU?$char_traits@D@std@@V?$allocator@D@2@@std@@6B@ 00477acc     BackgroundTileObject.obj
 0002:00011ae4       ??_R3?$basic_stringbuf@DU?$char_traits@D@std@@V?$allocator@D@2@@std@@8 00477ae4     BackgroundTileObject.obj
 0002:00011af8       ??_R2?$basic_stringbuf@DU?$char_traits@D@std@@V?$allocator@D@2@@std@@8 00477af8     BackgroundTileObject.obj
 0002:00011b04       ??_R1A@?0A@EA@?$basic_stringbuf@DU?$char_traits@D@std@@V?$allocator@D@2@@std@@8 00477b04     BackgroundTileObject.obj
 0002:00011b28       ??_R1A@?0A@EA@?$basic_streambuf@DU?$char_traits@D@std@@@std@@8 00477b28     BackgroundTileObject.obj
 0002:00011b4c       ??_R3?$basic_streambuf@DU?$char_traits@D@std@@@std@@8 00477b4c     BackgroundTileObject.obj
 0002:00011b60       ??_R2?$basic_streambuf@DU?$char_traits@D@std@@@std@@8 00477b60     BackgroundTileObject.obj
 0002:00011b68       ??_R4?$basic_stringstream@DU?$char_traits@D@std@@V?$allocator@D@2@@std@@6B@ 00477b68     BackgroundTileObject.obj
 0002:00011b80       ??_R3?$basic_stringstream@DU?$char_traits@D@std@@V?$allocator@D@2@@std@@8 00477b80     BackgroundTileObject.obj
 0002:00011b94       ??_R2?$basic_stringstream@DU?$char_traits@D@std@@V?$allocator@D@2@@std@@8 00477b94     BackgroundTileObject.obj
 0002:00011bc8       ??_R1A@?0A@EA@?$basic_stringstream@DU?$char_traits@D@std@@V?$allocator@D@2@@std@@8 00477bc8     BackgroundTileObject.obj
 0002:00011bec       ??_R1A@?0A@EA@?$basic_iostream@DU?$char_traits@D@std@@@std@@8 00477bec     BackgroundTileObject.obj
 0002:00011c10       ??_R3?$basic_iostream@DU?$char_traits@D@std@@@std@@8 00477c10     BackgroundTileObject.obj
 0002:00011c24       ??_R2?$basic_iostream@DU?$char_traits@D@std@@@std@@8 00477c24     BackgroundTileObject.obj
 0002:00011c50       ??_R1A@?0A@EA@?$basic_istream@DU?$char_traits@D@std@@@std@@8 00477c50     BackgroundTileObject.obj
 0002:00011c74       ??_R3?$basic_istream@DU?$char_traits@D@std@@@std@@8 00477c74     BackgroundTileObject.obj
 0002:00011c88       ??_R2?$basic_istream@DU?$char_traits@D@std@@@std@@8 00477c88     BackgroundTileObject.obj
 0002:00011c9c       ??_R1A@A@3FA@?$basic_ios@DU?$char_traits@D@std@@@std@@8 00477c9c     BackgroundTileObject.obj
 0002:00011cc0       ??_R3?$basic_ios@DU?$char_traits@D@std@@@std@@8 00477cc0     BackgroundTileObject.obj
 0002:00011cd4       ??_R2?$basic_ios@DU?$char_traits@D@std@@@std@@8 00477cd4     BackgroundTileObject.obj
 0002:00011ce4       ??_R1A@?0A@EA@?$basic_ios@DU?$char_traits@D@std@@@std@@8 00477ce4     BackgroundTileObject.obj
 0002:00011d08       ??_R1A@?0A@EA@ios_base@std@@8 00477d08     BackgroundTileObject.obj
 0002:00011d2c       ??_R3ios_base@std@@8       00477d2c     BackgroundTileObject.obj
 0002:00011d40       ??_R2ios_base@std@@8       00477d40     BackgroundTileObject.obj
 0002:00011d4c       ??_R17?0A@EA@?$_Iosb@H@std@@8 00477d4c     BackgroundTileObject.obj
 0002:00011d70       ??_R3?$_Iosb@H@std@@8      00477d70     BackgroundTileObject.obj
 0002:00011d84       ??_R2?$_Iosb@H@std@@8      00477d84     BackgroundTileObject.obj
 0002:00011d8c       ??_R1A@?0A@EA@?$_Iosb@H@std@@8 00477d8c     BackgroundTileObject.obj
 0002:00011db0       ??_R1A@A@3EA@ios_base@std@@8 00477db0     BackgroundTileObject.obj
 0002:00011dd4       ??_R17A@3EA@?$_Iosb@H@std@@8 00477dd4     BackgroundTileObject.obj
 0002:00011df8       ??_R1BA@?0A@EA@?$basic_ostream@DU?$char_traits@D@std@@@std@@8 00477df8     BackgroundTileObject.obj
 0002:00011e1c       ??_R3?$basic_ostream@DU?$char_traits@D@std@@@std@@8 00477e1c     BackgroundTileObject.obj
 0002:00011e30       ??_R2?$basic_ostream@DU?$char_traits@D@std@@@std@@8 00477e30     BackgroundTileObject.obj
 0002:00011e44       ??_R1A@?0A@EA@?$basic_ostream@DU?$char_traits@D@std@@@std@@8 00477e44     BackgroundTileObject.obj
 0002:00011e68       ??_R4?$basic_filebuf@DU?$char_traits@D@std@@@std@@6B@ 00477e68     BackgroundTileObject.obj
 0002:00011e80       ??_R3?$basic_filebuf@DU?$char_traits@D@std@@@std@@8 00477e80     BackgroundTileObject.obj
 0002:00011e94       ??_R2?$basic_filebuf@DU?$char_traits@D@std@@@std@@8 00477e94     BackgroundTileObject.obj
 0002:00011ea0       ??_R1A@?0A@EA@?$basic_filebuf@DU?$char_traits@D@std@@@std@@8 00477ea0     BackgroundTileObject.obj
 0002:00011ec4       ??_R4?$basic_ifstream@DU?$char_traits@D@std@@@std@@6B@ 00477ec4     BackgroundTileObject.obj
 0002:00011edc       ??_R3?$basic_ifstream@DU?$char_traits@D@std@@@std@@8 00477edc     BackgroundTileObject.obj
 0002:00011ef0       ??_R2?$basic_ifstream@DU?$char_traits@D@std@@@std@@8 00477ef0     BackgroundTileObject.obj
 0002:00011f0c       ??_R1A@?0A@EA@?$basic_ifstream@DU?$char_traits@D@std@@@std@@8 00477f0c     BackgroundTileObject.obj
 0002:00011f30       ??_R4exception@std@@6B@    00477f30     BackgroundTileObject.obj
 0002:00011f48       ??_R3exception@std@@8      00477f48     BackgroundTileObject.obj
 0002:00011f5c       ??_R2exception@std@@8      00477f5c     BackgroundTileObject.obj
 0002:00011f64       ??_R1A@?0A@EA@exception@std@@8 00477f64     BackgroundTileObject.obj
 0002:00011f88       ??_R4bad_array_new_length@std@@6B@ 00477f88     BackgroundTileObject.obj
 0002:00011fa0       ??_R3bad_array_new_length@std@@8 00477fa0     BackgroundTileObject.obj
 0002:00011fb4       ??_R2bad_array_new_length@std@@8 00477fb4     BackgroundTileObject.obj
 0002:00011fc4       ??_R1A@?0A@EA@bad_array_new_length@std@@8 00477fc4     BackgroundTileObject.obj
 0002:00011fe8       ??_R1A@?0A@EA@bad_alloc@std@@8 00477fe8     BackgroundTileObject.obj
 0002:0001200c       ??_R3bad_alloc@std@@8      0047800c     BackgroundTileObject.obj
 0002:00012020       ??_R2bad_alloc@std@@8      00478020     BackgroundTileObject.obj
 0002:0001202c       ??_R4bad_alloc@std@@6B@    0047802c     BackgroundTileObject.obj
 0002:00012044       ??_R4bad_cast@std@@6B@     00478044     BackgroundTileObject.obj
 0002:0001205c       ??_R3bad_cast@std@@8       0047805c     BackgroundTileObject.obj
 0002:00012070       ??_R2bad_cast@std@@8       00478070     BackgroundTileObject.obj
 0002:0001207c       ??_R1A@?0A@EA@bad_cast@std@@8 0047807c     BackgroundTileObject.obj
 0002:000120a0       ??_R3_Ref_count_base@std@@8 004780a0     BackgroundTileObject.obj
 0002:000120b4       ??_R2_Ref_count_base@std@@8 004780b4     BackgroundTileObject.obj
 0002:000120bc       ??_R1A@?0A@EA@_Ref_count_base@std@@8 004780bc     BackgroundTileObject.obj
 0002:000120e0       ??_R4TileManager@@6B@      004780e0     BackgroundTileObject.obj
 0002:000120f8       ??_R3TileManager@@8        004780f8     BackgroundTileObject.obj
 0002:0001210c       ??_R2TileManager@@8        0047810c     BackgroundTileObject.obj
 0002:00012114       ??_R1A@?0A@EA@TileManager@@8 00478114     BackgroundTileObject.obj
 0002:00012138       ??_R4BackgroundTileManager@@6B@ 00478138     BackgroundTileObject.obj
 0002:00012150       ??_R3BackgroundTileManager@@8 00478150     BackgroundTileObject.obj
 0002:00012164       ??_R2BackgroundTileManager@@8 00478164     BackgroundTileObject.obj
 0002:00012170       ??_R1A@?0A@EA@BackgroundTileManager@@8 00478170     BackgroundTileObject.obj
 0002:00012194       ??_R4BackgroundTileObject@@6B@ 00478194     BackgroundTileObject.obj
 0002:000121ac       ??_R3BackgroundTileObject@@8 004781ac     BackgroundTileObject.obj
 0002:000121c0       ??_R2BackgroundTileObject@@8 004781c0     BackgroundTileObject.obj
 0002:000121d0       ??_R1A@?0A@EA@BackgroundTileObject@@8 004781d0     BackgroundTileObject.obj
 0002:000121f4       ??_R1A@?0A@EA@BaseEntity@@8 004781f4     BackgroundTileObject.obj
 0002:00012218       ??_R3BaseEntity@@8         00478218     BackgroundTileObject.obj
 0002:0001222c       ??_R2BaseEntity@@8         0047822c     BackgroundTileObject.obj
 0002:00012238       ??_R1A@?0A@EA@DisplayableObject@@8 00478238     BackgroundTileObject.obj
 0002:0001225c       ??_R3DisplayableObject@@8  0047825c     BackgroundTileObject.obj
 0002:00012270       ??_R2DisplayableObject@@8  00478270     BackgroundTileObject.obj
 0002:00012278       ??_R4BaseEntity@@6B@       00478278     BackgroundTileObject.obj
 0002:00012290       ??_R4?$_Ref_count@VRawImageData@@@std@@6B@ 00478290     BackgroundTileObject.obj
 0002:000122a8       ??_R3?$_Ref_count@VRawImageData@@@std@@8 004782a8     BackgroundTileObject.obj
 0002:000122bc       ??_R2?$_Ref_count@VRawImageData@@@std@@8 004782bc     BackgroundTileObject.obj
 0002:000122c8       ??_R1A@?0A@EA@?$_Ref_count@VRawImageData@@@std@@8 004782c8     BackgroundTileObject.obj
 0002:000122ec       ??_R4BaseButton@@6B@       004782ec     BaseButton.obj
 0002:00012304       ??_R3BaseButton@@8         00478304     BaseButton.obj
 0002:00012318       ??_R2BaseButton@@8         00478318     BaseButton.obj
 0002:00012324       ??_R1A@?0A@EA@BaseButton@@8 00478324     BaseButton.obj
 0002:00012348       ??_R4BaseDisplay@@6B@      00478348     BaseDisplay.obj
 0002:00012360       ??_R3BaseDisplay@@8        00478360     BaseDisplay.obj
 0002:00012374       ??_R2BaseDisplay@@8        00478374     BaseDisplay.obj
 0002:00012380       ??_R1A@?0A@EA@BaseDisplay@@8 00478380     BaseDisplay.obj
 0002:000123a4       ??_R4ImagePixelMapping@@6B@ 004783a4     BaseEntity.obj
 0002:000123bc       ??_R3ImagePixelMapping@@8  004783bc     BaseEntity.obj
 0002:000123d0       ??_R2ImagePixelMapping@@8  004783d0     BaseEntity.obj
 0002:000123d8       ??_R1A@?0A@EA@ImagePixelMapping@@8 004783d8     BaseEntity.obj
 0002:000123fc       ??_R4ImagePixelMappingShiftXY@@6B@ 004783fc     BaseEntity.obj
 0002:00012414       ??_R3ImagePixelMappingShiftXY@@8 00478414     BaseEntity.obj
 0002:00012428       ??_R2ImagePixelMappingShiftXY@@8 00478428     BaseEntity.obj
 0002:00012434       ??_R1A@?0A@EA@ImagePixelMappingShiftXY@@8 00478434     BaseEntity.obj
 0002:00012458       ??_R4MirrorImagePixelMapping@@6B@ 00478458     BaseEntity.obj
 0002:00012470       ??_R3MirrorImagePixelMapping@@8 00478470     BaseEntity.obj
 0002:00012484       ??_R2MirrorImagePixelMapping@@8 00478484     BaseEntity.obj
 0002:00012494       ??_R1A@?0A@EA@MirrorImagePixelMapping@@8 00478494     BaseEntity.obj
 0002:000124b8       ??_R4BaseEnemy@@6B@        004784b8     BaseEnemy.obj
 0002:000124d0       ??_R3BaseEnemy@@8          004784d0     BaseEnemy.obj
 0002:000124e4       ??_R2BaseEnemy@@8          004784e4     BaseEnemy.obj
 0002:000124f4       ??_R1A@?0A@EA@BaseEnemy@@8 004784f4     BaseEnemy.obj
 0002:00012518       ??_R4ImagePixelMappingRotate@@6B@ 00478518     BaseRangedAttack.obj
 0002:00012530       ??_R3ImagePixelMappingRotate@@8 00478530     BaseRangedAttack.obj
 0002:00012544       ??_R2ImagePixelMappingRotate@@8 00478544     BaseRangedAttack.obj
 0002:00012550       ??_R1A@?0A@EA@ImagePixelMappingRotate@@8 00478550     BaseRangedAttack.obj
 0002:00012574       ??_R4RotateAndShiftXYImagePixelMapping@@6B@ 00478574     BaseRangedAttack.obj
 0002:0001258c       ??_R3RotateAndShiftXYImagePixelMapping@@8 0047858c     BaseRangedAttack.obj
 0002:000125a0       ??_R2RotateAndShiftXYImagePixelMapping@@8 004785a0     BaseRangedAttack.obj
 0002:000125b0       ??_R1A@?0A@EA@RotateAndShiftXYImagePixelMapping@@8 004785b0     BaseRangedAttack.obj
 0002:000125d4       ??_R4BaseRangedAttack@@6B@ 004785d4     BaseRangedAttack.obj
 0002:000125ec       ??_R3BaseRangedAttack@@8   004785ec     BaseRangedAttack.obj
 0002:00012600       ??_R2BaseRangedAttack@@8   00478600     BaseRangedAttack.obj
 0002:00012610       ??_R1A@?0A@EA@BaseRangedAttack@@8 00478610     BaseRangedAttack.obj
 0002:00012634       ??_R4BaseStateManager@@6B@ 00478634     BaseStateManager.obj
 0002:0001264c       ??_R3BaseStateManager@@8   0047864c     BaseStateManager.obj
 0002:00012660       ??_R2BaseStateManager@@8   00478660     BaseStateManager.obj
 0002:00012668       ??_R1A@?0A@EA@BaseStateManager@@8 00478668     BaseStateManager.obj
 0002:0001268c       ??_R4StartState@@6B@       0047868c     BaseStateManager.obj
 0002:000126a4       ??_R3StartState@@8         004786a4     BaseStateManager.obj
 0002:000126b8       ??_R2StartState@@8         004786b8     BaseStateManager.obj
 0002:000126c4       ??_R1A@?0A@EA@StartState@@8 004786c4     BaseStateManager.obj
 0002:000126e8       ??_R4RunningState@@6B@     004786e8     BaseStateManager.obj
 0002:00012700       ??_R3RunningState@@8       00478700     BaseStateManager.obj
 0002:00012714       ??_R2RunningState@@8       00478714     BaseStateManager.obj
 0002:00012720       ??_R1A@?0A@EA@RunningState@@8 00478720     BaseStateManager.obj
 0002:00012744       ??_R4PausedState@@6B@      00478744     BaseStateManager.obj
 0002:0001275c       ??_R3PausedState@@8        0047875c     BaseStateManager.obj
 0002:00012770       ??_R2PausedState@@8        00478770     BaseStateManager.obj
 0002:0001277c       ??_R1A@?0A@EA@PausedState@@8 0047877c     BaseStateManager.obj
 0002:000127a0       ??_R4EndState@@6B@         004787a0     BaseStateManager.obj
 0002:000127b8       ??_R3EndState@@8           004787b8     BaseStateManager.obj
 0002:000127cc       ??_R2EndState@@8           004787cc     BaseStateManager.obj
 0002:000127d8       ??_R1A@?0A@EA@EndState@@8  004787d8     BaseStateManager.obj
 0002:000127fc       ??_R4ScoreState@@6B@       004787fc     BaseStateManager.obj
 0002:00012814       ??_R3ScoreState@@8         00478814     BaseStateManager.obj
 0002:00012828       ??_R2ScoreState@@8         00478828     BaseStateManager.obj
 0002:00012834       ??_R1A@?0A@EA@ScoreState@@8 00478834     BaseStateManager.obj
 0002:00012858       ??_R4OptionsState@@6B@     00478858     BaseStateManager.obj
 0002:00012870       ??_R3OptionsState@@8       00478870     BaseStateManager.obj
 0002:00012884       ??_R2OptionsState@@8       00478884     BaseStateManager.obj
 0002:00012890       ??_R1A@?0A@EA@OptionsState@@8 00478890     BaseStateManager.obj
 0002:000128b4       ??_R4Overlay@@6B@          004788b4     Overlay.obj
 0002:000128cc       ??_R3Overlay@@8            004788cc     Overlay.obj
 0002:000128e0       ??_R2Overlay@@8            004788e0     Overlay.obj
 0002:000128ec       ??_R1A@?0A@EA@Overlay@@8   004788ec     Overlay.obj
 0002:00012910       ??_R4PauseDisplay@@6B@     00478910     PauseDisplay.obj
 0002:00012928       ??_R3PauseDisplay@@8       00478928     PauseDisplay.obj
 0002:0001293c       ??_R2PauseDisplay@@8       0047893c     PauseDisplay.obj
 0002:0001294c       ??_R1A@?0A@EA@PauseDisplay@@8 0047894c     PauseDisplay.obj
 0002:00012970       ??_R4RatMage@@6B@          00478970     RatMage.obj
 0002:00012988       ??_R3RatMage@@8            00478988     RatMage.obj
 0002:0001299c       ??_R2RatMage@@8            0047899c     RatMage.obj
 0002:000129b0       ??_R1A@?0A@EA@RatMage@@8   004789b0     RatMage.obj
 0002:000129d4       ??_R4StartDisplay@@6B@     004789d4     StartDisplay.obj
 0002:000129ec       ??_R3StartDisplay@@8       004789ec     StartDisplay.obj
 0002:00012a00       ??_R2StartDisplay@@8       00478a00     StartDisplay.obj
 0002:00012a10       ??_R1A@?0A@EA@StartDisplay@@8 00478a10     StartDisplay.obj
 0002:00012a34       ??_R4SubmitButton@@6B@     00478a34     SubmitButton.obj
 0002:00012a4c       ??_R3SubmitButton@@8       00478a4c     SubmitButton.obj
 0002:00012a60       ??_R2SubmitButton@@8       00478a60     SubmitButton.obj
 0002:00012a70       ??_R1A@?0A@EA@SubmitButton@@8 00478a70     SubmitButton.obj
 0002:00012a94       ??_R4ChaseObject@@6B@      00478a94     ChaseObject.obj
 0002:00012aac       ??_R3ChaseObject@@8        00478aac     ChaseObject.obj
 0002:00012ac0       ??_R2ChaseObject@@8        00478ac0     ChaseObject.obj
 0002:00012acc       ??_R1A@?0A@EA@ChaseObject@@8 00478acc     ChaseObject.obj
 0002:00012af0       ??_R4DragableBaseClassObject@@6B@ 00478af0     DraggingDemo.obj
 0002:00012b08       ??_R3DragableBaseClassObject@@8 00478b08     DraggingDemo.obj
 0002:00012b1c       ??_R2DragableBaseClassObject@@8 00478b1c     DraggingDemo.obj
 0002:00012b28       ??_R1A@?0A@EA@DragableBaseClassObject@@8 00478b28     DraggingDemo.obj
 0002:00012b4c       ??_R4DragableObject@@6B@   00478b4c     DraggingDemo.obj
 0002:00012b64       ??_R3DragableObject@@8     00478b64     DraggingDemo.obj
 0002:00012b78       ??_R2DragableObject@@8     00478b78     DraggingDemo.obj
 0002:00012b88       ??_R1A@?0A@EA@DragableObject@@8 00478b88     DraggingDemo.obj
 0002:00012bac       ??_R4DragableImageObject@@6B@ 00478bac     DraggingDemo.obj
 0002:00012bc4       ??_R3DragableImageObject@@8 00478bc4     DraggingDemo.obj
 0002:00012bd8       ??_R2DragableImageObject@@8 00478bd8     DraggingDemo.obj
 0002:00012be8       ??_R1A@?0A@EA@DragableImageObject@@8 00478be8     DraggingDemo.obj
 0002:00012c0c       ??_R4ImageObject@@6B@      00478c0c     DraggingDemo.obj
 0002:00012c24       ??_R3ImageObject@@8        00478c24     DraggingDemo.obj
 0002:00012c38       ??_R2ImageObject@@8        00478c38     DraggingDemo.obj
 0002:00012c44       ??_R1A@?0A@EA@ImageObject@@8 00478c44     DraggingDemo.obj
 0002:00012c68       ??_R4?$basic_istringstream@DU?$char_traits@D@std@@V?$allocator@D@2@@std@@6B@ 00478c68     EndDisplay.obj
 0002:00012c80       ??_R3?$basic_istringstream@DU?$char_traits@D@std@@V?$allocator@D@2@@std@@8 00478c80     EndDisplay.obj
 0002:00012c94       ??_R2?$basic_istringstream@DU?$char_traits@D@std@@V?$allocator@D@2@@std@@8 00478c94     EndDisplay.obj
 0002:00012cb0       ??_R1A@?0A@EA@?$basic_istringstream@DU?$char_traits@D@std@@V?$allocator@D@2@@std@@8 00478cb0     EndDisplay.obj
 0002:00012cd4       ??_R4?$basic_ofstream@DU?$char_traits@D@std@@@std@@6B@ 00478cd4     EndDisplay.obj
 0002:00012cec       ??_R3?$basic_ofstream@DU?$char_traits@D@std@@@std@@8 00478cec     EndDisplay.obj
 0002:00012d00       ??_R2?$basic_ofstream@DU?$char_traits@D@std@@@std@@8 00478d00     EndDisplay.obj
 0002:00012d1c       ??_R1A@?0A@EA@?$basic_ofstream@DU?$char_traits@D@std@@@std@@8 00478d1c     EndDisplay.obj
 0002:00012d40       ??_R4?$basic_fstream@DU?$char_traits@D@std@@@std@@6B@ 00478d40     EndDisplay.obj
 0002:00012d58       ??_R3?$basic_fstream@DU?$char_traits@D@std@@@std@@8 00478d58     EndDisplay.obj
 0002:00012d6c       ??_R2?$basic_fstream@DU?$char_traits@D@std@@@std@@8 00478d6c     EndDisplay.obj
 0002:00012da0       ??_R1A@?0A@EA@?$basic_fstream@DU?$char_traits@D@std@@@std@@8 00478da0     EndDisplay.obj
 0002:00012dc4       ??_R4EndDisplay@@6B@       00478dc4     EndDisplay.obj
 0002:00012ddc       ??_R3EndDisplay@@8         00478ddc     EndDisplay.obj
 0002:00012df0       ??_R2EndDisplay@@8         00478df0     EndDisplay.obj
 0002:00012e00       ??_R1A@?0A@EA@EndDisplay@@8 00478e00     EndDisplay.obj
 0002:00012e24       ??_R4ScoreDisplay@@6B@     00478e24     ScoreDisplay.obj
 0002:00012e3c       ??_R3ScoreDisplay@@8       00478e3c     ScoreDisplay.obj
 0002:00012e50       ??_R2ScoreDisplay@@8       00478e50     ScoreDisplay.obj
 0002:00012e60       ??_R1A@?0A@EA@ScoreDisplay@@8 00478e60     ScoreDisplay.obj
 0002:00012e84       ??_R4ExitButton@@6B@       00478e84     SimpleButtons.obj
 0002:00012e9c       ??_R3ExitButton@@8         00478e9c     SimpleButtons.obj
 0002:00012eb0       ??_R2ExitButton@@8         00478eb0     SimpleButtons.obj
 0002:00012ec0       ??_R1A@?0A@EA@ExitButton@@8 00478ec0     SimpleButtons.obj
 0002:00012ee4       ??_R4BackButton@@6B@       00478ee4     SimpleButtons.obj
 0002:00012efc       ??_R3BackButton@@8         00478efc     SimpleButtons.obj
 0002:00012f10       ??_R2BackButton@@8         00478f10     SimpleButtons.obj
 0002:00012f20       ??_R1A@?0A@EA@BackButton@@8 00478f20     SimpleButtons.obj
 0002:00012f44       ??_R4SwitchButton@@6B@     00478f44     SimpleButtons.obj
 0002:00012f5c       ??_R3SwitchButton@@8       00478f5c     SimpleButtons.obj
 0002:00012f70       ??_R2SwitchButton@@8       00478f70     SimpleButtons.obj
 0002:00012f80       ??_R1A@?0A@EA@SwitchButton@@8 00478f80     SimpleButtons.obj
 0002:00012fa4       ??_R4Fireball@@6B@         00478fa4     Fireball.obj
 0002:00012fbc       ??_R3Fireball@@8           00478fbc     Fireball.obj
 0002:00012fd0       ??_R2Fireball@@8           00478fd0     Fireball.obj
 0002:00012fe4       ??_R1A@?0A@EA@Fireball@@8  00478fe4     Fireball.obj
 0002:00013008       ??_R3DisplayableObjectContainer@@8 00479008     FlashingDemo.obj
 0002:0001301c       ??_R2DisplayableObjectContainer@@8 0047901c     FlashingDemo.obj
 0002:00013024       ??_R1A@?0A@EA@DisplayableObjectContainer@@8 00479024     FlashingDemo.obj
 0002:00013048       ??_R4FlashingDemo@@6BDisplayableObjectContainer@@@ 00479048     FlashingDemo.obj
 0002:00013060       ??_R3FlashingDemo@@8       00479060     FlashingDemo.obj
 0002:00013074       ??_R2FlashingDemo@@8       00479074     FlashingDemo.obj
 0002:00013088       ??_R1A@?0A@EA@FlashingDemo@@8 00479088     FlashingDemo.obj
 0002:000130ac       ??_R1A@?0A@EA@BaseEngine@@8 004790ac     FlashingDemo.obj
 0002:000130d0       ??_R3BaseEngine@@8         004790d0     FlashingDemo.obj
 0002:000130e4       ??_R2BaseEngine@@8         004790e4     FlashingDemo.obj
 0002:000130f4       ??_R1BM@?0A@EA@FilterPoints@@8 004790f4     FlashingDemo.obj
 0002:00013118       ??_R3FilterPoints@@8       00479118     FlashingDemo.obj
 0002:0001312c       ??_R2FilterPoints@@8       0047912c     FlashingDemo.obj
 0002:00013134       ??_R1A@?0A@EA@FilterPoints@@8 00479134     FlashingDemo.obj
 0002:00013158       ??_R4FlashingDemo@@6BFilterPoints@@@ 00479158     FlashingDemo.obj
 0002:00013170       ??_R4DisplayableObjectContainer@@6B@ 00479170     GameManager.obj
 0002:00013188       ??_R4GameManager@@6B@      00479188     GameManager.obj
 0002:000131a0       ??_R3GameManager@@8        004791a0     GameManager.obj
 0002:000131b4       ??_R2GameManager@@8        004791b4     GameManager.obj
 0002:000131c0       ??_R1A@?0A@EA@GameManager@@8 004791c0     GameManager.obj
 0002:000131e4       ??_R4MappableImageObject@@6B@ 004791e4     ImageMappingDemo.obj
 0002:000131fc       ??_R3MappableImageObject@@8 004791fc     ImageMappingDemo.obj
 0002:00013210       ??_R2MappableImageObject@@8 00479210     ImageMappingDemo.obj
 0002:00013224       ??_R1A@?0A@EA@MappableImageObject@@8 00479224     ImageMappingDemo.obj
 0002:00013248       ??_R4GameEngine@@6BDisplayableObjectContainer@@@ 00479248     mainfunction.obj
 0002:00013260       ??_R3GameEngine@@8         00479260     mainfunction.obj
 0002:00013274       ??_R2GameEngine@@8         00479274     mainfunction.obj
 0002:00013288       ??_R1A@?0A@EA@GameEngine@@8 00479288     mainfunction.obj
 0002:000132ac       ??_R4GameEngine@@6BFilterPoints@@@ 004792ac     mainfunction.obj
 0002:000132c4       ??_R4BaseEngine@@6BDisplayableObjectContainer@@@ 004792c4     BaseEngine.obj
 0002:000132dc       ??_R4BaseEngine@@6BFilterPoints@@@ 004792dc     BaseEngine.obj
 0002:000132f4       ??_R4FilterPoints@@6B@     004792f4     BaseEngine.obj
 0002:0001330c       ??_R4DisplayableObject@@6B@ 0047930c     DisplayableObject.obj
 0002:00013324       ??_R4MouseObject@@6B@      00479324     MouseObject.obj
 0002:0001333c       ??_R3MouseObject@@8        0047933c     MouseObject.obj
 0002:00013350       ??_R2MouseObject@@8        00479350     MouseObject.obj
 0002:0001335c       ??_R1A@?0A@EA@MouseObject@@8 0047935c     MouseObject.obj
 0002:00013380       ??_R4MyObjectB@@6B@        00479380     MyDemoA.obj
 0002:00013398       ??_R3MyObjectB@@8          00479398     MyDemoA.obj
 0002:000133ac       ??_R2MyObjectB@@8          004793ac     MyDemoA.obj
 0002:000133b8       ??_R1A@?0A@EA@MyObjectB@@8 004793b8     MyDemoA.obj
 0002:000133dc       ??_R4PlayerObject@@6B@     004793dc     PlayerObject.obj
 0002:000133f4       ??_R3PlayerObject@@8       004793f4     PlayerObject.obj
 0002:00013408       ??_R2PlayerObject@@8       00479408     PlayerObject.obj
 0002:00013414       ??_R1A@?0A@EA@PlayerObject@@8 00479414     PlayerObject.obj
 0002:00013438       ??_R4RatWarrior@@6B@       00479438     RatWarrior.obj
 0002:00013450       ??_R3RatWarrior@@8         00479450     RatWarrior.obj
 0002:00013464       ??_R2RatWarrior@@8         00479464     RatWarrior.obj
 0002:00013478       ??_R1A@?0A@EA@RatWarrior@@8 00479478     RatWarrior.obj
 0002:0001349c       ??_R4CroppedImagePixelMapping@@6B@ 0047949c     SimpleImage.obj
 0002:000134b4       ??_R3CroppedImagePixelMapping@@8 004794b4     SimpleImage.obj
 0002:000134c8       ??_R2CroppedImagePixelMapping@@8 004794c8     SimpleImage.obj
 0002:000134d4       ??_R1A@?0A@EA@CroppedImagePixelMapping@@8 004794d4     SimpleImage.obj
 0002:000134f8       ??_R4BouncingObject@@6B@   004794f8     SimpleDemo.obj
 0002:00013510       ??_R3BouncingObject@@8     00479510     SimpleDemo.obj
 0002:00013524       ??_R2BouncingObject@@8     00479524     SimpleDemo.obj
 0002:00013530       ??_R1A@?0A@EA@BouncingObject@@8 00479530     SimpleDemo.obj
 0002:00013554       ??_R4StarfieldDemo@@6BDisplayableObjectContainer@@@ 00479554     StarfieldDemo.obj
 0002:0001356c       ??_R3StarfieldDemo@@8      0047956c     StarfieldDemo.obj
 0002:00013580       ??_R2StarfieldDemo@@8      00479580     StarfieldDemo.obj
 0002:00013594       ??_R1A@?0A@EA@StarfieldDemo@@8 00479594     StarfieldDemo.obj
 0002:000135b8       ??_R4StarfieldDemo@@6BFilterPoints@@@ 004795b8     StarfieldDemo.obj
 0002:000135d0       ??_R4BouncingBall@@6B@     004795d0     BouncingBall.obj
 0002:000135e8       ??_R3BouncingBall@@8       004795e8     BouncingBall.obj
 0002:000135fc       ??_R2BouncingBall@@8       004795fc     BouncingBall.obj
 0002:00013608       ??_R1A@?0A@EA@BouncingBall@@8 00479608     BouncingBall.obj
 0002:0001362c       ??_R4BouncingBall1@@6B@    0047962c     BouncingBall.obj
 0002:00013644       ??_R3BouncingBall1@@8      00479644     BouncingBall.obj
 0002:00013658       ??_R2BouncingBall1@@8      00479658     BouncingBall.obj
 0002:00013668       ??_R1A@?0A@EA@BouncingBall1@@8 00479668     BouncingBall.obj
 0002:0001368c       ??_R4BouncingBall2@@6B@    0047968c     BouncingBall.obj
 0002:000136a4       ??_R3BouncingBall2@@8      004796a4     BouncingBall.obj
 0002:000136b8       ??_R2BouncingBall2@@8      004796b8     BouncingBall.obj
 0002:000136c8       ??_R1A@?0A@EA@BouncingBall2@@8 004796c8     BouncingBall.obj
 0002:000136ec       ??_R4TimerObject@@6B@      004796ec     TimerObject.obj
 0002:00013704       ??_R3TimerObject@@8        00479704     TimerObject.obj
 0002:00013718       ??_R2TimerObject@@8        00479718     TimerObject.obj
 0002:00013724       ??_R1A@?0A@EA@TimerObject@@8 00479724     TimerObject.obj
 0002:00013748       ??_R4Torch@@6B@            00479748     Torch.obj
 0002:00013760       ??_R3Torch@@8              00479760     Torch.obj
 0002:00013774       ??_R2Torch@@8              00479774     Torch.obj
 0002:00013780       ??_R1A@?0A@EA@Torch@@8     00479780     Torch.obj
 0002:000137a4       ??_R4SimpleFlashingDragableImageObject@@6B@ 004797a4     ZoomingDemo.obj
 0002:000137bc       ??_R3SimpleFlashingDragableImageObject@@8 004797bc     ZoomingDemo.obj
 0002:000137d0       ??_R2SimpleFlashingDragableImageObject@@8 004797d0     ZoomingDemo.obj
 0002:000137dc       ??_R1A@?0A@EA@SimpleFlashingDragableImageObject@@8 004797dc     ZoomingDemo.obj
 0002:00013800       ??_R4MazeDemoMain@@6BDisplayableObjectContainer@@@ 00479800     MazeDemoMain.obj
 0002:00013818       ??_R3MazeDemoMain@@8       00479818     MazeDemoMain.obj
 0002:0001382c       ??_R2MazeDemoMain@@8       0047982c     MazeDemoMain.obj
 0002:00013840       ??_R1A@?0A@EA@MazeDemoMain@@8 00479840     MazeDemoMain.obj
 0002:00013864       ??_R4MazeDemoMain@@6BFilterPoints@@@ 00479864     MazeDemoMain.obj
 0002:0001387c       ??_R4MazeDemoTileManager@@6B@ 0047987c     MazeDemoMain.obj
 0002:00013894       ??_R3MazeDemoTileManager@@8 00479894     MazeDemoMain.obj
 0002:000138a8       ??_R2MazeDemoTileManager@@8 004798a8     MazeDemoMain.obj
 0002:000138b4       ??_R1A@?0A@EA@MazeDemoTileManager@@8 004798b4     MazeDemoMain.obj
 0002:000138d8       ??_R4MazeDemoObject@@6B@   004798d8     MazeDemoObject.obj
 0002:000138f0       ??_R3MazeDemoObject@@8     004798f0     MazeDemoObject.obj
 0002:00013904       ??_R2MazeDemoObject@@8     00479904     MazeDemoObject.obj
 0002:00013910       ??_R1A@?0A@EA@MazeDemoObject@@8 00479910     MazeDemoObject.obj
 0002:00013934       ??_R4type_info@@6B@        00479934     MSVCRTD:std_type_info_static.obj
 0002:0001394c       ??_R3type_info@@8          0047994c     MSVCRTD:std_type_info_static.obj
 0002:00013960       ??_R2type_info@@8          00479960     MSVCRTD:std_type_info_static.obj
 0002:00013968       ??_R1A@?0A@EA@type_info@@8 00479968     MSVCRTD:std_type_info_static.obj
 0002:00013b58       ___safe_se_handler_table   00479b58     <linker-defined>
 0002:000141e4       ___rtc_iaa                 0047a1e4     MSVCRTD:initsect.obj
 0002:000142e8       ___rtc_izz                 0047a2e8     MSVCRTD:initsect.obj
 0002:000143ec       ___rtc_taa                 0047a3ec     MSVCRTD:initsect.obj
 0002:000144f0       ___rtc_tzz                 0047a4f0     MSVCRTD:initsect.obj
 0002:000153a0       __CT??_R0?AVexception@std@@@8??0exception@std@@QAE@ABV01@@Z12 0047b3a0     BackgroundTileObject.obj
 0002:000153c0       __TI3?AVbad_array_new_length@std@@ 0047b3c0     BackgroundTileObject.obj
 0002:000153d4       __CTA3?AVbad_array_new_length@std@@ 0047b3d4     BackgroundTileObject.obj
 0002:000153e8       __CT??_R0?AVbad_array_new_length@std@@@8??0bad_array_new_length@std@@QAE@ABV01@@Z12 0047b3e8     BackgroundTileObject.obj
 0002:00015408       __CT??_R0?AVbad_alloc@std@@@8??0bad_alloc@std@@QAE@ABV01@@Z12 0047b408     BackgroundTileObject.obj
 0002:00015428       __TI2?AVbad_cast@std@@     0047b428     BackgroundTileObject.obj
 0002:0001543c       __CTA2?AVbad_cast@std@@    0047b43c     BackgroundTileObject.obj
 0002:0001544c       __CT??_R0?AVbad_cast@std@@@8??0bad_cast@std@@QAE@ABV01@@Z12 0047b44c     BackgroundTileObject.obj
 0002:000171b8       __TI2?AVbad_alloc@std@@    0047d1b8     MSVCRTD:throw_bad_alloc.obj
 0002:000171cc       __CTA2?AVbad_alloc@std@@   0047d1cc     MSVCRTD:throw_bad_alloc.obj
 0003:00000040       ___security_cookie         0047e040     MSVCRTD:gs_cookie.obj
 0003:00000080       ___security_cookie_complement 0047e080     MSVCRTD:gs_cookie.obj
 0003:00000094       __fltused                  0047e094     MSVCRTD:fltused.obj
 0003:000000a0       ___scrt_native_dllmain_reason 0047e0a0     MSVCRTD:utility.obj
 0003:000000a8       ___isa_inverted            0047e0a8     MSVCRTD:cpu_disp.obj
 0003:000000b0       ___isa_enabled             0047e0b0     MSVCRTD:cpu_disp.obj
 0003:000000b8       ___scrt_default_matherr    0047e0b8     MSVCRTD:matherr.obj
 0003:000000bc       ___scrt_ucrt_dll_is_in_use 0047e0bc     MSVCRTD:ucrt_stubs.obj
 0003:000001d4       ??_R0?AVexception@std@@@8  0047e1d4     BackgroundTileObject.obj
 0003:000001f8       ??_R0?AVbad_array_new_length@std@@@8 0047e1f8     BackgroundTileObject.obj
 0003:00000228       ??_R0?AVbad_alloc@std@@@8  0047e228     BackgroundTileObject.obj
 0003:0000024c       ??_R0?AVbad_cast@std@@@8   0047e24c     BackgroundTileObject.obj
 0003:00000370       ??_R0?AV?$basic_stringbuf@DU?$char_traits@D@std@@V?$allocator@D@2@@std@@@8 0047e370     BackgroundTileObject.obj
 0003:000003cc       ??_R0?AV?$basic_streambuf@DU?$char_traits@D@std@@@std@@@8 0047e3cc     BackgroundTileObject.obj
 0003:00000418       ??_R0?AV?$basic_stringstream@DU?$char_traits@D@std@@V?$allocator@D@2@@std@@@8 0047e418     BackgroundTileObject.obj
 0003:00000478       ??_R0?AV?$basic_iostream@DU?$char_traits@D@std@@@std@@@8 0047e478     BackgroundTileObject.obj
 0003:000004c0       ??_R0?AV?$basic_istream@DU?$char_traits@D@std@@@std@@@8 0047e4c0     BackgroundTileObject.obj
 0003:00000508       ??_R0?AV?$basic_ios@DU?$char_traits@D@std@@@std@@@8 0047e508     BackgroundTileObject.obj
 0003:00000548       ??_R0?AVios_base@std@@@8   0047e548     BackgroundTileObject.obj
 0003:00000568       ??_R0?AV?$_Iosb@H@std@@@8  0047e568     BackgroundTileObject.obj
 0003:0000058c       ??_R0?AV?$basic_ostream@DU?$char_traits@D@std@@@std@@@8 0047e58c     BackgroundTileObject.obj
 0003:000005d4       ??_R0?AV?$basic_filebuf@DU?$char_traits@D@std@@@std@@@8 0047e5d4     BackgroundTileObject.obj
 0003:0000061c       ??_R0?AV?$basic_ifstream@DU?$char_traits@D@std@@@std@@@8 0047e61c     BackgroundTileObject.obj
 0003:00000664       ??_R0?AV_Ref_count_base@std@@@8 0047e664     BackgroundTileObject.obj
 0003:0000068c       ??_R0?AVTileManager@@@8    0047e68c     BackgroundTileObject.obj
 0003:000006ac       ??_R0?AVBackgroundTileManager@@@8 0047e6ac     BackgroundTileObject.obj
 0003:000006d8       ??_R0?AVBackgroundTileObject@@@8 0047e6d8     BackgroundTileObject.obj
 0003:00000704       ??_R0?AVBaseEntity@@@8     0047e704     BackgroundTileObject.obj
 0003:00000724       ??_R0?AVDisplayableObject@@@8 0047e724     BackgroundTileObject.obj
 0003:0000074c       ??_R0?AV?$_Ref_count@VRawImageData@@@std@@@8 0047e74c     BackgroundTileObject.obj
 0003:00000784       ??_R0?AVBaseButton@@@8     0047e784     BaseButton.obj
 0003:000007a4       ??_R0?AVBaseDisplay@@@8    0047e7a4     BaseDisplay.obj
 0003:000007c4       ??_R0?AVImagePixelMapping@@@8 0047e7c4     BaseEntity.obj
 0003:000007ec       ??_R0?AVImagePixelMappingShiftXY@@@8 0047e7ec     BaseEntity.obj
 0003:0000081c       ??_R0?AVMirrorImagePixelMapping@@@8 0047e81c     BaseEntity.obj
 0003:0000084c       ??_R0?AVBaseEnemy@@@8      0047e84c     BaseEnemy.obj
 0003:00000868       ??_R0?AVImagePixelMappingRotate@@@8 0047e868     BaseRangedAttack.obj
 0003:00000898       ??_R0?AVRotateAndShiftXYImagePixelMapping@@@8 0047e898     BaseRangedAttack.obj
 0003:000008d4       ??_R0?AVBaseRangedAttack@@@8 0047e8d4     BaseRangedAttack.obj
 0003:000008fc       ??_R0?AVBaseStateManager@@@8 0047e8fc     BaseStateManager.obj
 0003:00000924       ??_R0?AVStartState@@@8     0047e924     BaseStateManager.obj
 0003:00000944       ??_R0?AVRunningState@@@8   0047e944     BaseStateManager.obj
 0003:00000964       ??_R0?AVPausedState@@@8    0047e964     BaseStateManager.obj
 0003:00000984       ??_R0?AVEndState@@@8       0047e984     BaseStateManager.obj
 0003:000009a0       ??_R0?AVScoreState@@@8     0047e9a0     BaseStateManager.obj
 0003:000009c0       ??_R0?AVOptionsState@@@8   0047e9c0     BaseStateManager.obj
 0003:000009e0       ??_R0?AVOverlay@@@8        0047e9e0     Overlay.obj
 0003:000009fc       ??_R0?AVPauseDisplay@@@8   0047e9fc     PauseDisplay.obj
 0003:00000a1c       ??_R0?AVRatMage@@@8        0047ea1c     RatMage.obj
 0003:00000a38       ??_R0?AVStartDisplay@@@8   0047ea38     StartDisplay.obj
 0003:00000a58       ??_R0?AVSubmitButton@@@8   0047ea58     SubmitButton.obj
 0003:00000a78       ??_R0?AVChaseObject@@@8    0047ea78     ChaseObject.obj
 0003:00000a98       ??_R0?AVDragableBaseClassObject@@@8 0047ea98     DraggingDemo.obj
 0003:00000ac8       ??_R0?AVDragableObject@@@8 0047eac8     DraggingDemo.obj
 0003:00000aec       ??_R0?AVDragableImageObject@@@8 0047eaec     DraggingDemo.obj
 0003:00000b14       ??_R0?AVImageObject@@@8    0047eb14     DraggingDemo.obj
 0003:00000b38       ??_R0?AV?$basic_istringstream@DU?$char_traits@D@std@@V?$allocator@D@2@@std@@@8 0047eb38     EndDisplay.obj
 0003:00000b9c       ??_R0?AV?$basic_ofstream@DU?$char_traits@D@std@@@std@@@8 0047eb9c     EndDisplay.obj
 0003:00000be4       ??_R0?AV?$basic_fstream@DU?$char_traits@D@std@@@std@@@8 0047ebe4     EndDisplay.obj
 0003:00000c2c       ??_R0?AVEndDisplay@@@8     0047ec2c     EndDisplay.obj
 0003:00000c4c       ??_R0?AVScoreDisplay@@@8   0047ec4c     ScoreDisplay.obj
 0003:00000c6c       ??_R0?AVExitButton@@@8     0047ec6c     SimpleButtons.obj
 0003:00000c8c       ??_R0?AVBackButton@@@8     0047ec8c     SimpleButtons.obj
 0003:00000cac       ??_R0?AVSwitchButton@@@8   0047ecac     SimpleButtons.obj
 0003:00000ccc       ??_R0?AVFireball@@@8       0047eccc     Fireball.obj
 0003:00000ce8       ??_R0?AVDisplayableObjectContainer@@@8 0047ece8     FlashingDemo.obj
 0003:00000d1c       ??_R0?AVFlashingDemo@@@8   0047ed1c     FlashingDemo.obj
 0003:00000d3c       ??_R0?AVBaseEngine@@@8     0047ed3c     FlashingDemo.obj
 0003:00000d5c       ??_R0?AVFilterPoints@@@8   0047ed5c     FlashingDemo.obj
 0003:00000d7c       ??_R0?AVGameManager@@@8    0047ed7c     GameManager.obj
 0003:00000d9c       ??_R0?AVMappableImageObject@@@8 0047ed9c     ImageMappingDemo.obj
 0003:00000dc4       ??_R0?AVGameEngine@@@8     0047edc4     mainfunction.obj
 0003:00000de4       ??_R0?AVMouseObject@@@8    0047ede4     MouseObject.obj
 0003:00000e04       ??_R0?AVMyObjectB@@@8      0047ee04     MyDemoA.obj
 0003:00000e20       ??_R0?AVPlayerObject@@@8   0047ee20     PlayerObject.obj
 0003:00000e40       ??_R0?AVRatWarrior@@@8     0047ee40     RatWarrior.obj
 0003:00000e60       ??_R0?AVCroppedImagePixelMapping@@@8 0047ee60     SimpleImage.obj
 0003:00000e90       ??_R0?AVBouncingObject@@@8 0047ee90     SimpleDemo.obj
 0003:00000eb4       ??_R0?AVStarfieldDemo@@@8  0047eeb4     StarfieldDemo.obj
 0003:00000ed8       ??_R0?AVBouncingBall@@@8   0047eed8     BouncingBall.obj
 0003:00000ef8       ??_R0?AVBouncingBall1@@@8  0047eef8     BouncingBall.obj
 0003:00000f1c       ??_R0?AVBouncingBall2@@@8  0047ef1c     BouncingBall.obj
 0003:00000f40       ??_R0?AVTimerObject@@@8    0047ef40     TimerObject.obj
 0003:00000f60       ??_R0?AVTorch@@@8          0047ef60     Torch.obj
 0003:00000f78       ??_R0?AVSimpleFlashingDragableImageObject@@@8 0047ef78     ZoomingDemo.obj
 0003:00000fb4       ??_R0?AVMazeDemoMain@@@8   0047efb4     MazeDemoMain.obj
 0003:00000fd4       ??_R0?AVMazeDemoTileManager@@@8 0047efd4     MazeDemoMain.obj
 0003:00000ffc       ??_R0?AVMazeDemoObject@@@8 0047effc     MazeDemoObject.obj
 0003:00001020       ??_R0?AVtype_info@@@8      0047f020     MSVCRTD:std_type_info_static.obj
 0003:00001178       ?_OptionsStorage@?1??__local_stdio_printf_options@@9@4_KA 0047f178     BackgroundTileObject.obj
 0003:00001184       ?_Stinit@?1??_Init@?$basic_filebuf@DU?$char_traits@D@std@@@std@@IAEXPAU_iobuf@@W4_Initfl@23@@Z@4U_Mbstatet@@A 0047f184     BackgroundTileObject.obj
 0003:00001190       ?_Psave@?$_Facetptr@V?$codecvt@DDU_Mbstatet@@@std@@@std@@2PBVfacet@locale@2@B 0047f190     BackgroundTileObject.obj
 0003:00001194       ?g_pManager@ImageManager@@0PAV1@A 0047f194     SimpleImage.obj
 0003:000011a0       ___scrt_current_native_startup_state 0047f1a0     MSVCRTD:utility.obj
 0003:000011a4       ___scrt_native_startup_lock 0047f1a4     MSVCRTD:utility.obj
 0003:000011cc       ___castguard_check_failure_user_handled_fptr 0047f1cc     MSVCRTD:guard_support.obj
 0003:000011d0       ___avx10_version           0047f1d0     MSVCRTD:cpu_disp.obj
 0003:000011d4       ___isa_available           0047f1d4     MSVCRTD:cpu_disp.obj
 0003:000011d8       ___favor                   0047f1d8     MSVCRTD:cpu_disp.obj
 0003:000011e0       ?__type_info_root_node@@3U__type_info_node@@A 0047f1e0     MSVCRTD:tncleanup.obj
 0003:000011f0       ?_OptionsStorage@?1??__local_stdio_scanf_options@@9@4_KA 0047f1f0     MSVCRTD:default_local_stdio_options.obj
 0003:000011fc       ___scrt_debugger_hook_flag 0047f1fc     MSVCRTD:utility_desktop.obj
 0003:000015bc       ___dyn_tls_dtor_callback   0047f5bc     <common>
 0003:000015c8       ___dyn_tls_init_callback   0047f5c8     <common>
 0004:00000000       __imp__IsProcessorFeaturePresent@4 00480000     kernel32:KERNEL32.dll
 0004:00000004       __imp__QueryPerformanceCounter@4 00480004     kernel32:KERNEL32.dll
 0004:00000008       __imp__GetCurrentProcessId@0 00480008     kernel32:KERNEL32.dll
 0004:0000000c       __imp__GetCurrentThreadId@0 0048000c     kernel32:KERNEL32.dll
 0004:00000010       __imp__GetSystemTimeAsFileTime@4 00480010     kernel32:KERNEL32.dll
 0004:00000014       __imp__InitializeSListHead@4 00480014     kernel32:KERNEL32.dll
 0004:00000018       __imp__IsDebuggerPresent@0 00480018     kernel32:KERNEL32.dll
 0004:0000001c       __imp__UnhandledExceptionFilter@4 0048001c     kernel32:KERNEL32.dll
 0004:00000020       __imp__SetUnhandledExceptionFilter@4 00480020     kernel32:KERNEL32.dll
 0004:00000024       __imp__GetStartupInfoW@4   00480024     kernel32:KERNEL32.dll
 0004:00000028       __imp__GetCurrentProcess@0 00480028     kernel32:KERNEL32.dll
 0004:0000002c       __imp__TerminateProcess@8  0048002c     kernel32:KERNEL32.dll
 0004:00000030       __imp__GetCommandLineW@0   00480030     kernel32:KERNEL32.dll
 0004:00000034       __imp__VirtualAlloc@16     00480034     kernel32:KERNEL32.dll
 0004:00000038       __imp__GetModuleHandleW@4  00480038     kernel32:KERNEL32.dll
 0004:0000003c       __imp__VirtualFree@12      0048003c     kernel32:KERNEL32.dll
 0004:00000040       __imp__WideCharToMultiByte@32 00480040     kernel32:KERNEL32.dll
 0004:00000044       \177KERNEL32_NULL_THUNK_DATA 00480044     kernel32:KERNEL32.dll
 0004:0000007c       __imp_?_Getcvt@_Locinfo@std@@QBE?AU_Cvtvec@@XZ 0048007c     msvcprtd:MSVCP140D.dll
 0004:00000080       __imp___Mbrtowc            00480080     msvcprtd:MSVCP140D.dll
 0004:00000084       __imp_?_Getdays@_Locinfo@std@@QBEPBDXZ 00480084     msvcprtd:MSVCP140D.dll
 0004:00000088       __imp_?_Getmonths@_Locinfo@std@@QBEPBDXZ 00480088     msvcprtd:MSVCP140D.dll
 0004:0000008c       __imp_?_W_Getdays@_Locinfo@std@@QBEPBGXZ 0048008c     msvcprtd:MSVCP140D.dll
 0004:00000090       __imp_?_W_Getmonths@_Locinfo@std@@QBEPBGXZ 00480090     msvcprtd:MSVCP140D.dll
 0004:00000094       __imp_?fill@?$basic_ios@DU?$char_traits@D@std@@@std@@QAEDD@Z 00480094     msvcprtd:MSVCP140D.dll
 0004:00000098       __imp_?setw@std@@YA?AU?$_Smanip@_J@1@_J@Z 00480098     msvcprtd:MSVCP140D.dll
 0004:0000009c       __imp_??0?$basic_ostream@DU?$char_traits@D@std@@@std@@QAE@PAV?$basic_streambuf@DU?$char_traits@D@std@@@1@_N@Z 0048009c     msvcprtd:MSVCP140D.dll
 0004:000000a0       __imp_??1?$basic_ostream@DU?$char_traits@D@std@@@std@@UAE@XZ 004800a0     msvcprtd:MSVCP140D.dll
 0004:000000a4       __imp_?pbase@?$basic_streambuf@DU?$char_traits@D@std@@@std@@IBEPADXZ 004800a4     msvcprtd:MSVCP140D.dll
 0004:000000a8       __imp_??0_Lockit@std@@QAE@H@Z 004800a8     msvcprtd:MSVCP140D.dll
 0004:000000ac       __imp_??1_Lockit@std@@QAE@XZ 004800ac     msvcprtd:MSVCP140D.dll
 0004:000000b0       __imp_?_Xbad_alloc@std@@YAXXZ 004800b0     msvcprtd:MSVCP140D.dll
 0004:000000b4       __imp_?_Xinvalid_argument@std@@YAXPBD@Z 004800b4     msvcprtd:MSVCP140D.dll
 0004:000000b8       __imp_?_Xlength_error@std@@YAXPBD@Z 004800b8     msvcprtd:MSVCP140D.dll
 0004:000000bc       __imp_?_Xout_of_range@std@@YAXPBD@Z 004800bc     msvcprtd:MSVCP140D.dll
 0004:000000c0       __imp_?uncaught_exception@std@@YA_NXZ 004800c0     msvcprtd:MSVCP140D.dll
 0004:000000c4       __imp_??Bid@locale@std@@QAEIXZ 004800c4     msvcprtd:MSVCP140D.dll
 0004:000000c8       __imp_?_Getgloballocale@locale@std@@CAPAV_Locimp@12@XZ 004800c8     msvcprtd:MSVCP140D.dll
 0004:000000cc       __imp_?always_noconv@codecvt_base@std@@QBE_NXZ 004800cc     msvcprtd:MSVCP140D.dll
 0004:000000d0       __imp_?in@?$codecvt@DDU_Mbstatet@@@std@@QBEHAAU_Mbstatet@@PBD1AAPBDPAD3AAPAD@Z 004800d0     msvcprtd:MSVCP140D.dll
 0004:000000d4       __imp_?out@?$codecvt@DDU_Mbstatet@@@std@@QBEHAAU_Mbstatet@@PBD1AAPBDPAD3AAPAD@Z 004800d4     msvcprtd:MSVCP140D.dll
 0004:000000d8       __imp_?unshift@?$codecvt@DDU_Mbstatet@@@std@@QBEHAAU_Mbstatet@@PAD1AAPAD@Z 004800d8     msvcprtd:MSVCP140D.dll
 0004:000000dc       __imp_?_Getcat@?$codecvt@DDU_Mbstatet@@@std@@SAIPAPBVfacet@locale@2@PBV42@@Z 004800dc     msvcprtd:MSVCP140D.dll
 0004:000000e0       __imp_??Bios_base@std@@QBE_NXZ 004800e0     msvcprtd:MSVCP140D.dll
 0004:000000e4       __imp_?good@ios_base@std@@QBE_NXZ 004800e4     msvcprtd:MSVCP140D.dll
 0004:000000e8       __imp_?flags@ios_base@std@@QBEHXZ 004800e8     msvcprtd:MSVCP140D.dll
 0004:000000ec       __imp_?width@ios_base@std@@QBE_JXZ 004800ec     msvcprtd:MSVCP140D.dll
 0004:000000f0       __imp_?width@ios_base@std@@QAE_J_J@Z 004800f0     msvcprtd:MSVCP140D.dll
 0004:000000f4       __imp_??0?$basic_streambuf@DU?$char_traits@D@std@@@std@@IAE@XZ 004800f4     msvcprtd:MSVCP140D.dll
 0004:000000f8       __imp_??1?$basic_streambuf@DU?$char_traits@D@std@@@std@@UAE@XZ 004800f8     msvcprtd:MSVCP140D.dll
 0004:000000fc       __imp_?getloc@?$basic_streambuf@DU?$char_traits@D@std@@@std@@QBE?AVlocale@2@XZ 004800fc     msvcprtd:MSVCP140D.dll
 0004:00000100       __imp_?sbumpc@?$basic_streambuf@DU?$char_traits@D@std@@@std@@QAEHXZ 00480100     msvcprtd:MSVCP140D.dll
 0004:00000104       __imp_?sgetc@?$basic_streambuf@DU?$char_traits@D@std@@@std@@QAEHXZ 00480104     msvcprtd:MSVCP140D.dll
 0004:00000108       __imp_?snextc@?$basic_streambuf@DU?$char_traits@D@std@@@std@@QAEHXZ 00480108     msvcprtd:MSVCP140D.dll
 0004:0000010c       __imp_?sputc@?$basic_streambuf@DU?$char_traits@D@std@@@std@@QAEHD@Z 0048010c     msvcprtd:MSVCP140D.dll
 0004:00000110       __imp_?sputn@?$basic_streambuf@DU?$char_traits@D@std@@@std@@QAE_JPBD_J@Z 00480110     msvcprtd:MSVCP140D.dll
 0004:00000114       __imp_?eback@?$basic_streambuf@DU?$char_traits@D@std@@@std@@IBEPADXZ 00480114     msvcprtd:MSVCP140D.dll
 0004:00000118       __imp_?gptr@?$basic_streambuf@DU?$char_traits@D@std@@@std@@IBEPADXZ 00480118     msvcprtd:MSVCP140D.dll
 0004:0000011c       __imp_?pptr@?$basic_streambuf@DU?$char_traits@D@std@@@std@@IBEPADXZ 0048011c     msvcprtd:MSVCP140D.dll
 0004:00000120       __imp_?egptr@?$basic_streambuf@DU?$char_traits@D@std@@@std@@IBEPADXZ 00480120     msvcprtd:MSVCP140D.dll
 0004:00000124       __imp_?gbump@?$basic_streambuf@DU?$char_traits@D@std@@@std@@IAEXH@Z 00480124     msvcprtd:MSVCP140D.dll
 0004:00000128       __imp_?setg@?$basic_streambuf@DU?$char_traits@D@std@@@std@@IAEXPAD00@Z 00480128     msvcprtd:MSVCP140D.dll
 0004:0000012c       __imp_?epptr@?$basic_streambuf@DU?$char_traits@D@std@@@std@@IBEPADXZ 0048012c     msvcprtd:MSVCP140D.dll
 0004:00000130       __imp_?_Gndec@?$basic_streambuf@DU?$char_traits@D@std@@@std@@IAEPADXZ 00480130     msvcprtd:MSVCP140D.dll
 0004:00000134       __imp_?_Gninc@?$basic_streambuf@DU?$char_traits@D@std@@@std@@IAEPADXZ 00480134     msvcprtd:MSVCP140D.dll
 0004:00000138       __imp_?_Gnavail@?$basic_streambuf@DU?$char_traits@D@std@@@std@@IBE_JXZ 00480138     msvcprtd:MSVCP140D.dll
 0004:0000013c       __imp_?pbump@?$basic_streambuf@DU?$char_traits@D@std@@@std@@IAEXH@Z 0048013c     msvcprtd:MSVCP140D.dll
 0004:00000140       __imp_?setp@?$basic_streambuf@DU?$char_traits@D@std@@@std@@IAEXPAD0@Z 00480140     msvcprtd:MSVCP140D.dll
 0004:00000144       __imp_?setp@?$basic_streambuf@DU?$char_traits@D@std@@@std@@IAEXPAD00@Z 00480144     msvcprtd:MSVCP140D.dll
 0004:00000148       __imp_?_Pninc@?$basic_streambuf@DU?$char_traits@D@std@@@std@@IAEPADXZ 00480148     msvcprtd:MSVCP140D.dll
 0004:0000014c       __imp_?_Pnavail@?$basic_streambuf@DU?$char_traits@D@std@@@std@@IBE_JXZ 0048014c     msvcprtd:MSVCP140D.dll
 0004:00000150       __imp_?_Init@?$basic_streambuf@DU?$char_traits@D@std@@@std@@IAEXXZ 00480150     msvcprtd:MSVCP140D.dll
 0004:00000154       __imp_?_Init@?$basic_streambuf@DU?$char_traits@D@std@@@std@@IAEXPAPAD0PAH001@Z 00480154     msvcprtd:MSVCP140D.dll
 0004:00000158       __imp_?xsgetn@?$basic_streambuf@DU?$char_traits@D@std@@@std@@MAE_JPAD_J@Z 00480158     msvcprtd:MSVCP140D.dll
 0004:0000015c       __imp_?xsputn@?$basic_streambuf@DU?$char_traits@D@std@@@std@@MAE_JPBD_J@Z 0048015c     msvcprtd:MSVCP140D.dll
 0004:00000160       __imp_??1?$basic_ios@DU?$char_traits@D@std@@@std@@UAE@XZ 00480160     msvcprtd:MSVCP140D.dll
 0004:00000164       __imp_?setstate@?$basic_ios@DU?$char_traits@D@std@@@std@@QAEXH_N@Z 00480164     msvcprtd:MSVCP140D.dll
 0004:00000168       __imp_?tie@?$basic_ios@DU?$char_traits@D@std@@@std@@QBEPAV?$basic_ostream@DU?$char_traits@D@std@@@2@XZ 00480168     msvcprtd:MSVCP140D.dll
 0004:0000016c       __imp_?rdbuf@?$basic_ios@DU?$char_traits@D@std@@@std@@QBEPAV?$basic_streambuf@DU?$char_traits@D@std@@@2@XZ 0048016c     msvcprtd:MSVCP140D.dll
 0004:00000170       __imp_?fill@?$basic_ios@DU?$char_traits@D@std@@@std@@QBEDXZ 00480170     msvcprtd:MSVCP140D.dll
 0004:00000174       __imp_?widen@?$basic_ios@DU?$char_traits@D@std@@@std@@QBEDD@Z 00480174     msvcprtd:MSVCP140D.dll
 0004:00000178       __imp_??0?$basic_ios@DU?$char_traits@D@std@@@std@@IAE@XZ 00480178     msvcprtd:MSVCP140D.dll
 0004:0000017c       __imp_?_Osfx@?$basic_ostream@DU?$char_traits@D@std@@@std@@QAEXXZ 0048017c     msvcprtd:MSVCP140D.dll
 0004:00000180       __imp_??6?$basic_ostream@DU?$char_traits@D@std@@@std@@QAEAAV01@P6AAAV01@AAV01@@Z@Z 00480180     msvcprtd:MSVCP140D.dll
 0004:00000184       __imp_??6?$basic_ostream@DU?$char_traits@D@std@@@std@@QAEAAV01@_N@Z 00480184     msvcprtd:MSVCP140D.dll
 0004:00000188       __imp_??6?$basic_ostream@DU?$char_traits@D@std@@@std@@QAEAAV01@H@Z 00480188     msvcprtd:MSVCP140D.dll
 0004:0000018c       __imp_?put@?$basic_ostream@DU?$char_traits@D@std@@@std@@QAEAAV12@D@Z 0048018c     msvcprtd:MSVCP140D.dll
 0004:00000190       __imp_?flush@?$basic_ostream@DU?$char_traits@D@std@@@std@@QAEAAV12@XZ 00480190     msvcprtd:MSVCP140D.dll
 0004:00000194       __imp_??0?$basic_istream@DU?$char_traits@D@std@@@std@@QAE@PAV?$basic_streambuf@DU?$char_traits@D@std@@@1@_N@Z 00480194     msvcprtd:MSVCP140D.dll
 0004:00000198       __imp_??1?$basic_istream@DU?$char_traits@D@std@@@std@@UAE@XZ 00480198     msvcprtd:MSVCP140D.dll
 0004:0000019c       __imp_?_Ipfx@?$basic_istream@DU?$char_traits@D@std@@@std@@QAE_N_N@Z 0048019c     msvcprtd:MSVCP140D.dll
 0004:000001a0       __imp_??0?$basic_iostream@DU?$char_traits@D@std@@@std@@QAE@PAV?$basic_streambuf@DU?$char_traits@D@std@@@1@@Z 004801a0     msvcprtd:MSVCP140D.dll
 0004:000001a4       __imp_??1?$basic_iostream@DU?$char_traits@D@std@@@std@@UAE@XZ 004801a4     msvcprtd:MSVCP140D.dll
 0004:000001a8       __imp_?_Fiopen@std@@YAPAU_iobuf@@PBDHH@Z 004801a8     msvcprtd:MSVCP140D.dll
 0004:000001ac       __imp_?imbue@?$basic_streambuf@DU?$char_traits@D@std@@@std@@MAEXABVlocale@2@@Z 004801ac     msvcprtd:MSVCP140D.dll
 0004:000001b0       __imp_?sync@?$basic_streambuf@DU?$char_traits@D@std@@@std@@MAEHXZ 004801b0     msvcprtd:MSVCP140D.dll
 0004:000001b4       __imp_?setbuf@?$basic_streambuf@DU?$char_traits@D@std@@@std@@MAEPAV12@PAD_J@Z 004801b4     msvcprtd:MSVCP140D.dll
 0004:000001b8       __imp_?uflow@?$basic_streambuf@DU?$char_traits@D@std@@@std@@MAEHXZ 004801b8     msvcprtd:MSVCP140D.dll
 0004:000001bc       __imp_?showmanyc@?$basic_streambuf@DU?$char_traits@D@std@@@std@@MAE_JXZ 004801bc     msvcprtd:MSVCP140D.dll
 0004:000001c0       __imp_?_Unlock@?$basic_streambuf@DU?$char_traits@D@std@@@std@@UAEXXZ 004801c0     msvcprtd:MSVCP140D.dll
 0004:000001c4       __imp_?_Lock@?$basic_streambuf@DU?$char_traits@D@std@@@std@@UAEXXZ 004801c4     msvcprtd:MSVCP140D.dll
 0004:000001c8       __imp_?id@?$codecvt@DDU_Mbstatet@@@std@@2V0locale@2@A 004801c8     msvcprtd:MSVCP140D.dll
 0004:000001cc       __imp_?cout@std@@3V?$basic_ostream@DU?$char_traits@D@std@@@1@A 004801cc     msvcprtd:MSVCP140D.dll
 0004:000001d0       __imp_??6?$basic_ostream@DU?$char_traits@D@std@@@std@@QAEAAV01@_J@Z 004801d0     msvcprtd:MSVCP140D.dll
 0004:000001d4       \177MSVCP140D_NULL_THUNK_DATA 004801d4     msvcprtd:MSVCP140D.dll
 0004:00000244       __imp__SDL_SetClipRect     00480244     SDL2:SDL2.dll
 0004:00000248       __imp__SDL_Quit            00480248     SDL2:SDL2.dll
 0004:0000024c       __imp__SDL_Init            0048024c     SDL2:SDL2.dll
 0004:00000250       __imp__SDL_GetTicks        00480250     SDL2:SDL2.dll
 0004:00000254       __imp__SDL_UpperBlitScaled 00480254     SDL2:SDL2.dll
 0004:00000258       __imp__SDL_RenderCopy      00480258     SDL2:SDL2.dll
 0004:0000025c       __imp__SDL_CreateRGBSurface 0048025c     SDL2:SDL2.dll
 0004:00000260       __imp__SDL_UpdateTexture   00480260     SDL2:SDL2.dll
 0004:00000264       __imp__SDL_CreateTexture   00480264     SDL2:SDL2.dll
 0004:00000268       __imp__SDL_CreateRenderer  00480268     SDL2:SDL2.dll
 0004:0000026c       __imp__SDL_RenderPresent   0048026c     SDL2:SDL2.dll
 0004:00000270       __imp__SDL_WaitEvent       00480270     SDL2:SDL2.dll
 0004:00000274       __imp__SDL_PollEvent       00480274     SDL2:SDL2.dll
 0004:00000278       __imp__SDL_CreateWindow    00480278     SDL2:SDL2.dll
 0004:0000027c       __imp__SDL_GetError        0048027c     SDL2:SDL2.dll
 0004:00000280       __imp__SDL_UpperBlit       00480280     SDL2:SDL2.dll
 0004:00000284       __imp__SDL_FillRect        00480284     SDL2:SDL2.dll
 0004:00000288       __imp__SDL_UnlockSurface   00480288     SDL2:SDL2.dll
 0004:0000028c       __imp__SDL_LockSurface     0048028c     SDL2:SDL2.dll
 0004:00000290       __imp__SDL_FreeSurface     00480290     SDL2:SDL2.dll
 0004:00000294       __imp__SDL_SetMainReady    00480294     SDL2:SDL2.dll
 0004:00000298       __imp__SDL_ShowSimpleMessageBox 00480298     SDL2:SDL2.dll
 0004:0000029c       \177SDL2_NULL_THUNK_DATA   0048029c     SDL2:SDL2.dll
 0004:000002d8       __imp__IMG_Load            004802d8     SDL2_image:SDL2_image.dll
 0004:000002dc       \177SDL2_image_NULL_THUNK_DATA 004802dc     SDL2_image:SDL2_image.dll
 0004:00000308       __imp__TTF_CloseFont       00480308     SDL2_ttf:SDL2_ttf.dll
 0004:0000030c       __imp__TTF_OpenFont        0048030c     SDL2_ttf:SDL2_ttf.dll
 0004:00000310       __imp__TTF_Quit            00480310     SDL2_ttf:SDL2_ttf.dll
 0004:00000314       __imp__TTF_RenderText_Solid 00480314     SDL2_ttf:SDL2_ttf.dll
 0004:00000318       __imp__TTF_Init            00480318     SDL2_ttf:SDL2_ttf.dll
 0004:0000031c       \177SDL2_ttf_NULL_THUNK_DATA 0048031c     SDL2_ttf:SDL2_ttf.dll
 0004:0000034c       __imp____current_exception 0048034c     vcruntimed:VCRUNTIME140D.dll
 0004:00000350       __imp____current_exception_context 00480350     vcruntimed:VCRUNTIME140D.dll
 0004:00000354       __imp___except_handler4_common 00480354     vcruntimed:VCRUNTIME140D.dll
 0004:00000358       __imp____std_type_info_destroy_list 00480358     vcruntimed:VCRUNTIME140D.dll
 0004:0000035c       __imp__memcmp              0048035c     vcruntimed:VCRUNTIME140D.dll
 0004:00000360       __imp__memcpy              00480360     vcruntimed:VCRUNTIME140D.dll
 0004:00000364       __imp__memmove             00480364     vcruntimed:VCRUNTIME140D.dll
 0004:00000368       __imp__memset              00480368     vcruntimed:VCRUNTIME140D.dll
 0004:0000036c       __imp____std_exception_copy 0048036c     vcruntimed:VCRUNTIME140D.dll
 0004:00000370       __imp____std_exception_destroy 00480370     vcruntimed:VCRUNTIME140D.dll
 0004:00000374       __imp___CxxThrowException@8 00480374     vcruntimed:VCRUNTIME140D.dll
 0004:00000378       __imp____CxxFrameHandler3  00480378     vcruntimed:VCRUNTIME140D.dll
 0004:0000037c       __imp___purecall           0048037c     vcruntimed:VCRUNTIME140D.dll
 0004:00000380       __imp____RTDynamicCast     00480380     vcruntimed:VCRUNTIME140D.dll
 0004:00000384       __imp__memchr              00480384     vcruntimed:VCRUNTIME140D.dll
 0004:00000388       \177VCRUNTIME140D_NULL_THUNK_DATA 00480388     vcruntimed:VCRUNTIME140D.dll
 0004:000003c0       __imp____stdio_common_vfprintf 004803c0     ucrtd:ucrtbased.dll
 0004:000003c4       __imp__strlen              004803c4     ucrtd:ucrtbased.dll
 0004:000003c8       __imp__srand               004803c8     ucrtd:ucrtbased.dll
 0004:000003cc       __imp__sqrt                004803cc     ucrtd:ucrtbased.dll
 0004:000003d0       __imp__atan                004803d0     ucrtd:ucrtbased.dll
 0004:000003d4       __imp__atan2               004803d4     ucrtd:ucrtbased.dll
 0004:000003d8       __imp__cos                 004803d8     ucrtd:ucrtbased.dll
 0004:000003dc       __imp__sin                 004803dc     ucrtd:ucrtbased.dll
 0004:000003e0       __imp___calloc_dbg         004803e0     ucrtd:ucrtbased.dll
 0004:000003e4       __imp____stdio_common_vsprintf 004803e4     ucrtd:ucrtbased.dll
 0004:000003e8       __imp__wcslen              004803e8     ucrtd:ucrtbased.dll
 0004:000003ec       __imp___time64             004803ec     ucrtd:ucrtbased.dll
 0004:000003f0       __imp__atoi                004803f0     ucrtd:ucrtbased.dll
 0004:000003f4       __imp__remove              004803f4     ucrtd:ucrtbased.dll
 0004:000003f8       __imp__rename              004803f8     ucrtd:ucrtbased.dll
 0004:000003fc       __imp___CrtDumpMemoryLeaks 004803fc     ucrtd:ucrtbased.dll
 0004:00000400       __imp__puts                00480400     ucrtd:ucrtbased.dll
 0004:00000404       __imp__strcmp              00480404     ucrtd:ucrtbased.dll
 0004:00000408       __imp__strcpy              00480408     ucrtd:ucrtbased.dll
 0004:0000040c       __imp___free_dbg           0048040c     ucrtd:ucrtbased.dll
 0004:00000410       __imp___malloc_dbg         00480410     ucrtd:ucrtbased.dll
 0004:00000414       __imp___seh_filter_exe     00480414     ucrtd:ucrtbased.dll
 0004:00000418       __imp___lock_file          00480418     ucrtd:ucrtbased.dll
 0004:0000041c       __imp____setusermatherr    0048041c     ucrtd:ucrtbased.dll
 0004:00000420       __imp___configure_narrow_argv 00480420     ucrtd:ucrtbased.dll
 0004:00000424       __imp___initialize_narrow_environment 00480424     ucrtd:ucrtbased.dll
 0004:00000428       __imp___get_initial_narrow_environment 00480428     ucrtd:ucrtbased.dll
 0004:0000042c       __imp___initterm           0048042c     ucrtd:ucrtbased.dll
 0004:00000430       __imp___initterm_e         00480430     ucrtd:ucrtbased.dll
 0004:00000434       __imp__exit                00480434     ucrtd:ucrtbased.dll
 0004:00000438       __imp___exit               00480438     ucrtd:ucrtbased.dll
 0004:0000043c       __imp___set_fmode          0048043c     ucrtd:ucrtbased.dll
 0004:00000440       __imp____p___argc          00480440     ucrtd:ucrtbased.dll
 0004:00000444       __imp____p___argv          00480444     ucrtd:ucrtbased.dll
 0004:00000448       __imp___cexit              00480448     ucrtd:ucrtbased.dll
 0004:0000044c       __imp___c_exit             0048044c     ucrtd:ucrtbased.dll
 0004:00000450       __imp___register_thread_local_exe_atexit_callback 00480450     ucrtd:ucrtbased.dll
 0004:00000454       __imp___configthreadlocale 00480454     ucrtd:ucrtbased.dll
 0004:00000458       __imp___set_new_mode       00480458     ucrtd:ucrtbased.dll
 0004:0000045c       __imp____p__commode        0048045c     ucrtd:ucrtbased.dll
 0004:00000460       __imp___callnewh           00480460     ucrtd:ucrtbased.dll
 0004:00000464       __imp__malloc              00480464     ucrtd:ucrtbased.dll
 0004:00000468       __imp___seh_filter_dll     00480468     ucrtd:ucrtbased.dll
 0004:0000046c       __imp___initialize_onexit_table 0048046c     ucrtd:ucrtbased.dll
 0004:00000470       __imp___register_onexit_function 00480470     ucrtd:ucrtbased.dll
 0004:00000474       __imp___execute_onexit_table 00480474     ucrtd:ucrtbased.dll
 0004:00000478       __imp___crt_atexit         00480478     ucrtd:ucrtbased.dll
 0004:0000047c       __imp___crt_at_quick_exit  0048047c     ucrtd:ucrtbased.dll
 0004:00000480       __imp___controlfp_s        00480480     ucrtd:ucrtbased.dll
 0004:00000484       __imp__terminate           00480484     ucrtd:ucrtbased.dll
 0004:00000488       __imp___unlock_file        00480488     ucrtd:ucrtbased.dll
 0004:0000048c       __imp__ungetc              0048048c     ucrtd:ucrtbased.dll
 0004:00000490       __imp__setvbuf             00480490     ucrtd:ucrtbased.dll
 0004:00000494       __imp__fwrite              00480494     ucrtd:ucrtbased.dll
 0004:00000498       __imp___fseeki64           00480498     ucrtd:ucrtbased.dll
 0004:0000049c       __imp__fsetpos             0048049c     ucrtd:ucrtbased.dll
 0004:000004a0       __imp__fread               004804a0     ucrtd:ucrtbased.dll
 0004:000004a4       __imp__fputc               004804a4     ucrtd:ucrtbased.dll
 0004:000004a8       __imp__fgetpos             004804a8     ucrtd:ucrtbased.dll
 0004:000004ac       __imp__fgetc               004804ac     ucrtd:ucrtbased.dll
 0004:000004b0       __imp__fflush              004804b0     ucrtd:ucrtbased.dll
 0004:000004b4       __imp__fclose              004804b4     ucrtd:ucrtbased.dll
 0004:000004b8       __imp___get_stream_buffer_pointers 004804b8     ucrtd:ucrtbased.dll
 0004:000004bc       __imp____acrt_iob_func     004804bc     ucrtd:ucrtbased.dll
 0004:000004c0       __imp__strtol              004804c0     ucrtd:ucrtbased.dll
 0004:000004c4       __imp__rand                004804c4     ucrtd:ucrtbased.dll
 0004:000004c8       __imp___errno              004804c8     ucrtd:ucrtbased.dll
 0004:000004cc       __imp___CrtDbgReport       004804cc     ucrtd:ucrtbased.dll
 0004:000004d0       __imp___invalid_parameter  004804d0     ucrtd:ucrtbased.dll
 0004:000004d4       __imp___set_app_type       004804d4     ucrtd:ucrtbased.dll
 0004:000004d8       \177ucrtbased_NULL_THUNK_DATA 004804d8     ucrtd:ucrtbased.dll
 0004:0000053c       __IMPORT_DESCRIPTOR_SDL2   0048053c     SDL2:SDL2.dll
 0004:00000550       __IMPORT_DESCRIPTOR_SDL2_image 00480550     SDL2_image:SDL2_image.dll
 0004:00000564       __IMPORT_DESCRIPTOR_SDL2_ttf 00480564     SDL2_ttf:SDL2_ttf.dll
 0004:00000578       __IMPORT_DESCRIPTOR_MSVCP140D 00480578     msvcprtd:MSVCP140D.dll
 0004:0000058c       __IMPORT_DESCRIPTOR_VCRUNTIME140D 0048058c     vcruntimed:VCRUNTIME140D.dll
 0004:000005a0       __IMPORT_DESCRIPTOR_ucrtbased 004805a0     ucrtd:ucrtbased.dll
 0004:000005b4       __IMPORT_DESCRIPTOR_KERNEL32 004805b4     kernel32:KERNEL32.dll
 0004:000005c8       __NULL_IMPORT_DESCRIPTOR   004805c8     SDL2:SDL2.dll
 0005:00000000       ___guard_check_icall_fptr  00483000     MSVCRTD:guard_support.obj
 0005:00000004       ___guard_xfg_check_icall_fptr 00483004     MSVCRTD:guard_support.obj
 0005:00000008       ___castguard_check_failure_os_handled_fptr 00483008     MSVCRTD:guard_support.obj

 entry point at        0001:000000aa

 Static symbols

 0000:00000000       _volmd                     00400000     BackgroundTileObject.obj
 0000:00000000       _volmd                     00400000     BackgroundTileObject.obj
 0000:00000000       _volmd                     00400000     BackgroundTileObject.obj
 0000:00000000       _volmd                     00400000     BackgroundTileObject.obj
 0000:00000000       _volmd                     00400000     BackgroundTileObject.obj
 0000:00000000       _volmd                     00400000     BackgroundTileObject.obj
 0000:00000000       _volmd                     00400000     BackgroundTileObject.obj
 0000:00000000       _volmd                     00400000     BackgroundTileObject.obj
 0000:00000000       _volmd                     00400000     BackgroundTileObject.obj
 0000:00000000       _volmd                     00400000     BackgroundTileObject.obj
 0000:00000000       _volmd                     00400000     BackgroundTileObject.obj
 0000:00000000       _volmd                     00400000     BackgroundTileObject.obj
 0000:00000000       _volmd                     00400000     BackgroundTileObject.obj
 0000:00000000       _volmd                     00400000     BackgroundTileObject.obj
 0000:00000000       _volmd                     00400000     BackgroundTileObject.obj
 0000:00000000       _volmd                     00400000     BackgroundTileObject.obj
 0000:00000000       _volmd                     00400000     BackgroundTileObject.obj
 0000:00000000       _volmd                     00400000     BackgroundTileObject.obj
 0000:00000000       _volmd                     00400000     BackgroundTileObject.obj
 0000:00000000       _volmd                     00400000     BackgroundTileObject.obj
 0000:00000000       _volmd                     00400000     BackgroundTileObject.obj
 0000:00000000       _volmd                     00400000     BackgroundTileObject.obj
 0000:00000000       _volmd                     00400000     BackgroundTileObject.obj
 0000:00000000       _volmd                     00400000     BackgroundTileObject.obj
 0000:00000000       _volmd                     00400000     BackgroundTileObject.obj
 0000:00000000       _volmd                     00400000     BackgroundTileObject.obj
 0000:00000000       _volmd                     00400000     BackgroundTileObject.obj
 0000:00000000       _volmd                     00400000     BackgroundTileObject.obj
 0000:00000000       _volmd                     00400000     BackgroundTileObject.obj
 0000:00000000       _volmd                     00400000     BackgroundTileObject.obj
 0000:00000000       _volmd                     00400000     BackgroundTileObject.obj
 0000:00000000       _volmd                     00400000     BackgroundTileObject.obj
 0000:00000000       _volmd                     00400000     BackgroundTileObject.obj
 0000:00000000       _volmd                     00400000     BackgroundTileObject.obj
 0000:00000000       _volmd                     00400000     BackgroundTileObject.obj
 0000:00000000       _volmd                     00400000     BackgroundTileObject.obj
 0000:00000000       _volmd                     00400000     BackgroundTileObject.obj
 0000:00000000       _volmd                     00400000     BackgroundTileObject.obj
 0000:00000000       _volmd                     00400000     BackgroundTileObject.obj
 0000:00000000       _volmd                     00400000     BackgroundTileObject.obj
 0000:00000000       _volmd                     00400000     BackgroundTileObject.obj
 0000:00000000       _volmd                     00400000     BackgroundTileObject.obj
 0000:00000000       _volmd                     00400000     BackgroundTileObject.obj
 0000:00000000       _volmd                     00400000     BackgroundTileObject.obj
 0000:00000000       _volmd                     00400000     BackgroundTileObject.obj
 0000:00000000       _volmd                     00400000     BackgroundTileObject.obj
 0000:00000000       _volmd                     00400000     BackgroundTileObject.obj
 0000:00000000       _volmd                     00400000     BackgroundTileObject.obj
 0000:00000000       _volmd                     00400000     BackgroundTileObject.obj
 0000:00000000       _volmd                     00400000     BackgroundTileObject.obj
 0000:00000000       _volmd                     00400000     BackgroundTileObject.obj
 0000:00000000       _volmd                     00400000     BackgroundTileObject.obj
 0000:00000000       _volmd                     00400000     BackgroundTileObject.obj
 0000:00000000       _volmd                     00400000     BackgroundTileObject.obj
 0000:00000000       _volmd                     00400000     BackgroundTileObject.obj
 0000:00000000       _volmd                     00400000     BackgroundTileObject.obj
 0000:00000000       _volmd                     00400000     BackgroundTileObject.obj
 0000:00000000       _volmd                     00400000     BackgroundTileObject.obj
 0000:00000000       _volmd                     00400000     BackgroundTileObject.obj
 0000:00000000       _volmd                     00400000     BackgroundTileObject.obj
 0000:00000000       _volmd                     00400000     BackgroundTileObject.obj
 0000:00000000       _volmd                     00400000     BackgroundTileObject.obj
 0000:00000000       _volmd                     00400000     BackgroundTileObject.obj
 0000:00000000       _volmd                     00400000     BackgroundTileObject.obj
 0000:00000000       _volmd                     00400000     BackgroundTileObject.obj
 0000:00000000       _volmd                     00400000     BackgroundTileObject.obj
 0000:00000000       _volmd                     00400000     BackgroundTileObject.obj
 0000:00000000       _volmd                     00400000     BackgroundTileObject.obj
 0000:00000000       _volmd                     00400000     BackgroundTileObject.obj
 0000:00000000       _volmd                     00400000     BaseButton.obj
 0000:00000000       _volmd                     00400000     BaseButton.obj
 0000:00000000       _volmd                     00400000     BaseButton.obj
 0000:00000000       _volmd                     00400000     BaseButton.obj
 0002:fff9a000       __catchsym$??$?6U?$char_traits@D@std@@@std@@YAAAV?$basic_ostream@DU?$char_traits@D@std@@@0@AAV10@PBD@Z$3 00400000     BaseEnemy.obj
 0002:fff9a000       __catchsym$??$_Insert_string@DU?$char_traits@D@std@@I@std@@YAAAV?$basic_ostream@DU?$char_traits@D@std@@@0@AAV10@QBDI@Z$3 00400000     BaseEnemy.obj
 0002:fff9a000       __ehfuncinfo$??$_Deallocate@$07@std@@YAXPAXI@Z 00400000     BaseEnemy.obj
 0002:fff9a000       __ehfuncinfo$??$_Deallocate_plain@V?$allocator@U_Container_proxy@std@@@std@@@std@@YAXAAV?$allocator@U_Container_proxy@std@@@0@QAU_Container_proxy@0@@Z 00400000     BaseEnemy.obj
 0002:fff9a000       __ehfuncinfo$??$_Freenode0@V?$allocator@U?$_Tree_node@U?$pair@$$CBV?$basic_string@DU?$char_traits@D@std@@V?$allocator@D@2@@std@@V?$weak_ptr@VRawImageData@@@2@@std@@PAX@std@@@std@@@?$_Tree_node@U?$pair@$$CBV?$basic_string@DU?$char_traits@D@std@@V?$allocator@D@2@@std@@V?$weak_ptr@VRawImageData@@@2@@std@@PAX@std@@SAXAAV?$allocator@U?$_Tree_node@U?$pair@$$CBV?$basic_string@DU?$char_traits@D@std@@V?$allocator@D@2@@std@@V?$weak_ptr@VRawImageData@@@2@@std@@PAX@std@@@1@PAU01@@Z 00400000     BaseEnemy.obj
 0002:fff9a000       __ehfuncinfo$??$_Freenode@V?$allocator@U?$_Tree_node@U?$pair@$$CBV?$basic_string@DU?$char_traits@D@std@@V?$allocator@D@2@@std@@V?$weak_ptr@VRawImageData@@@2@@std@@PAX@std@@@std@@@?$_Tree_node@U?$pair@$$CBV?$basic_string@DU?$char_traits@D@std@@V?$allocator@D@2@@std@@V?$weak_ptr@VRawImageData@@@2@@std@@PAX@std@@SAXAAV?$allocator@U?$_Tree_node@U?$pair@$$CBV?$basic_string@DU?$char_traits@D@std@@V?$allocator@D@2@@std@@V?$weak_ptr@VRawImageData@@@2@@std@@PAX@std@@@1@PAU01@@Z 00400000     BaseEnemy.obj
 0002:fff9a000       __ehfuncinfo$??0?$basic_string@DU?$char_traits@D@std@@V?$allocator@D@2@@std@@QAE@$$QAV01@@Z 00400000     BaseEnemy.obj
 0002:fff9a000       __ehfuncinfo$??1?$_Alloc_construct_ptr@V?$allocator@U?$_Tree_node@U?$pair@$$CBV?$basic_string@DU?$char_traits@D@std@@V?$allocator@D@2@@std@@V?$shared_ptr@VRawImageData@@@2@@std@@PAX@std@@@std@@@std@@QAE@XZ 00400000     BaseEnemy.obj
 0002:fff9a000       __ehfuncinfo$??1?$_Alloc_construct_ptr@V?$allocator@U?$_Tree_node@U?$pair@$$CBV?$basic_string@DU?$char_traits@D@std@@V?$allocator@D@2@@std@@V?$weak_ptr@VRawImageData@@@2@@std@@PAX@std@@@std@@@std@@QAE@XZ 00400000     BaseEnemy.obj
 0002:fff9a000       __ehfuncinfo$??1?$_Tree_temp_node@V?$allocator@U?$_Tree_node@U?$pair@$$CBV?$basic_string@DU?$char_traits@D@std@@V?$allocator@D@2@@std@@V?$shared_ptr@VRawImageData@@@2@@std@@PAX@std@@@std@@@std@@QAE@XZ 00400000     BaseEnemy.obj
 0002:fff9a000       __ehfuncinfo$??1?$_Tree_temp_node@V?$allocator@U?$_Tree_node@U?$pair@$$CBV?$basic_string@DU?$char_traits@D@std@@V?$allocator@D@2@@std@@V?$weak_ptr@VRawImageData@@@2@@std@@PAX@std@@@std@@@std@@QAE@XZ 00400000     BaseEnemy.obj
 0002:fff9a000       __ehfuncinfo$??1RawImageData@@QAE@XZ 00400000     BaseEnemy.obj
 0002:fff9a000       __ehfuncinfo$??1_Sentry_base@?$basic_ostream@DU?$char_traits@D@std@@@std@@QAE@XZ 00400000     BaseEnemy.obj
 0002:fff9a000       __ehfuncinfo$?_Deallocate_for_capacity@?$basic_string@DU?$char_traits@D@std@@V?$allocator@D@2@@std@@CAXAAV?$allocator@D@2@QADI@Z 00400000     BaseEnemy.obj
 0002:fff9a000       __ehfuncinfo$?erase@?$vector@PAVDisplayableObject@@V?$allocator@PAVDisplayableObject@@@std@@@std@@QAE?AV?$_Vector_iterator@V?$_Vector_val@U?$_Simple_types@PAVDisplayableObject@@@std@@@std@@@2@V?$_Vector_const_iterator@V?$_Vector_val@U?$_Simple_types@PAVDisplayableObject@@@std@@@std@@@2@@Z 00400000     BaseEnemy.obj
 0002:fff9a000       __ehfuncinfo$?getImagePtrbyURL@ImageManager@@QAE?AV?$shared_ptr@VRawImageData@@@std@@V?$basic_string@DU?$char_traits@D@std@@V?$allocator@D@2@@3@_N1@Z 00400000     BaseEnemy.obj
 0001:fffff000       __ehhandler$??$_Deallocate@$07@std@@YAXPAXI@Z 00400000 f   BaseEnemy.obj
 0001:fffff000       __ehhandler$??$_Deallocate_plain@V?$allocator@U_Container_proxy@std@@@std@@@std@@YAXAAV?$allocator@U_Container_proxy@std@@@0@QAU_Container_proxy@0@@Z 00400000 f   BaseEnemy.obj
 0001:fffff000       __ehhandler$??$_Freenode0@V?$allocator@U?$_Tree_node@U?$pair@$$CBV?$basic_string@DU?$char_traits@D@std@@V?$allocator@D@2@@std@@V?$weak_ptr@VRawImageData@@@2@@std@@PAX@std@@@std@@@?$_Tree_node@U?$pair@$$CBV?$basic_string@DU?$char_traits@D@std@@V?$allocator@D@2@@std@@V?$weak_ptr@VRawImageData@@@2@@std@@PAX@std@@SAXAAV?$allocator@U?$_Tree_node@U?$pair@$$CBV?$basic_string@DU?$char_traits@D@std@@V?$allocator@D@2@@std@@V?$weak_ptr@VRawImageData@@@2@@std@@PAX@std@@@1@PAU01@@Z 00400000 f   BaseEnemy.obj
 0001:fffff000       __ehhandler$??$_Freenode@V?$allocator@U?$_Tree_node@U?$pair@$$CBV?$basic_string@DU?$char_traits@D@std@@V?$allocator@D@2@@std@@V?$weak_ptr@VRawImageData@@@2@@std@@PAX@std@@@std@@@?$_Tree_node@U?$pair@$$CBV?$basic_string@DU?$char_traits@D@std@@V?$allocator@D@2@@std@@V?$weak_ptr@VRawImageData@@@2@@std@@PAX@std@@SAXAAV?$allocator@U?$_Tree_node@U?$pair@$$CBV?$basic_string@DU?$char_traits@D@std@@V?$allocator@D@2@@std@@V?$weak_ptr@VRawImageData@@@2@@std@@PAX@std@@@1@PAU01@@Z 00400000 f   BaseEnemy.obj
 0001:fffff000       __ehhandler$??0?$basic_string@DU?$char_traits@D@std@@V?$allocator@D@2@@std@@QAE@$$QAV01@@Z 00400000 f   BaseEnemy.obj
 0001:fffff000       __ehhandler$??1?$_Alloc_construct_ptr@V?$allocator@U?$_Tree_node@U?$pair@$$CBV?$basic_string@DU?$char_traits@D@std@@V?$allocator@D@2@@std@@V?$shared_ptr@VRawImageData@@@2@@std@@PAX@std@@@std@@@std@@QAE@XZ 00400000 f   BaseEnemy.obj
 0001:fffff000       __ehhandler$??1?$_Alloc_construct_ptr@V?$allocator@U?$_Tree_node@U?$pair@$$CBV?$basic_string@DU?$char_traits@D@std@@V?$allocator@D@2@@std@@V?$weak_ptr@VRawImageData@@@2@@std@@PAX@std@@@std@@@std@@QAE@XZ 00400000 f   BaseEnemy.obj
 0001:fffff000       __ehhandler$??1?$_Tree_temp_node@V?$allocator@U?$_Tree_node@U?$pair@$$CBV?$basic_string@DU?$char_traits@D@std@@V?$allocator@D@2@@std@@V?$shared_ptr@VRawImageData@@@2@@std@@PAX@std@@@std@@@std@@QAE@XZ 00400000 f   BaseEnemy.obj
 0001:fffff000       __ehhandler$??1?$_Tree_temp_node@V?$allocator@U?$_Tree_node@U?$pair@$$CBV?$basic_string@DU?$char_traits@D@std@@V?$allocator@D@2@@std@@V?$weak_ptr@VRawImageData@@@2@@std@@PAX@std@@@std@@@std@@QAE@XZ 00400000 f   BaseEnemy.obj
 0001:fffff000       __ehhandler$??1RawImageData@@QAE@XZ 00400000 f   BaseEnemy.obj
 0001:fffff000       __ehhandler$??1_Sentry_base@?$basic_ostream@DU?$char_traits@D@std@@@std@@QAE@XZ 00400000 f   BaseEnemy.obj
 0001:fffff000       __ehhandler$?_Deallocate_for_capacity@?$basic_string@DU?$char_traits@D@std@@V?$allocator@D@2@@std@@CAXAAV?$allocator@D@2@QADI@Z 00400000 f   BaseEnemy.obj
 0001:fffff000       __ehhandler$?erase@?$vector@PAVDisplayableObject@@V?$allocator@PAVDisplayableObject@@@std@@@std@@QAE?AV?$_Vector_iterator@V?$_Vector_val@U?$_Simple_types@PAVDisplayableObject@@@std@@@std@@@2@V?$_Vector_const_iterator@V?$_Vector_val@U?$_Simple_types@PAVDisplayableObject@@@std@@@std@@@2@@Z 00400000 f   BaseEnemy.obj
 0001:fffff000       __unwindfunclet$??$?0U?$pair@V?$basic_string@DU?$char_traits@D@std@@V?$allocator@D@2@@std@@V?$shared_ptr@VRawImageData@@@2@@std@@@?$_Tree_temp_node@V?$allocator@U?$_Tree_node@U?$pair@$$CBV?$basic_string@DU?$char_traits@D@std@@V?$allocator@D@2@@std@@V?$shared_ptr@VRawImageData@@@2@@std@@PAX@std@@@std@@@std@@QAE@AAV?$allocator@U?$_Tree_node@U?$pair@$$CBV?$basic_string@DU?$char_traits@D@std@@V?$allocator@D@2@@std@@V?$shared_ptr@VRawImageData@@@2@@std@@PAX@std@@@1@PAU?$_Tree_node@U?$pair@$$CBV?$basic_string@DU?$char_traits@D@std@@V?$allocator@D@2@@std@@V?$shared_ptr@VRawImageData@@@2@@std@@PAX@1@$$QAU?$pair@V?$basic_string@DU?$char_traits@D@std@@V?$allocator@D@2@@std@@V?$shared_ptr@VRawImageData@@@2@@1@@Z$0 00400000 f   BaseEnemy.obj
 0001:fffff000       __unwindfunclet$??$?0U?$pair@V?$basic_string@DU?$char_traits@D@std@@V?$allocator@D@2@@std@@V?$weak_ptr@VRawImageData@@@2@@std@@@?$_Tree_temp_node@V?$allocator@U?$_Tree_node@U?$pair@$$CBV?$basic_string@DU?$char_traits@D@std@@V?$allocator@D@2@@std@@V?$weak_ptr@VRawImageData@@@2@@std@@PAX@std@@@std@@@std@@QAE@AAV?$allocator@U?$_Tree_node@U?$pair@$$CBV?$basic_string@DU?$char_traits@D@std@@V?$allocator@D@2@@std@@V?$weak_ptr@VRawImageData@@@2@@std@@PAX@std@@@1@PAU?$_Tree_node@U?$pair@$$CBV?$basic_string@DU?$char_traits@D@std@@V?$allocator@D@2@@std@@V?$weak_ptr@VRawImageData@@@2@@std@@PAX@1@$$QAU?$pair@V?$basic_string@DU?$char_traits@D@std@@V?$allocator@D@2@@std@@V?$weak_ptr@VRawImageData@@@2@@1@@Z$0 00400000 f   BaseEnemy.obj
 0001:fffff000       __unwindfunclet$??$?0VRawImageData@@$0A@@?$shared_ptr@VRawImageData@@@std@@QAE@PAVRawImageData@@@Z$0 00400000 f   BaseEnemy.obj
 0001:fffff000       __unwindfunclet$??$?6U?$char_traits@D@std@@@std@@YAAAV?$basic_ostream@DU?$char_traits@D@std@@@0@AAV10@PBD@Z$2 00400000 f   BaseEnemy.obj
 0001:fffff000       __unwindfunclet$??$_Construct@$00PBD@?$basic_string@DU?$char_traits@D@std@@V?$allocator@D@2@@std@@AAEXQBDI@Z$0 00400000 f   BaseEnemy.obj
 0001:fffff000       __unwindfunclet$??$_Construct@$01PBD@?$basic_string@DU?$char_traits@D@std@@V?$allocator@D@2@@std@@AAEXQBDI@Z$0 00400000 f   BaseEnemy.obj
 0001:fffff000       __unwindfunclet$??$_Insert_string@DU?$char_traits@D@std@@I@std@@YAAAV?$basic_ostream@DU?$char_traits@D@std@@@0@AAV10@QBDI@Z$2 00400000 f   BaseEnemy.obj
 0001:fffff000       __unwindfunclet$??$find@V?$_Vector_iterator@V?$_Vector_val@U?$_Simple_types@PAVDisplayableObject@@@std@@@std@@@std@@PAVDisplayableObject@@@std@@YA?AV?$_Vector_iterator@V?$_Vector_val@U?$_Simple_types@PAVDisplayableObject@@@std@@@std@@@0@V10@V10@ABQAVDisplayableObject@@@Z$0 00400000 f   BaseEnemy.obj
 0001:fffff000       __unwindfunclet$??0?$_Tree_temp_node_alloc@V?$allocator@U?$_Tree_node@U?$pair@$$CBV?$basic_string@DU?$char_traits@D@std@@V?$allocator@D@2@@std@@V?$shared_ptr@VRawImageData@@@2@@std@@PAX@std@@@std@@@std@@QAE@AAV?$allocator@U?$_Tree_node@U?$pair@$$CBV?$basic_string@DU?$char_traits@D@std@@V?$allocator@D@2@@std@@V?$shared_ptr@VRawImageData@@@2@@std@@PAX@std@@@1@@Z$0 00400000 f   BaseEnemy.obj
 0001:fffff000       __unwindfunclet$??0?$_Tree_temp_node_alloc@V?$allocator@U?$_Tree_node@U?$pair@$$CBV?$basic_string@DU?$char_traits@D@std@@V?$allocator@D@2@@std@@V?$weak_ptr@VRawImageData@@@2@@std@@PAX@std@@@std@@@std@@QAE@AAV?$allocator@U?$_Tree_node@U?$pair@$$CBV?$basic_string@DU?$char_traits@D@std@@V?$allocator@D@2@@std@@V?$weak_ptr@VRawImageData@@@2@@std@@PAX@std@@@1@@Z$0 00400000 f   BaseEnemy.obj
 0001:fffff000       __unwindfunclet$??0?$basic_string@DU?$char_traits@D@std@@V?$allocator@D@2@@std@@QAE@ABV01@@Z$0 00400000 f   BaseEnemy.obj
 0001:fffff000       __unwindfunclet$??0?$basic_string@DU?$char_traits@D@std@@V?$allocator@D@2@@std@@QAE@QBD@Z$0 00400000 f   BaseEnemy.obj
 0001:fffff000       __unwindfunclet$??0ImageManager@@QAE@XZ$0 00400000 f   BaseEnemy.obj
 0001:fffff000       __unwindfunclet$??0RawImageData@@QAE@V?$basic_string@DU?$char_traits@D@std@@V?$allocator@D@2@@std@@@Z$0 00400000 f   BaseEnemy.obj
 0001:fffff000       __unwindfunclet$??0sentry@?$basic_ostream@DU?$char_traits@D@std@@@std@@QAE@AAV12@@Z$0 00400000 f   BaseEnemy.obj
 0001:fffff000       __unwindfunclet$?_Alloc_sentinel_and_proxy@?$_Tree@V?$_Tmap_traits@V?$basic_string@DU?$char_traits@D@std@@V?$allocator@D@2@@std@@V?$shared_ptr@VRawImageData@@@2@U?$less@V?$basic_string@DU?$char_traits@D@std@@V?$allocator@D@2@@std@@@2@V?$allocator@U?$pair@$$CBV?$basic_string@DU?$char_traits@D@std@@V?$allocator@D@2@@std@@V?$shared_ptr@VRawImageData@@@2@@std@@@2@$0A@@std@@@std@@IAEXXZ$0 00400000 f   BaseEnemy.obj
 0001:fffff000       __unwindfunclet$?_Alloc_sentinel_and_proxy@?$_Tree@V?$_Tmap_traits@V?$basic_string@DU?$char_traits@D@std@@V?$allocator@D@2@@std@@V?$weak_ptr@VRawImageData@@@2@U?$less@V?$basic_string@DU?$char_traits@D@std@@V?$allocator@D@2@@std@@@2@V?$allocator@U?$pair@$$CBV?$basic_string@DU?$char_traits@D@std@@V?$allocator@D@2@@std@@V?$weak_ptr@VRawImageData@@@2@@std@@@2@$0A@@std@@@std@@IAEXXZ$0 00400000 f   BaseEnemy.obj
 0001:fffff000       __unwindfunclet$?_Orphan_range_locked@?$vector@PAVDisplayableObject@@V?$allocator@PAVDisplayableObject@@@std@@@std@@ABEXPAPAVDisplayableObject@@0@Z$0 00400000 f   BaseEnemy.obj
 0001:fffff000       __unwindfunclet$?get@ImageManager@@SAPAV1@XZ$0 00400000 f   BaseEnemy.obj
 0001:fffff000       __unwindfunclet$?getImagePtrbyURL@ImageManager@@QAE?AV?$shared_ptr@VRawImageData@@@std@@V?$basic_string@DU?$char_traits@D@std@@V?$allocator@D@2@@3@_N1@Z$0 00400000 f   BaseEnemy.obj
 0001:fffff000       __unwindfunclet$?getImagebyURL@ImageManager@@QAE?AVSimpleImage@@V?$basic_string@DU?$char_traits@D@std@@V?$allocator@D@2@@std@@_N1@Z$0 00400000 f   BaseEnemy.obj
 0001:fffff000       __unwindfunclet$?loadAsNew@ImageManager@@QAE?AV?$shared_ptr@VRawImageData@@@std@@V?$basic_string@DU?$char_traits@D@std@@V?$allocator@D@2@@3@@Z$0 00400000 f   BaseEnemy.obj
 0001:fffff000       __unwindfunclet$?loadImage@ImageManager@@SA?AVSimpleImage@@V?$basic_string@DU?$char_traits@D@std@@V?$allocator@D@2@@std@@_N@Z$0 00400000 f   BaseEnemy.obj
 0001:fffff000       __unwindfunclet$?loadImage@RawImageData@@QAE_NV?$basic_string@DU?$char_traits@D@std@@V?$allocator@D@2@@std@@HHHHH_N@Z$0 00400000 f   BaseEnemy.obj
 0002:fff9a000       __unwindtable$??$?0U?$pair@V?$basic_string@DU?$char_traits@D@std@@V?$allocator@D@2@@std@@V?$shared_ptr@VRawImageData@@@2@@std@@@?$_Tree_temp_node@V?$allocator@U?$_Tree_node@U?$pair@$$CBV?$basic_string@DU?$char_traits@D@std@@V?$allocator@D@2@@std@@V?$shared_ptr@VRawImageData@@@2@@std@@PAX@std@@@std@@@std@@QAE@AAV?$allocator@U?$_Tree_node@U?$pair@$$CBV?$basic_string@DU?$char_traits@D@std@@V?$allocator@D@2@@std@@V?$shared_ptr@VRawImageData@@@2@@std@@PAX@std@@@1@PAU?$_Tree_node@U?$pair@$$CBV?$basic_string@DU?$char_traits@D@std@@V?$allocator@D@2@@std@@V?$shared_ptr@VRawImageData@@@2@@std@@PAX@1@$$QAU?$pair@V?$basic_string@DU?$char_traits@D@std@@V?$allocator@D@2@@std@@V?$shared_ptr@VRawImageData@@@2@@1@@Z 00400000     BaseEnemy.obj
 0002:fff9a000       __unwindtable$??$?0U?$pair@V?$basic_string@DU?$char_traits@D@std@@V?$allocator@D@2@@std@@V?$weak_ptr@VRawImageData@@@2@@std@@@?$_Tree_temp_node@V?$allocator@U?$_Tree_node@U?$pair@$$CBV?$basic_string@DU?$char_traits@D@std@@V?$allocator@D@2@@std@@V?$weak_ptr@VRawImageData@@@2@@std@@PAX@std@@@std@@@std@@QAE@AAV?$allocator@U?$_Tree_node@U?$pair@$$CBV?$basic_string@DU?$char_traits@D@std@@V?$allocator@D@2@@std@@V?$weak_ptr@VRawImageData@@@2@@std@@PAX@std@@@1@PAU?$_Tree_node@U?$pair@$$CBV?$basic_string@DU?$char_traits@D@std@@V?$allocator@D@2@@std@@V?$weak_ptr@VRawImageData@@@2@@std@@PAX@1@$$QAU?$pair@V?$basic_string@DU?$char_traits@D@std@@V?$allocator@D@2@@std@@V?$weak_ptr@VRawImageData@@@2@@1@@Z 00400000     BaseEnemy.obj
 0002:fff9a000       __unwindtable$??$?0VRawImageData@@$0A@@?$shared_ptr@VRawImageData@@@std@@QAE@PAVRawImageData@@@Z 00400000     BaseEnemy.obj
 0002:fff9a000       __unwindtable$??$_Construct@$00PBD@?$basic_string@DU?$char_traits@D@std@@V?$allocator@D@2@@std@@AAEXQBDI@Z 00400000     BaseEnemy.obj
 0002:fff9a000       __unwindtable$??$_Construct@$01PBD@?$basic_string@DU?$char_traits@D@std@@V?$allocator@D@2@@std@@AAEXQBDI@Z 00400000     BaseEnemy.obj
 0002:fff9a000       __unwindtable$??$find@V?$_Vector_iterator@V?$_Vector_val@U?$_Simple_types@PAVDisplayableObject@@@std@@@std@@@std@@PAVDisplayableObject@@@std@@YA?AV?$_Vector_iterator@V?$_Vector_val@U?$_Simple_types@PAVDisplayableObject@@@std@@@std@@@0@V10@V10@ABQAVDisplayableObject@@@Z 00400000     BaseEnemy.obj
 0002:fff9a000       __unwindtable$??0?$_Tree_temp_node_alloc@V?$allocator@U?$_Tree_node@U?$pair@$$CBV?$basic_string@DU?$char_traits@D@std@@V?$allocator@D@2@@std@@V?$shared_ptr@VRawImageData@@@2@@std@@PAX@std@@@std@@@std@@QAE@AAV?$allocator@U?$_Tree_node@U?$pair@$$CBV?$basic_string@DU?$char_traits@D@std@@V?$allocator@D@2@@std@@V?$shared_ptr@VRawImageData@@@2@@std@@PAX@std@@@1@@Z 00400000     BaseEnemy.obj
 0002:fff9a000       __unwindtable$??0?$_Tree_temp_node_alloc@V?$allocator@U?$_Tree_node@U?$pair@$$CBV?$basic_string@DU?$char_traits@D@std@@V?$allocator@D@2@@std@@V?$weak_ptr@VRawImageData@@@2@@std@@PAX@std@@@std@@@std@@QAE@AAV?$allocator@U?$_Tree_node@U?$pair@$$CBV?$basic_string@DU?$char_traits@D@std@@V?$allocator@D@2@@std@@V?$weak_ptr@VRawImageData@@@2@@std@@PAX@std@@@1@@Z 00400000     BaseEnemy.obj
 0002:fff9a000       __unwindtable$??0?$basic_string@DU?$char_traits@D@std@@V?$allocator@D@2@@std@@QAE@ABV01@@Z 00400000     BaseEnemy.obj
 0002:fff9a000       __unwindtable$??0?$basic_string@DU?$char_traits@D@std@@V?$allocator@D@2@@std@@QAE@QBD@Z 00400000     BaseEnemy.obj
 0002:fff9a000       __unwindtable$??0ImageManager@@QAE@XZ 00400000     BaseEnemy.obj
 0002:fff9a000       __unwindtable$??0RawImageData@@QAE@V?$basic_string@DU?$char_traits@D@std@@V?$allocator@D@2@@std@@@Z 00400000     BaseEnemy.obj
 0002:fff9a000       __unwindtable$??0sentry@?$basic_ostream@DU?$char_traits@D@std@@@std@@QAE@AAV12@@Z 00400000     BaseEnemy.obj
 0002:fff9a000       __unwindtable$?_Alloc_sentinel_and_proxy@?$_Tree@V?$_Tmap_traits@V?$basic_string@DU?$char_traits@D@std@@V?$allocator@D@2@@std@@V?$shared_ptr@VRawImageData@@@2@U?$less@V?$basic_string@DU?$char_traits@D@std@@V?$allocator@D@2@@std@@@2@V?$allocator@U?$pair@$$CBV?$basic_string@DU?$char_traits@D@std@@V?$allocator@D@2@@std@@V?$shared_ptr@VRawImageData@@@2@@std@@@2@$0A@@std@@@std@@IAEXXZ 00400000     BaseEnemy.obj
 0002:fff9a000       __unwindtable$?_Alloc_sentinel_and_proxy@?$_Tree@V?$_Tmap_traits@V?$basic_string@DU?$char_traits@D@std@@V?$allocator@D@2@@std@@V?$weak_ptr@VRawImageData@@@2@U?$less@V?$basic_string@DU?$char_traits@D@std@@V?$allocator@D@2@@std@@@2@V?$allocator@U?$pair@$$CBV?$basic_string@DU?$char_traits@D@std@@V?$allocator@D@2@@std@@V?$weak_ptr@VRawImageData@@@2@@std@@@2@$0A@@std@@@std@@IAEXXZ 00400000     BaseEnemy.obj
 0002:fff9a000       __unwindtable$?_Orphan_range_locked@?$vector@PAVDisplayableObject@@V?$allocator@PAVDisplayableObject@@@std@@@std@@ABEXPAPAVDisplayableObject@@0@Z 00400000     BaseEnemy.obj
 0002:fff9a000       __unwindtable$?get@ImageManager@@SAPAV1@XZ 00400000     BaseEnemy.obj
 0002:fff9a000       __unwindtable$?getImagebyURL@ImageManager@@QAE?AVSimpleImage@@V?$basic_string@DU?$char_traits@D@std@@V?$allocator@D@2@@std@@_N1@Z 00400000     BaseEnemy.obj
 0002:fff9a000       __unwindtable$?loadAsNew@ImageManager@@QAE?AV?$shared_ptr@VRawImageData@@@std@@V?$basic_string@DU?$char_traits@D@std@@V?$allocator@D@2@@3@@Z 00400000     BaseEnemy.obj
 0002:fff9a000       __unwindtable$?loadImage@ImageManager@@SA?AVSimpleImage@@V?$basic_string@DU?$char_traits@D@std@@V?$allocator@D@2@@std@@_N@Z 00400000     BaseEnemy.obj
 0002:fff9a000       __unwindtable$?loadImage@RawImageData@@QAE_NV?$basic_string@DU?$char_traits@D@std@@V?$allocator@D@2@@std@@HHHHH_N@Z 00400000     BaseEnemy.obj
 0000:00000000       _volmd                     00400000     BaseEnemy.obj
 0000:00000000       _volmd                     00400000     BaseEnemy.obj
 0000:00000000       _volmd                     00400000     BaseEnemy.obj
 0000:00000000       _volmd                     00400000     BaseEnemy.obj
 0000:00000000       _volmd                     00400000     BaseEnemy.obj
 0000:00000000       _volmd                     00400000     BaseEnemy.obj
 0000:00000000       _volmd                     00400000     BaseEnemy.obj
 0000:00000000       _volmd                     00400000     BaseEnemy.obj
 0000:00000000       _volmd                     00400000     BaseEnemy.obj
 0000:00000000       _volmd                     00400000     BaseEnemy.obj
 0000:00000000       _volmd                     00400000     BaseEnemy.obj
 0000:00000000       _volmd                     00400000     BaseEnemy.obj
 0000:00000000       _volmd                     00400000     BaseEnemy.obj
 0000:00000000       _volmd                     00400000     BaseEnemy.obj
 0000:00000000       _volmd                     00400000     BaseEnemy.obj
 0000:00000000       _volmd                     00400000     BaseEnemy.obj
 0000:00000000       _volmd                     00400000     BaseEnemy.obj
 0000:00000000       _volmd                     00400000     BaseEnemy.obj
 0000:00000000       _volmd                     00400000     BaseEnemy.obj
 0000:00000000       _volmd                     00400000     BaseEnemy.obj
 0000:00000000       _volmd                     00400000     BaseEnemy.obj
 0000:00000000       _volmd                     00400000     BaseEnemy.obj
 0000:00000000       _volmd                     00400000     BaseEnemy.obj
 0000:00000000       _volmd                     00400000     BaseEnemy.obj
 0000:00000000       _volmd                     00400000     BaseEnemy.obj
 0000:00000000       _volmd                     00400000     BaseEnemy.obj
 0000:00000000       _volmd                     00400000     BaseEnemy.obj
 0000:00000000       _volmd                     00400000     BaseEnemy.obj
 0000:00000000       _volmd                     00400000     BaseEnemy.obj
 0000:00000000       _volmd                     00400000     BaseEnemy.obj
 0000:00000000       _volmd                     00400000     BaseEnemy.obj
 0000:00000000       _volmd                     00400000     BaseEnemy.obj
 0000:00000000       _volmd                     00400000     BaseEnemy.obj
 0000:00000000       _volmd                     00400000     BaseEnemy.obj
 0000:00000000       _volmd                     00400000     BaseEnemy.obj
 0000:00000000       _volmd                     00400000     BaseEnemy.obj
 0000:00000000       _volmd                     00400000     BaseEnemy.obj
 0000:00000000       _volmd                     00400000     BaseEnemy.obj
 0000:00000000       _volmd                     00400000     BaseEnemy.obj
 0000:00000000       _volmd                     00400000     BaseEnemy.obj
 0002:fff9a000       __ehfuncinfo$??$_Deallocate@$07@std@@YAXPAXI@Z 00400000     BaseEngine.obj
 0002:fff9a000       __ehfuncinfo$??$_Deallocate_plain@V?$allocator@U_Container_proxy@std@@@std@@@std@@YAXAAV?$allocator@U_Container_proxy@std@@@0@QAU_Container_proxy@0@@Z 00400000     BaseEngine.obj
 0002:fff9a000       __ehfuncinfo$??1DisplayableObjectContainer@@UAE@XZ 00400000     BaseEngine.obj
 0002:fff9a000       __ehfuncinfo$?_Tidy@?$vector@PAVDisplayableObject@@V?$allocator@PAVDisplayableObject@@@std@@@std@@AAEXXZ 00400000     BaseEngine.obj
 0001:fffff000       __ehhandler$??$_Deallocate@$07@std@@YAXPAXI@Z 00400000 f   BaseEngine.obj
 0001:fffff000       __ehhandler$??$_Deallocate_plain@V?$allocator@U_Container_proxy@std@@@std@@@std@@YAXAAV?$allocator@U_Container_proxy@std@@@0@QAU_Container_proxy@0@@Z 00400000 f   BaseEngine.obj
 0001:fffff000       __ehhandler$??1DisplayableObjectContainer@@UAE@XZ 00400000 f   BaseEngine.obj
 0001:fffff000       __ehhandler$?_Tidy@?$vector@PAVDisplayableObject@@V?$allocator@PAVDisplayableObject@@@std@@@std@@AAEXXZ 00400000 f   BaseEngine.obj
 0001:fffff000       __unwindfunclet$??$_Construct_n@$$V@?$vector@PAVDisplayableObject@@V?$allocator@PAVDisplayableObject@@@std@@@std@@AAEXI@Z$0 00400000 f   BaseEngine.obj
 0001:fffff000       __unwindfunclet$??$_Uninitialized_value_construct_n@V?$allocator@PAVDisplayableObject@@@std@@@std@@YAPAPAVDisplayableObject@@PAPAV1@IAAV?$allocator@PAVDisplayableObject@@@0@@Z$0 00400000 f   BaseEngine.obj
 0002:fff9a000       __unwindtable$??$_Construct_n@$$V@?$vector@PAVDisplayableObject@@V?$allocator@PAVDisplayableObject@@@std@@@std@@AAEXI@Z 00400000     BaseEngine.obj
 0002:fff9a000       __unwindtable$??$_Uninitialized_value_construct_n@V?$allocator@PAVDisplayableObject@@@std@@@std@@YAPAPAVDisplayableObject@@PAPAV1@IAAV?$allocator@PAVDisplayableObject@@@0@@Z 00400000     BaseEngine.obj
 0000:00000000       _volmd                     00400000     BaseEngine.obj
 0000:00000000       _volmd                     00400000     BaseEngine.obj
 0000:00000000       _volmd                     00400000     BaseEngine.obj
 0000:00000000       _volmd                     00400000     BaseEngine.obj
 0000:00000000       _volmd                     00400000     BaseEngine.obj
 0000:00000000       _volmd                     00400000     BaseEngine.obj
 0000:00000000       _volmd                     00400000     BaseEngine.obj
 0000:00000000       _volmd                     00400000     BaseEngine.obj
 0000:00000000       _volmd                     00400000     BaseEngine.obj
 0000:00000000       _volmd                     00400000     BaseEngine.obj
 0000:00000000       _volmd                     00400000     BaseEngine.obj
 0000:00000000       _volmd                     00400000     BaseEngine.obj
 0000:00000000       _volmd                     00400000     BaseEngine.obj
 0002:fff9a000       __catchsym$??$?6U?$char_traits@D@std@@@std@@YAAAV?$basic_ostream@DU?$char_traits@D@std@@@0@AAV10@PBD@Z$3 00400000     BaseEntity.obj
 0002:fff9a000       __ehfuncinfo$??1_Sentry_base@?$basic_ostream@DU?$char_traits@D@std@@@std@@QAE@XZ 00400000     BaseEntity.obj
 0002:fff9a000       __ehfuncinfo$?erase@?$vector@PAVDisplayableObject@@V?$allocator@PAVDisplayableObject@@@std@@@std@@QAE?AV?$_Vector_iterator@V?$_Vector_val@U?$_Simple_types@PAVDisplayableObject@@@std@@@std@@@2@V?$_Vector_const_iterator@V?$_Vector_val@U?$_Simple_types@PAVDisplayableObject@@@std@@@std@@@2@@Z 00400000     BaseEntity.obj
 0001:fffff000       __ehhandler$??1_Sentry_base@?$basic_ostream@DU?$char_traits@D@std@@@std@@QAE@XZ 00400000 f   BaseEntity.obj
 0001:fffff000       __ehhandler$?erase@?$vector@PAVDisplayableObject@@V?$allocator@PAVDisplayableObject@@@std@@@std@@QAE?AV?$_Vector_iterator@V?$_Vector_val@U?$_Simple_types@PAVDisplayableObject@@@std@@@std@@@2@V?$_Vector_const_iterator@V?$_Vector_val@U?$_Simple_types@PAVDisplayableObject@@@std@@@std@@@2@@Z 00400000 f   BaseEntity.obj
 0001:fffff000       __unwindfunclet$??$?6U?$char_traits@D@std@@@std@@YAAAV?$basic_ostream@DU?$char_traits@D@std@@@0@AAV10@PBD@Z$2 00400000 f   BaseEntity.obj
 0001:fffff000       __unwindfunclet$??$find@V?$_Vector_iterator@V?$_Vector_val@U?$_Simple_types@PAVDisplayableObject@@@std@@@std@@@std@@PAVDisplayableObject@@@std@@YA?AV?$_Vector_iterator@V?$_Vector_val@U?$_Simple_types@PAVDisplayableObject@@@std@@@std@@@0@V10@V10@ABQAVDisplayableObject@@@Z$0 00400000 f   BaseEntity.obj
 0001:fffff000       __unwindfunclet$??0sentry@?$basic_ostream@DU?$char_traits@D@std@@@std@@QAE@AAV12@@Z$0 00400000 f   BaseEntity.obj
 0001:fffff000       __unwindfunclet$?_Orphan_range_locked@?$vector@PAVDisplayableObject@@V?$allocator@PAVDisplayableObject@@@std@@@std@@ABEXPAPAVDisplayableObject@@0@Z$0 00400000 f   BaseEntity.obj
 0002:fff9a000       __unwindtable$??$find@V?$_Vector_iterator@V?$_Vector_val@U?$_Simple_types@PAVDisplayableObject@@@std@@@std@@@std@@PAVDisplayableObject@@@std@@YA?AV?$_Vector_iterator@V?$_Vector_val@U?$_Simple_types@PAVDisplayableObject@@@std@@@std@@@0@V10@V10@ABQAVDisplayableObject@@@Z 00400000     BaseEntity.obj
 0002:fff9a000       __unwindtable$??0sentry@?$basic_ostream@DU?$char_traits@D@std@@@std@@QAE@AAV12@@Z 00400000     BaseEntity.obj
 0002:fff9a000       __unwindtable$?_Orphan_range_locked@?$vector@PAVDisplayableObject@@V?$allocator@PAVDisplayableObject@@@std@@@std@@ABEXPAPAVDisplayableObject@@0@Z 00400000     BaseEntity.obj
 0000:00000000       _volmd                     00400000     BaseEntity.obj
 0000:00000000       _volmd                     00400000     BaseEntity.obj
 0000:00000000       _volmd                     00400000     BaseEntity.obj
 0000:00000000       _volmd                     00400000     BaseEntity.obj
 0000:00000000       _volmd                     00400000     BaseEntity.obj
 0000:00000000       _volmd                     00400000     BaseEntity.obj
 0000:00000000       _volmd                     00400000     BaseEntity.obj
 0000:00000000       _volmd                     00400000     BaseRangedAttack.obj
 0000:00000000       _volmd                     00400000     BaseRangedAttack.obj
 0002:fff9a000       __ehfuncinfo$??$_Deallocate@$07@std@@YAXPAXI@Z 00400000     BaseStateManager.obj
 0001:fffff000       __ehhandler$??$_Deallocate@$07@std@@YAXPAXI@Z 00400000 f   BaseStateManager.obj
 0001:fffff000       __unwindfunclet$?_Orphan_range_locked@?$vector@PAVDisplayableObject@@V?$allocator@PAVDisplayableObject@@@std@@@std@@ABEXPAPAVDisplayableObject@@0@Z$0 00400000 f   BaseStateManager.obj
 0002:fff9a000       __unwindtable$?_Orphan_range_locked@?$vector@PAVDisplayableObject@@V?$allocator@PAVDisplayableObject@@@std@@@std@@ABEXPAPAVDisplayableObject@@0@Z 00400000     BaseStateManager.obj
 0000:00000000       _volmd                     00400000     BaseStateManager.obj
 0000:00000000       _volmd                     00400000     BaseStateManager.obj
 0000:00000000       _volmd                     00400000     BaseStateManager.obj
 0000:00000000       _volmd                     00400000     BaseStateManager.obj
 0000:00000000       _volmd                     00400000     BaseStateManager.obj
 0000:00000000       _volmd                     00400000     BaseStateManager.obj
 0002:fff9a000       __catchsym$??$?6U?$char_traits@D@std@@@std@@YAAAV?$basic_ostream@DU?$char_traits@D@std@@@0@AAV10@PBD@Z$3 00400000     BouncingBall.obj
 0002:fff9a000       __ehfuncinfo$??1_Sentry_base@?$basic_ostream@DU?$char_traits@D@std@@@std@@QAE@XZ 00400000     BouncingBall.obj
 0001:fffff000       __ehhandler$??1_Sentry_base@?$basic_ostream@DU?$char_traits@D@std@@@std@@QAE@XZ 00400000 f   BouncingBall.obj
 0001:fffff000       __unwindfunclet$??$?6U?$char_traits@D@std@@@std@@YAAAV?$basic_ostream@DU?$char_traits@D@std@@@0@AAV10@PBD@Z$2 00400000 f   BouncingBall.obj
 0001:fffff000       __unwindfunclet$??0sentry@?$basic_ostream@DU?$char_traits@D@std@@@std@@QAE@AAV12@@Z$0 00400000 f   BouncingBall.obj
 0002:fff9a000       __unwindtable$??0sentry@?$basic_ostream@DU?$char_traits@D@std@@@std@@QAE@AAV12@@Z 00400000     BouncingBall.obj
 0000:00000000       _volmd                     00400000     BouncingBall.obj
 0000:00000000       _volmd                     00400000     BouncingBall.obj
 0000:00000000       _volmd                     00400000     BouncingBall.obj
 0000:00000000       _volmd                     00400000     BouncingBall.obj
 0002:fff9a000       __catchsym$??$?6U?$char_traits@D@std@@@std@@YAAAV?$basic_ostream@DU?$char_traits@D@std@@@0@AAV10@PBD@Z$3 00400000     BouncingBallMain.obj
 0002:fff9a000       __catchsym$??$_Resize_reallocate@U_Value_init_tag@std@@@?$vector@PAVDisplayableObject@@V?$allocator@PAVDisplayableObject@@@std@@@std@@AAEXIABU_Value_init_tag@1@@Z$2 00400000     BouncingBallMain.obj
 0002:fff9a000       __ehfuncinfo$??$_Deallocate@$07@std@@YAXPAXI@Z 00400000     BouncingBallMain.obj
 0002:fff9a000       __ehfuncinfo$??1_Sentry_base@?$basic_ostream@DU?$char_traits@D@std@@@std@@QAE@XZ 00400000     BouncingBallMain.obj
 0001:fffff000       __ehhandler$??$_Deallocate@$07@std@@YAXPAXI@Z 00400000 f   BouncingBallMain.obj
 0001:fffff000       __ehhandler$??$_Resize_reallocate@U_Value_init_tag@std@@@?$vector@PAVDisplayableObject@@V?$allocator@PAVDisplayableObject@@@std@@@std@@AAEXIABU_Value_init_tag@1@@Z 00400000 f   BouncingBallMain.obj
 0001:fffff000       __ehhandler$??1_Sentry_base@?$basic_ostream@DU?$char_traits@D@std@@@std@@QAE@XZ 00400000 f   BouncingBallMain.obj
 0001:fffff000       __unwindfunclet$??$?6U?$char_traits@D@std@@@std@@YAAAV?$basic_ostream@DU?$char_traits@D@std@@@0@AAV10@PBD@Z$2 00400000 f   BouncingBallMain.obj
 0001:fffff000       __unwindfunclet$??$_Uninitialized_move@PAPAVDisplayableObject@@V?$allocator@PAVDisplayableObject@@@std@@@std@@YAPAPAVDisplayableObject@@QAPAV1@0PAPAV1@AAV?$allocator@PAVDisplayableObject@@@0@@Z$0 00400000 f   BouncingBallMain.obj
 0001:fffff000       __unwindfunclet$??$_Uninitialized_value_construct_n@V?$allocator@PAVDisplayableObject@@@std@@@std@@YAPAPAVDisplayableObject@@PAPAV1@IAAV?$allocator@PAVDisplayableObject@@@0@@Z$0 00400000 f   BouncingBallMain.obj
 0001:fffff000       __unwindfunclet$??0sentry@?$basic_ostream@DU?$char_traits@D@std@@@std@@QAE@AAV12@@Z$0 00400000 f   BouncingBallMain.obj
 0001:fffff000       __unwindfunclet$?_Orphan_range_locked@?$vector@PAVDisplayableObject@@V?$allocator@PAVDisplayableObject@@@std@@@std@@ABEXPAPAVDisplayableObject@@0@Z$0 00400000 f   BouncingBallMain.obj
 0002:fff9a000       __unwindtable$??$_Uninitialized_move@PAPAVDisplayableObject@@V?$allocator@PAVDisplayableObject@@@std@@@std@@YAPAPAVDisplayableObject@@QAPAV1@0PAPAV1@AAV?$allocator@PAVDisplayableObject@@@0@@Z 00400000     BouncingBallMain.obj
 0002:fff9a000       __unwindtable$??$_Uninitialized_value_construct_n@V?$allocator@PAVDisplayableObject@@@std@@@std@@YAPAPAVDisplayableObject@@PAPAV1@IAAV?$allocator@PAVDisplayableObject@@@0@@Z 00400000     BouncingBallMain.obj
 0002:fff9a000       __unwindtable$??0sentry@?$basic_ostream@DU?$char_traits@D@std@@@std@@QAE@AAV12@@Z 00400000     BouncingBallMain.obj
 0002:fff9a000       __unwindtable$?_Orphan_range_locked@?$vector@PAVDisplayableObject@@V?$allocator@PAVDisplayableObject@@@std@@@std@@ABEXPAPAVDisplayableObject@@0@Z 00400000     BouncingBallMain.obj
 0000:00000000       _volmd                     00400000     BouncingBallMain.obj
 0000:00000000       _volmd                     00400000     BouncingBallMain.obj
 0000:00000000       _volmd                     00400000     BouncingBallMain.obj
 0000:00000000       _volmd                     00400000     BouncingBallMain.obj
 0000:00000000       _volmd                     00400000     BouncingBallMain.obj
 0000:00000000       _volmd                     00400000     BouncingBallMain.obj
 0000:00000000       _volmd                     00400000     BouncingBallMain.obj
 0000:00000000       _volmd                     00400000     BouncingBallMain.obj
 0000:00000000       _volmd                     00400000     BouncingBallMain.obj
 0000:00000000       _volmd                     00400000     BouncingBallMain.obj
 0000:00000000       _volmd                     00400000     BouncingBallMain.obj
 0000:00000000       _volmd                     00400000     BouncingBallMain.obj
 0000:00000000       _volmd                     00400000     BouncingBallMain.obj
 0000:00000000       _volmd                     00400000     BouncingBallMain.obj
 0002:fff9a000       __catchsym$??$?6U?$char_traits@D@std@@@std@@YAAAV?$basic_ostream@DU?$char_traits@D@std@@@0@AAV10@PBD@Z$3 00400000     ChaseObject.obj
 0002:fff9a000       __catchsym$??$_Insert_string@DU?$char_traits@D@std@@I@std@@YAAAV?$basic_ostream@DU?$char_traits@D@std@@@0@AAV10@QBDI@Z$3 00400000     ChaseObject.obj
 0002:fff9a000       __ehfuncinfo$??$_Deallocate@$07@std@@YAXPAXI@Z 00400000     ChaseObject.obj
 0002:fff9a000       __ehfuncinfo$??$_Deallocate_plain@V?$allocator@U_Container_proxy@std@@@std@@@std@@YAXAAV?$allocator@U_Container_proxy@std@@@0@QAU_Container_proxy@0@@Z 00400000     ChaseObject.obj
 0002:fff9a000       __ehfuncinfo$??$_Freenode0@V?$allocator@U?$_Tree_node@U?$pair@$$CBV?$basic_string@DU?$char_traits@D@std@@V?$allocator@D@2@@std@@V?$weak_ptr@VRawImageData@@@2@@std@@PAX@std@@@std@@@?$_Tree_node@U?$pair@$$CBV?$basic_string@DU?$char_traits@D@std@@V?$allocator@D@2@@std@@V?$weak_ptr@VRawImageData@@@2@@std@@PAX@std@@SAXAAV?$allocator@U?$_Tree_node@U?$pair@$$CBV?$basic_string@DU?$char_traits@D@std@@V?$allocator@D@2@@std@@V?$weak_ptr@VRawImageData@@@2@@std@@PAX@std@@@1@PAU01@@Z 00400000     ChaseObject.obj
 0002:fff9a000       __ehfuncinfo$??$_Freenode@V?$allocator@U?$_Tree_node@U?$pair@$$CBV?$basic_string@DU?$char_traits@D@std@@V?$allocator@D@2@@std@@V?$weak_ptr@VRawImageData@@@2@@std@@PAX@std@@@std@@@?$_Tree_node@U?$pair@$$CBV?$basic_string@DU?$char_traits@D@std@@V?$allocator@D@2@@std@@V?$weak_ptr@VRawImageData@@@2@@std@@PAX@std@@SAXAAV?$allocator@U?$_Tree_node@U?$pair@$$CBV?$basic_string@DU?$char_traits@D@std@@V?$allocator@D@2@@std@@V?$weak_ptr@VRawImageData@@@2@@std@@PAX@std@@@1@PAU01@@Z 00400000     ChaseObject.obj
 0002:fff9a000       __ehfuncinfo$??0?$basic_string@DU?$char_traits@D@std@@V?$allocator@D@2@@std@@QAE@$$QAV01@@Z 00400000     ChaseObject.obj
 0002:fff9a000       __ehfuncinfo$??0?$basic_string@DU?$char_traits@D@std@@V?$allocator@D@2@@std@@QAE@XZ 00400000     ChaseObject.obj
 0002:fff9a000       __ehfuncinfo$??1?$_Alloc_construct_ptr@V?$allocator@U?$_Tree_node@U?$pair@$$CBV?$basic_string@DU?$char_traits@D@std@@V?$allocator@D@2@@std@@V?$shared_ptr@VRawImageData@@@2@@std@@PAX@std@@@std@@@std@@QAE@XZ 00400000     ChaseObject.obj
 0002:fff9a000       __ehfuncinfo$??1?$_Alloc_construct_ptr@V?$allocator@U?$_Tree_node@U?$pair@$$CBV?$basic_string@DU?$char_traits@D@std@@V?$allocator@D@2@@std@@V?$weak_ptr@VRawImageData@@@2@@std@@PAX@std@@@std@@@std@@QAE@XZ 00400000     ChaseObject.obj
 0002:fff9a000       __ehfuncinfo$??1?$_Tree_temp_node@V?$allocator@U?$_Tree_node@U?$pair@$$CBV?$basic_string@DU?$char_traits@D@std@@V?$allocator@D@2@@std@@V?$shared_ptr@VRawImageData@@@2@@std@@PAX@std@@@std@@@std@@QAE@XZ 00400000     ChaseObject.obj
 0002:fff9a000       __ehfuncinfo$??1?$_Tree_temp_node@V?$allocator@U?$_Tree_node@U?$pair@$$CBV?$basic_string@DU?$char_traits@D@std@@V?$allocator@D@2@@std@@V?$weak_ptr@VRawImageData@@@2@@std@@PAX@std@@@std@@@std@@QAE@XZ 00400000     ChaseObject.obj
 0002:fff9a000       __ehfuncinfo$??1RawImageData@@QAE@XZ 00400000     ChaseObject.obj
 0002:fff9a000       __ehfuncinfo$??1_Sentry_base@?$basic_ostream@DU?$char_traits@D@std@@@std@@QAE@XZ 00400000     ChaseObject.obj
 0002:fff9a000       __ehfuncinfo$?_Deallocate_for_capacity@?$basic_string@DU?$char_traits@D@std@@V?$allocator@D@2@@std@@CAXAAV?$allocator@D@2@QADI@Z 00400000     ChaseObject.obj
 0002:fff9a000       __ehfuncinfo$?getImagePtrbyURL@ImageManager@@QAE?AV?$shared_ptr@VRawImageData@@@std@@V?$basic_string@DU?$char_traits@D@std@@V?$allocator@D@2@@3@_N1@Z 00400000     ChaseObject.obj
 0001:fffff000       __ehhandler$??$_Deallocate@$07@std@@YAXPAXI@Z 00400000 f   ChaseObject.obj
 0001:fffff000       __ehhandler$??$_Deallocate_plain@V?$allocator@U_Container_proxy@std@@@std@@@std@@YAXAAV?$allocator@U_Container_proxy@std@@@0@QAU_Container_proxy@0@@Z 00400000 f   ChaseObject.obj
 0001:fffff000       __ehhandler$??$_Freenode0@V?$allocator@U?$_Tree_node@U?$pair@$$CBV?$basic_string@DU?$char_traits@D@std@@V?$allocator@D@2@@std@@V?$weak_ptr@VRawImageData@@@2@@std@@PAX@std@@@std@@@?$_Tree_node@U?$pair@$$CBV?$basic_string@DU?$char_traits@D@std@@V?$allocator@D@2@@std@@V?$weak_ptr@VRawImageData@@@2@@std@@PAX@std@@SAXAAV?$allocator@U?$_Tree_node@U?$pair@$$CBV?$basic_string@DU?$char_traits@D@std@@V?$allocator@D@2@@std@@V?$weak_ptr@VRawImageData@@@2@@std@@PAX@std@@@1@PAU01@@Z 00400000 f   ChaseObject.obj
 0001:fffff000       __ehhandler$??$_Freenode@V?$allocator@U?$_Tree_node@U?$pair@$$CBV?$basic_string@DU?$char_traits@D@std@@V?$allocator@D@2@@std@@V?$weak_ptr@VRawImageData@@@2@@std@@PAX@std@@@std@@@?$_Tree_node@U?$pair@$$CBV?$basic_string@DU?$char_traits@D@std@@V?$allocator@D@2@@std@@V?$weak_ptr@VRawImageData@@@2@@std@@PAX@std@@SAXAAV?$allocator@U?$_Tree_node@U?$pair@$$CBV?$basic_string@DU?$char_traits@D@std@@V?$allocator@D@2@@std@@V?$weak_ptr@VRawImageData@@@2@@std@@PAX@std@@@1@PAU01@@Z 00400000 f   ChaseObject.obj
 0001:fffff000       __ehhandler$??0?$basic_string@DU?$char_traits@D@std@@V?$allocator@D@2@@std@@QAE@$$QAV01@@Z 00400000 f   ChaseObject.obj
 0001:fffff000       __ehhandler$??0?$basic_string@DU?$char_traits@D@std@@V?$allocator@D@2@@std@@QAE@XZ 00400000 f   ChaseObject.obj
 0001:fffff000       __ehhandler$??1?$_Alloc_construct_ptr@V?$allocator@U?$_Tree_node@U?$pair@$$CBV?$basic_string@DU?$char_traits@D@std@@V?$allocator@D@2@@std@@V?$shared_ptr@VRawImageData@@@2@@std@@PAX@std@@@std@@@std@@QAE@XZ 00400000 f   ChaseObject.obj
 0001:fffff000       __ehhandler$??1?$_Alloc_construct_ptr@V?$allocator@U?$_Tree_node@U?$pair@$$CBV?$basic_string@DU?$char_traits@D@std@@V?$allocator@D@2@@std@@V?$weak_ptr@VRawImageData@@@2@@std@@PAX@std@@@std@@@std@@QAE@XZ 00400000 f   ChaseObject.obj
 0001:fffff000       __ehhandler$??1?$_Tree_temp_node@V?$allocator@U?$_Tree_node@U?$pair@$$CBV?$basic_string@DU?$char_traits@D@std@@V?$allocator@D@2@@std@@V?$shared_ptr@VRawImageData@@@2@@std@@PAX@std@@@std@@@std@@QAE@XZ 00400000 f   ChaseObject.obj
 0001:fffff000       __ehhandler$??1?$_Tree_temp_node@V?$allocator@U?$_Tree_node@U?$pair@$$CBV?$basic_string@DU?$char_traits@D@std@@V?$allocator@D@2@@std@@V?$weak_ptr@VRawImageData@@@2@@std@@PAX@std@@@std@@@std@@QAE@XZ 00400000 f   ChaseObject.obj
 0001:fffff000       __ehhandler$??1RawImageData@@QAE@XZ 00400000 f   ChaseObject.obj
 0001:fffff000       __ehhandler$??1_Sentry_base@?$basic_ostream@DU?$char_traits@D@std@@@std@@QAE@XZ 00400000 f   ChaseObject.obj
 0001:fffff000       __ehhandler$?_Deallocate_for_capacity@?$basic_string@DU?$char_traits@D@std@@V?$allocator@D@2@@std@@CAXAAV?$allocator@D@2@QADI@Z 00400000 f   ChaseObject.obj
 0001:fffff000       __unwindfunclet$??$?0U?$pair@V?$basic_string@DU?$char_traits@D@std@@V?$allocator@D@2@@std@@V?$shared_ptr@VRawImageData@@@2@@std@@@?$_Tree_temp_node@V?$allocator@U?$_Tree_node@U?$pair@$$CBV?$basic_string@DU?$char_traits@D@std@@V?$allocator@D@2@@std@@V?$shared_ptr@VRawImageData@@@2@@std@@PAX@std@@@std@@@std@@QAE@AAV?$allocator@U?$_Tree_node@U?$pair@$$CBV?$basic_string@DU?$char_traits@D@std@@V?$allocator@D@2@@std@@V?$shared_ptr@VRawImageData@@@2@@std@@PAX@std@@@1@PAU?$_Tree_node@U?$pair@$$CBV?$basic_string@DU?$char_traits@D@std@@V?$allocator@D@2@@std@@V?$shared_ptr@VRawImageData@@@2@@std@@PAX@1@$$QAU?$pair@V?$basic_string@DU?$char_traits@D@std@@V?$allocator@D@2@@std@@V?$shared_ptr@VRawImageData@@@2@@1@@Z$0 00400000 f   ChaseObject.obj
 0001:fffff000       __unwindfunclet$??$?0U?$pair@V?$basic_string@DU?$char_traits@D@std@@V?$allocator@D@2@@std@@V?$weak_ptr@VRawImageData@@@2@@std@@@?$_Tree_temp_node@V?$allocator@U?$_Tree_node@U?$pair@$$CBV?$basic_string@DU?$char_traits@D@std@@V?$allocator@D@2@@std@@V?$weak_ptr@VRawImageData@@@2@@std@@PAX@std@@@std@@@std@@QAE@AAV?$allocator@U?$_Tree_node@U?$pair@$$CBV?$basic_string@DU?$char_traits@D@std@@V?$allocator@D@2@@std@@V?$weak_ptr@VRawImageData@@@2@@std@@PAX@std@@@1@PAU?$_Tree_node@U?$pair@$$CBV?$basic_string@DU?$char_traits@D@std@@V?$allocator@D@2@@std@@V?$weak_ptr@VRawImageData@@@2@@std@@PAX@1@$$QAU?$pair@V?$basic_string@DU?$char_traits@D@std@@V?$allocator@D@2@@std@@V?$weak_ptr@VRawImageData@@@2@@1@@Z$0 00400000 f   ChaseObject.obj
 0001:fffff000       __unwindfunclet$??$?0VRawImageData@@$0A@@?$shared_ptr@VRawImageData@@@std@@QAE@PAVRawImageData@@@Z$0 00400000 f   ChaseObject.obj
 0001:fffff000       __unwindfunclet$??$?6U?$char_traits@D@std@@@std@@YAAAV?$basic_ostream@DU?$char_traits@D@std@@@0@AAV10@PBD@Z$2 00400000 f   ChaseObject.obj
 0001:fffff000       __unwindfunclet$??$_Construct@$00PBD@?$basic_string@DU?$char_traits@D@std@@V?$allocator@D@2@@std@@AAEXQBDI@Z$0 00400000 f   ChaseObject.obj
 0001:fffff000       __unwindfunclet$??$_Construct@$01PBD@?$basic_string@DU?$char_traits@D@std@@V?$allocator@D@2@@std@@AAEXQBDI@Z$0 00400000 f   ChaseObject.obj
 0001:fffff000       __unwindfunclet$??$_Insert_string@DU?$char_traits@D@std@@I@std@@YAAAV?$basic_ostream@DU?$char_traits@D@std@@@0@AAV10@QBDI@Z$2 00400000 f   ChaseObject.obj
 0001:fffff000       __unwindfunclet$??0?$_Tree_temp_node_alloc@V?$allocator@U?$_Tree_node@U?$pair@$$CBV?$basic_string@DU?$char_traits@D@std@@V?$allocator@D@2@@std@@V?$shared_ptr@VRawImageData@@@2@@std@@PAX@std@@@std@@@std@@QAE@AAV?$allocator@U?$_Tree_node@U?$pair@$$CBV?$basic_string@DU?$char_traits@D@std@@V?$allocator@D@2@@std@@V?$shared_ptr@VRawImageData@@@2@@std@@PAX@std@@@1@@Z$0 00400000 f   ChaseObject.obj
 0001:fffff000       __unwindfunclet$??0?$_Tree_temp_node_alloc@V?$allocator@U?$_Tree_node@U?$pair@$$CBV?$basic_string@DU?$char_traits@D@std@@V?$allocator@D@2@@std@@V?$weak_ptr@VRawImageData@@@2@@std@@PAX@std@@@std@@@std@@QAE@AAV?$allocator@U?$_Tree_node@U?$pair@$$CBV?$basic_string@DU?$char_traits@D@std@@V?$allocator@D@2@@std@@V?$weak_ptr@VRawImageData@@@2@@std@@PAX@std@@@1@@Z$0 00400000 f   ChaseObject.obj
 0001:fffff000       __unwindfunclet$??0?$basic_string@DU?$char_traits@D@std@@V?$allocator@D@2@@std@@QAE@ABV01@@Z$0 00400000 f   ChaseObject.obj
 0001:fffff000       __unwindfunclet$??0?$basic_string@DU?$char_traits@D@std@@V?$allocator@D@2@@std@@QAE@QBD@Z$0 00400000 f   ChaseObject.obj
 0001:fffff000       __unwindfunclet$??0ImageManager@@QAE@XZ$0 00400000 f   ChaseObject.obj
 0001:fffff000       __unwindfunclet$??0RawImageData@@QAE@V?$basic_string@DU?$char_traits@D@std@@V?$allocator@D@2@@std@@@Z$0 00400000 f   ChaseObject.obj
 0001:fffff000       __unwindfunclet$??0sentry@?$basic_ostream@DU?$char_traits@D@std@@@std@@QAE@AAV12@@Z$0 00400000 f   ChaseObject.obj
 0001:fffff000       __unwindfunclet$?_Alloc_sentinel_and_proxy@?$_Tree@V?$_Tmap_traits@V?$basic_string@DU?$char_traits@D@std@@V?$allocator@D@2@@std@@V?$shared_ptr@VRawImageData@@@2@U?$less@V?$basic_string@DU?$char_traits@D@std@@V?$allocator@D@2@@std@@@2@V?$allocator@U?$pair@$$CBV?$basic_string@DU?$char_traits@D@std@@V?$allocator@D@2@@std@@V?$shared_ptr@VRawImageData@@@2@@std@@@2@$0A@@std@@@std@@IAEXXZ$0 00400000 f   ChaseObject.obj
 0001:fffff000       __unwindfunclet$?_Alloc_sentinel_and_proxy@?$_Tree@V?$_Tmap_traits@V?$basic_string@DU?$char_traits@D@std@@V?$allocator@D@2@@std@@V?$weak_ptr@VRawImageData@@@2@U?$less@V?$basic_string@DU?$char_traits@D@std@@V?$allocator@D@2@@std@@@2@V?$allocator@U?$pair@$$CBV?$basic_string@DU?$char_traits@D@std@@V?$allocator@D@2@@std@@V?$weak_ptr@VRawImageData@@@2@@std@@@2@$0A@@std@@@std@@IAEXXZ$0 00400000 f   ChaseObject.obj
 0001:fffff000       __unwindfunclet$?get@ImageManager@@SAPAV1@XZ$0 00400000 f   ChaseObject.obj
 0001:fffff000       __unwindfunclet$?getImagePtrbyURL@ImageManager@@QAE?AV?$shared_ptr@VRawImageData@@@std@@V?$basic_string@DU?$char_traits@D@std@@V?$allocator@D@2@@3@_N1@Z$0 00400000 f   ChaseObject.obj
 0001:fffff000       __unwindfunclet$?getImagebyURL@ImageManager@@QAE?AVSimpleImage@@V?$basic_string@DU?$char_traits@D@std@@V?$allocator@D@2@@std@@_N1@Z$0 00400000 f   ChaseObject.obj
 0001:fffff000       __unwindfunclet$?loadAsNew@ImageManager@@QAE?AV?$shared_ptr@VRawImageData@@@std@@V?$basic_string@DU?$char_traits@D@std@@V?$allocator@D@2@@3@@Z$0 00400000 f   ChaseObject.obj
 0001:fffff000       __unwindfunclet$?loadImage@ImageManager@@SA?AVSimpleImage@@V?$basic_string@DU?$char_traits@D@std@@V?$allocator@D@2@@std@@_N@Z$0 00400000 f   ChaseObject.obj
 0001:fffff000       __unwindfunclet$?loadImage@RawImageData@@QAE_NV?$basic_string@DU?$char_traits@D@std@@V?$allocator@D@2@@std@@HHHHH_N@Z$0 00400000 f   ChaseObject.obj
 0002:fff9a000       __unwindtable$??$?0U?$pair@V?$basic_string@DU?$char_traits@D@std@@V?$allocator@D@2@@std@@V?$shared_ptr@VRawImageData@@@2@@std@@@?$_Tree_temp_node@V?$allocator@U?$_Tree_node@U?$pair@$$CBV?$basic_string@DU?$char_traits@D@std@@V?$allocator@D@2@@std@@V?$shared_ptr@VRawImageData@@@2@@std@@PAX@std@@@std@@@std@@QAE@AAV?$allocator@U?$_Tree_node@U?$pair@$$CBV?$basic_string@DU?$char_traits@D@std@@V?$allocator@D@2@@std@@V?$shared_ptr@VRawImageData@@@2@@std@@PAX@std@@@1@PAU?$_Tree_node@U?$pair@$$CBV?$basic_string@DU?$char_traits@D@std@@V?$allocator@D@2@@std@@V?$shared_ptr@VRawImageData@@@2@@std@@PAX@1@$$QAU?$pair@V?$basic_string@DU?$char_traits@D@std@@V?$allocator@D@2@@std@@V?$shared_ptr@VRawImageData@@@2@@1@@Z 00400000     ChaseObject.obj
 0002:fff9a000       __unwindtable$??$?0U?$pair@V?$basic_string@DU?$char_traits@D@std@@V?$allocator@D@2@@std@@V?$weak_ptr@VRawImageData@@@2@@std@@@?$_Tree_temp_node@V?$allocator@U?$_Tree_node@U?$pair@$$CBV?$basic_string@DU?$char_traits@D@std@@V?$allocator@D@2@@std@@V?$weak_ptr@VRawImageData@@@2@@std@@PAX@std@@@std@@@std@@QAE@AAV?$allocator@U?$_Tree_node@U?$pair@$$CBV?$basic_string@DU?$char_traits@D@std@@V?$allocator@D@2@@std@@V?$weak_ptr@VRawImageData@@@2@@std@@PAX@std@@@1@PAU?$_Tree_node@U?$pair@$$CBV?$basic_string@DU?$char_traits@D@std@@V?$allocator@D@2@@std@@V?$weak_ptr@VRawImageData@@@2@@std@@PAX@1@$$QAU?$pair@V?$basic_string@DU?$char_traits@D@std@@V?$allocator@D@2@@std@@V?$weak_ptr@VRawImageData@@@2@@1@@Z 00400000     ChaseObject.obj
 0002:fff9a000       __unwindtable$??$?0VRawImageData@@$0A@@?$shared_ptr@VRawImageData@@@std@@QAE@PAVRawImageData@@@Z 00400000     ChaseObject.obj
 0002:fff9a000       __unwindtable$??$_Construct@$00PBD@?$basic_string@DU?$char_traits@D@std@@V?$allocator@D@2@@std@@AAEXQBDI@Z 00400000     ChaseObject.obj
 0002:fff9a000       __unwindtable$??$_Construct@$01PBD@?$basic_string@DU?$char_traits@D@std@@V?$allocator@D@2@@std@@AAEXQBDI@Z 00400000     ChaseObject.obj
 0002:fff9a000       __unwindtable$??0?$_Tree_temp_node_alloc@V?$allocator@U?$_Tree_node@U?$pair@$$CBV?$basic_string@DU?$char_traits@D@std@@V?$allocator@D@2@@std@@V?$shared_ptr@VRawImageData@@@2@@std@@PAX@std@@@std@@@std@@QAE@AAV?$allocator@U?$_Tree_node@U?$pair@$$CBV?$basic_string@DU?$char_traits@D@std@@V?$allocator@D@2@@std@@V?$shared_ptr@VRawImageData@@@2@@std@@PAX@std@@@1@@Z 00400000     ChaseObject.obj
 0002:fff9a000       __unwindtable$??0?$_Tree_temp_node_alloc@V?$allocator@U?$_Tree_node@U?$pair@$$CBV?$basic_string@DU?$char_traits@D@std@@V?$allocator@D@2@@std@@V?$weak_ptr@VRawImageData@@@2@@std@@PAX@std@@@std@@@std@@QAE@AAV?$allocator@U?$_Tree_node@U?$pair@$$CBV?$basic_string@DU?$char_traits@D@std@@V?$allocator@D@2@@std@@V?$weak_ptr@VRawImageData@@@2@@std@@PAX@std@@@1@@Z 00400000     ChaseObject.obj
 0002:fff9a000       __unwindtable$??0?$basic_string@DU?$char_traits@D@std@@V?$allocator@D@2@@std@@QAE@ABV01@@Z 00400000     ChaseObject.obj
 0002:fff9a000       __unwindtable$??0?$basic_string@DU?$char_traits@D@std@@V?$allocator@D@2@@std@@QAE@QBD@Z 00400000     ChaseObject.obj
 0002:fff9a000       __unwindtable$??0ImageManager@@QAE@XZ 00400000     ChaseObject.obj
 0002:fff9a000       __unwindtable$??0RawImageData@@QAE@V?$basic_string@DU?$char_traits@D@std@@V?$allocator@D@2@@std@@@Z 00400000     ChaseObject.obj
 0002:fff9a000       __unwindtable$??0sentry@?$basic_ostream@DU?$char_traits@D@std@@@std@@QAE@AAV12@@Z 00400000     ChaseObject.obj
 0002:fff9a000       __unwindtable$?_Alloc_sentinel_and_proxy@?$_Tree@V?$_Tmap_traits@V?$basic_string@DU?$char_traits@D@std@@V?$allocator@D@2@@std@@V?$shared_ptr@VRawImageData@@@2@U?$less@V?$basic_string@DU?$char_traits@D@std@@V?$allocator@D@2@@std@@@2@V?$allocator@U?$pair@$$CBV?$basic_string@DU?$char_traits@D@std@@V?$allocator@D@2@@std@@V?$shared_ptr@VRawImageData@@@2@@std@@@2@$0A@@std@@@std@@IAEXXZ 00400000     ChaseObject.obj
 0002:fff9a000       __unwindtable$?_Alloc_sentinel_and_proxy@?$_Tree@V?$_Tmap_traits@V?$basic_string@DU?$char_traits@D@std@@V?$allocator@D@2@@std@@V?$weak_ptr@VRawImageData@@@2@U?$less@V?$basic_string@DU?$char_traits@D@std@@V?$allocator@D@2@@std@@@2@V?$allocator@U?$pair@$$CBV?$basic_string@DU?$char_traits@D@std@@V?$allocator@D@2@@std@@V?$weak_ptr@VRawImageData@@@2@@std@@@2@$0A@@std@@@std@@IAEXXZ 00400000     ChaseObject.obj
 0002:fff9a000       __unwindtable$?get@ImageManager@@SAPAV1@XZ 00400000     ChaseObject.obj
 0002:fff9a000       __unwindtable$?getImagebyURL@ImageManager@@QAE?AVSimpleImage@@V?$basic_string@DU?$char_traits@D@std@@V?$allocator@D@2@@std@@_N1@Z 00400000     ChaseObject.obj
 0002:fff9a000       __unwindtable$?loadAsNew@ImageManager@@QAE?AV?$shared_ptr@VRawImageData@@@std@@V?$basic_string@DU?$char_traits@D@std@@V?$allocator@D@2@@3@@Z 00400000     ChaseObject.obj
 0002:fff9a000       __unwindtable$?loadImage@ImageManager@@SA?AVSimpleImage@@V?$basic_string@DU?$char_traits@D@std@@V?$allocator@D@2@@std@@_N@Z 00400000     ChaseObject.obj
 0002:fff9a000       __unwindtable$?loadImage@RawImageData@@QAE_NV?$basic_string@DU?$char_traits@D@std@@V?$allocator@D@2@@std@@HHHHH_N@Z 00400000     ChaseObject.obj
 0000:00000000       _volmd                     00400000     ChaseObject.obj
 0000:00000000       _volmd                     00400000     ChaseObject.obj
 0000:00000000       _volmd                     00400000     ChaseObject.obj
 0000:00000000       _volmd                     00400000     ChaseObject.obj
 0000:00000000       _volmd                     00400000     ChaseObject.obj
 0000:00000000       _volmd                     00400000     ChaseObject.obj
 0000:00000000       _volmd                     00400000     ChaseObject.obj
 0000:00000000       _volmd                     00400000     ChaseObject.obj
 0000:00000000       _volmd                     00400000     ChaseObject.obj
 0000:00000000       _volmd                     00400000     ChaseObject.obj
 0000:00000000       _volmd                     00400000     ChaseObject.obj
 0000:00000000       _volmd                     00400000     ChaseObject.obj
 0000:00000000       _volmd                     00400000     ChaseObject.obj
 0000:00000000       _volmd                     00400000     ChaseObject.obj
 0000:00000000       _volmd                     00400000     ChaseObject.obj
 0000:00000000       _volmd                     00400000     ChaseObject.obj
 0000:00000000       _volmd                     00400000     ChaseObject.obj
 0000:00000000       _volmd                     00400000     ChaseObject.obj
 0000:00000000       _volmd                     00400000     ChaseObject.obj
 0000:00000000       _volmd                     00400000     ChaseObject.obj
 0000:00000000       _volmd                     00400000     ChaseObject.obj
 0000:00000000       _volmd                     00400000     ChaseObject.obj
 0000:00000000       _volmd                     00400000     ChaseObject.obj
 0000:00000000       _volmd                     00400000     ChaseObject.obj
 0000:00000000       _volmd                     00400000     ChaseObject.obj
 0000:00000000       _volmd                     00400000     ChaseObject.obj
 0000:00000000       _volmd                     00400000     ChaseObject.obj
 0000:00000000       _volmd                     00400000     ChaseObject.obj
 0000:00000000       _volmd                     00400000     ChaseObject.obj
 0000:00000000       _volmd                     00400000     ChaseObject.obj
 0000:00000000       _volmd                     00400000     ChaseObject.obj
 0000:00000000       _volmd                     00400000     ChaseObject.obj
 0000:00000000       _volmd                     00400000     ChaseObject.obj
 0000:00000000       _volmd                     00400000     ChaseObject.obj
 0000:00000000       _volmd                     00400000     ChaseObject.obj
 0000:00000000       _volmd                     00400000     ChaseObject.obj
 0000:00000000       _volmd                     00400000     ChaseObject.obj
 0000:00000000       _volmd                     00400000     ChaseObject.obj
 0002:fff9a000       __catchsym$??$?6U?$char_traits@D@std@@@std@@YAAAV?$basic_ostream@DU?$char_traits@D@std@@@0@AAV10@PBD@Z$3 00400000     DisplayableObject.obj
 0002:fff9a000       __ehfuncinfo$??1_Sentry_base@?$basic_ostream@DU?$char_traits@D@std@@@std@@QAE@XZ 00400000     DisplayableObject.obj
 0001:fffff000       __ehhandler$??1_Sentry_base@?$basic_ostream@DU?$char_traits@D@std@@@std@@QAE@XZ 00400000 f   DisplayableObject.obj
 0001:fffff000       __unwindfunclet$??$?6U?$char_traits@D@std@@@std@@YAAAV?$basic_ostream@DU?$char_traits@D@std@@@0@AAV10@PBD@Z$2 00400000 f   DisplayableObject.obj
 0001:fffff000       __unwindfunclet$??0sentry@?$basic_ostream@DU?$char_traits@D@std@@@std@@QAE@AAV12@@Z$0 00400000 f   DisplayableObject.obj
 0002:fff9a000       __unwindtable$??0sentry@?$basic_ostream@DU?$char_traits@D@std@@@std@@QAE@AAV12@@Z 00400000     DisplayableObject.obj
 0000:00000000       _volmd                     00400000     DisplayableObject.obj
 0000:00000000       _volmd                     00400000     DisplayableObject.obj
 0000:00000000       _volmd                     00400000     DisplayableObject.obj
 0002:fff9a000       __catchsym$??$?6U?$char_traits@D@std@@@std@@YAAAV?$basic_ostream@DU?$char_traits@D@std@@@0@AAV10@PBD@Z$3 00400000     DraggingDemo.obj
 0002:fff9a000       __catchsym$??$_Insert_string@DU?$char_traits@D@std@@I@std@@YAAAV?$basic_ostream@DU?$char_traits@D@std@@@0@AAV10@QBDI@Z$3 00400000     DraggingDemo.obj
 0002:fff9a000       __ehfuncinfo$??$_Deallocate@$07@std@@YAXPAXI@Z 00400000     DraggingDemo.obj
 0002:fff9a000       __ehfuncinfo$??$_Deallocate_plain@V?$allocator@U_Container_proxy@std@@@std@@@std@@YAXAAV?$allocator@U_Container_proxy@std@@@0@QAU_Container_proxy@0@@Z 00400000     DraggingDemo.obj
 0002:fff9a000       __ehfuncinfo$??$_Freenode0@V?$allocator@U?$_Tree_node@U?$pair@$$CBV?$basic_string@DU?$char_traits@D@std@@V?$allocator@D@2@@std@@V?$weak_ptr@VRawImageData@@@2@@std@@PAX@std@@@std@@@?$_Tree_node@U?$pair@$$CBV?$basic_string@DU?$char_traits@D@std@@V?$allocator@D@2@@std@@V?$weak_ptr@VRawImageData@@@2@@std@@PAX@std@@SAXAAV?$allocator@U?$_Tree_node@U?$pair@$$CBV?$basic_string@DU?$char_traits@D@std@@V?$allocator@D@2@@std@@V?$weak_ptr@VRawImageData@@@2@@std@@PAX@std@@@1@PAU01@@Z 00400000     DraggingDemo.obj
 0002:fff9a000       __ehfuncinfo$??$_Freenode@V?$allocator@U?$_Tree_node@U?$pair@$$CBV?$basic_string@DU?$char_traits@D@std@@V?$allocator@D@2@@std@@V?$weak_ptr@VRawImageData@@@2@@std@@PAX@std@@@std@@@?$_Tree_node@U?$pair@$$CBV?$basic_string@DU?$char_traits@D@std@@V?$allocator@D@2@@std@@V?$weak_ptr@VRawImageData@@@2@@std@@PAX@std@@SAXAAV?$allocator@U?$_Tree_node@U?$pair@$$CBV?$basic_string@DU?$char_traits@D@std@@V?$allocator@D@2@@std@@V?$weak_ptr@VRawImageData@@@2@@std@@PAX@std@@@1@PAU01@@Z 00400000     DraggingDemo.obj
 0002:fff9a000       __ehfuncinfo$??0?$basic_string@DU?$char_traits@D@std@@V?$allocator@D@2@@std@@QAE@$$QAV01@@Z 00400000     DraggingDemo.obj
 0002:fff9a000       __ehfuncinfo$??1?$_Alloc_construct_ptr@V?$allocator@U?$_Tree_node@U?$pair@$$CBV?$basic_string@DU?$char_traits@D@std@@V?$allocator@D@2@@std@@V?$shared_ptr@VRawImageData@@@2@@std@@PAX@std@@@std@@@std@@QAE@XZ 00400000     DraggingDemo.obj
 0002:fff9a000       __ehfuncinfo$??1?$_Alloc_construct_ptr@V?$allocator@U?$_Tree_node@U?$pair@$$CBV?$basic_string@DU?$char_traits@D@std@@V?$allocator@D@2@@std@@V?$weak_ptr@VRawImageData@@@2@@std@@PAX@std@@@std@@@std@@QAE@XZ 00400000     DraggingDemo.obj
 0002:fff9a000       __ehfuncinfo$??1?$_Tree_temp_node@V?$allocator@U?$_Tree_node@U?$pair@$$CBV?$basic_string@DU?$char_traits@D@std@@V?$allocator@D@2@@std@@V?$shared_ptr@VRawImageData@@@2@@std@@PAX@std@@@std@@@std@@QAE@XZ 00400000     DraggingDemo.obj
 0002:fff9a000       __ehfuncinfo$??1?$_Tree_temp_node@V?$allocator@U?$_Tree_node@U?$pair@$$CBV?$basic_string@DU?$char_traits@D@std@@V?$allocator@D@2@@std@@V?$weak_ptr@VRawImageData@@@2@@std@@PAX@std@@@std@@@std@@QAE@XZ 00400000     DraggingDemo.obj
 0002:fff9a000       __ehfuncinfo$??1RawImageData@@QAE@XZ 00400000     DraggingDemo.obj
 0002:fff9a000       __ehfuncinfo$??1_Sentry_base@?$basic_ostream@DU?$char_traits@D@std@@@std@@QAE@XZ 00400000     DraggingDemo.obj
 0002:fff9a000       __ehfuncinfo$?_Deallocate_for_capacity@?$basic_string@DU?$char_traits@D@std@@V?$allocator@D@2@@std@@CAXAAV?$allocator@D@2@QADI@Z 00400000     DraggingDemo.obj
 0002:fff9a000       __ehfuncinfo$?getImagePtrbyURL@ImageManager@@QAE?AV?$shared_ptr@VRawImageData@@@std@@V?$basic_string@DU?$char_traits@D@std@@V?$allocator@D@2@@3@_N1@Z 00400000     DraggingDemo.obj
 0001:fffff000       __ehhandler$??$_Deallocate@$07@std@@YAXPAXI@Z 00400000 f   DraggingDemo.obj
 0001:fffff000       __ehhandler$??$_Deallocate_plain@V?$allocator@U_Container_proxy@std@@@std@@@std@@YAXAAV?$allocator@U_Container_proxy@std@@@0@QAU_Container_proxy@0@@Z 00400000 f   DraggingDemo.obj
 0001:fffff000       __ehhandler$??$_Freenode0@V?$allocator@U?$_Tree_node@U?$pair@$$CBV?$basic_string@DU?$char_traits@D@std@@V?$allocator@D@2@@std@@V?$weak_ptr@VRawImageData@@@2@@std@@PAX@std@@@std@@@?$_Tree_node@U?$pair@$$CBV?$basic_string@DU?$char_traits@D@std@@V?$allocator@D@2@@std@@V?$weak_ptr@VRawImageData@@@2@@std@@PAX@std@@SAXAAV?$allocator@U?$_Tree_node@U?$pair@$$CBV?$basic_string@DU?$char_traits@D@std@@V?$allocator@D@2@@std@@V?$weak_ptr@VRawImageData@@@2@@std@@PAX@std@@@1@PAU01@@Z 00400000 f   DraggingDemo.obj
 0001:fffff000       __ehhandler$??$_Freenode@V?$allocator@U?$_Tree_node@U?$pair@$$CBV?$basic_string@DU?$char_traits@D@std@@V?$allocator@D@2@@std@@V?$weak_ptr@VRawImageData@@@2@@std@@PAX@std@@@std@@@?$_Tree_node@U?$pair@$$CBV?$basic_string@DU?$char_traits@D@std@@V?$allocator@D@2@@std@@V?$weak_ptr@VRawImageData@@@2@@std@@PAX@std@@SAXAAV?$allocator@U?$_Tree_node@U?$pair@$$CBV?$basic_string@DU?$char_traits@D@std@@V?$allocator@D@2@@std@@V?$weak_ptr@VRawImageData@@@2@@std@@PAX@std@@@1@PAU01@@Z 00400000 f   DraggingDemo.obj
 0001:fffff000       __ehhandler$??0?$basic_string@DU?$char_traits@D@std@@V?$allocator@D@2@@std@@QAE@$$QAV01@@Z 00400000 f   DraggingDemo.obj
 0001:fffff000       __ehhandler$??1?$_Alloc_construct_ptr@V?$allocator@U?$_Tree_node@U?$pair@$$CBV?$basic_string@DU?$char_traits@D@std@@V?$allocator@D@2@@std@@V?$shared_ptr@VRawImageData@@@2@@std@@PAX@std@@@std@@@std@@QAE@XZ 00400000 f   DraggingDemo.obj
 0001:fffff000       __ehhandler$??1?$_Alloc_construct_ptr@V?$allocator@U?$_Tree_node@U?$pair@$$CBV?$basic_string@DU?$char_traits@D@std@@V?$allocator@D@2@@std@@V?$weak_ptr@VRawImageData@@@2@@std@@PAX@std@@@std@@@std@@QAE@XZ 00400000 f   DraggingDemo.obj
 0001:fffff000       __ehhandler$??1?$_Tree_temp_node@V?$allocator@U?$_Tree_node@U?$pair@$$CBV?$basic_string@DU?$char_traits@D@std@@V?$allocator@D@2@@std@@V?$shared_ptr@VRawImageData@@@2@@std@@PAX@std@@@std@@@std@@QAE@XZ 00400000 f   DraggingDemo.obj
 0001:fffff000       __ehhandler$??1?$_Tree_temp_node@V?$allocator@U?$_Tree_node@U?$pair@$$CBV?$basic_string@DU?$char_traits@D@std@@V?$allocator@D@2@@std@@V?$weak_ptr@VRawImageData@@@2@@std@@PAX@std@@@std@@@std@@QAE@XZ 00400000 f   DraggingDemo.obj
 0001:fffff000       __ehhandler$??1RawImageData@@QAE@XZ 00400000 f   DraggingDemo.obj
 0001:fffff000       __ehhandler$??1_Sentry_base@?$basic_ostream@DU?$char_traits@D@std@@@std@@QAE@XZ 00400000 f   DraggingDemo.obj
 0001:fffff000       __ehhandler$?_Deallocate_for_capacity@?$basic_string@DU?$char_traits@D@std@@V?$allocator@D@2@@std@@CAXAAV?$allocator@D@2@QADI@Z 00400000 f   DraggingDemo.obj
 0001:fffff000       __unwindfunclet$??$?0U?$pair@V?$basic_string@DU?$char_traits@D@std@@V?$allocator@D@2@@std@@V?$shared_ptr@VRawImageData@@@2@@std@@@?$_Tree_temp_node@V?$allocator@U?$_Tree_node@U?$pair@$$CBV?$basic_string@DU?$char_traits@D@std@@V?$allocator@D@2@@std@@V?$shared_ptr@VRawImageData@@@2@@std@@PAX@std@@@std@@@std@@QAE@AAV?$allocator@U?$_Tree_node@U?$pair@$$CBV?$basic_string@DU?$char_traits@D@std@@V?$allocator@D@2@@std@@V?$shared_ptr@VRawImageData@@@2@@std@@PAX@std@@@1@PAU?$_Tree_node@U?$pair@$$CBV?$basic_string@DU?$char_traits@D@std@@V?$allocator@D@2@@std@@V?$shared_ptr@VRawImageData@@@2@@std@@PAX@1@$$QAU?$pair@V?$basic_string@DU?$char_traits@D@std@@V?$allocator@D@2@@std@@V?$shared_ptr@VRawImageData@@@2@@1@@Z$0 00400000 f   DraggingDemo.obj
 0001:fffff000       __unwindfunclet$??$?0U?$pair@V?$basic_string@DU?$char_traits@D@std@@V?$allocator@D@2@@std@@V?$weak_ptr@VRawImageData@@@2@@std@@@?$_Tree_temp_node@V?$allocator@U?$_Tree_node@U?$pair@$$CBV?$basic_string@DU?$char_traits@D@std@@V?$allocator@D@2@@std@@V?$weak_ptr@VRawImageData@@@2@@std@@PAX@std@@@std@@@std@@QAE@AAV?$allocator@U?$_Tree_node@U?$pair@$$CBV?$basic_string@DU?$char_traits@D@std@@V?$allocator@D@2@@std@@V?$weak_ptr@VRawImageData@@@2@@std@@PAX@std@@@1@PAU?$_Tree_node@U?$pair@$$CBV?$basic_string@DU?$char_traits@D@std@@V?$allocator@D@2@@std@@V?$weak_ptr@VRawImageData@@@2@@std@@PAX@1@$$QAU?$pair@V?$basic_string@DU?$char_traits@D@std@@V?$allocator@D@2@@std@@V?$weak_ptr@VRawImageData@@@2@@1@@Z$0 00400000 f   DraggingDemo.obj
 0001:fffff000       __unwindfunclet$??$?0VRawImageData@@$0A@@?$shared_ptr@VRawImageData@@@std@@QAE@PAVRawImageData@@@Z$0 00400000 f   DraggingDemo.obj
 0001:fffff000       __unwindfunclet$??$?6U?$char_traits@D@std@@@std@@YAAAV?$basic_ostream@DU?$char_traits@D@std@@@0@AAV10@PBD@Z$2 00400000 f   DraggingDemo.obj
 0001:fffff000       __unwindfunclet$??$_Construct@$00PBD@?$basic_string@DU?$char_traits@D@std@@V?$allocator@D@2@@std@@AAEXQBDI@Z$0 00400000 f   DraggingDemo.obj
 0001:fffff000       __unwindfunclet$??$_Construct@$01PBD@?$basic_string@DU?$char_traits@D@std@@V?$allocator@D@2@@std@@AAEXQBDI@Z$0 00400000 f   DraggingDemo.obj
 0001:fffff000       __unwindfunclet$??$_Insert_string@DU?$char_traits@D@std@@I@std@@YAAAV?$basic_ostream@DU?$char_traits@D@std@@@0@AAV10@QBDI@Z$2 00400000 f   DraggingDemo.obj
 0001:fffff000       __unwindfunclet$??$_Uninitialized_move@PAPAVDisplayableObject@@V?$allocator@PAVDisplayableObject@@@std@@@std@@YAPAPAVDisplayableObject@@QAPAV1@0PAPAV1@AAV?$allocator@PAVDisplayableObject@@@0@@Z$0 00400000 f   DraggingDemo.obj
 0001:fffff000       __unwindfunclet$??0?$_Tree_temp_node_alloc@V?$allocator@U?$_Tree_node@U?$pair@$$CBV?$basic_string@DU?$char_traits@D@std@@V?$allocator@D@2@@std@@V?$shared_ptr@VRawImageData@@@2@@std@@PAX@std@@@std@@@std@@QAE@AAV?$allocator@U?$_Tree_node@U?$pair@$$CBV?$basic_string@DU?$char_traits@D@std@@V?$allocator@D@2@@std@@V?$shared_ptr@VRawImageData@@@2@@std@@PAX@std@@@1@@Z$0 00400000 f   DraggingDemo.obj
 0001:fffff000       __unwindfunclet$??0?$_Tree_temp_node_alloc@V?$allocator@U?$_Tree_node@U?$pair@$$CBV?$basic_string@DU?$char_traits@D@std@@V?$allocator@D@2@@std@@V?$weak_ptr@VRawImageData@@@2@@std@@PAX@std@@@std@@@std@@QAE@AAV?$allocator@U?$_Tree_node@U?$pair@$$CBV?$basic_string@DU?$char_traits@D@std@@V?$allocator@D@2@@std@@V?$weak_ptr@VRawImageData@@@2@@std@@PAX@std@@@1@@Z$0 00400000 f   DraggingDemo.obj
 0001:fffff000       __unwindfunclet$??0?$basic_string@DU?$char_traits@D@std@@V?$allocator@D@2@@std@@QAE@ABV01@@Z$0 00400000 f   DraggingDemo.obj
 0001:fffff000       __unwindfunclet$??0?$basic_string@DU?$char_traits@D@std@@V?$allocator@D@2@@std@@QAE@QBD@Z$0 00400000 f   DraggingDemo.obj
 0001:fffff000       __unwindfunclet$??0ImageManager@@QAE@XZ$0 00400000 f   DraggingDemo.obj
 0001:fffff000       __unwindfunclet$??0RawImageData@@QAE@V?$basic_string@DU?$char_traits@D@std@@V?$allocator@D@2@@std@@@Z$0 00400000 f   DraggingDemo.obj
 0001:fffff000       __unwindfunclet$??0sentry@?$basic_ostream@DU?$char_traits@D@std@@@std@@QAE@AAV12@@Z$0 00400000 f   DraggingDemo.obj
 0001:fffff000       __unwindfunclet$?_Alloc_sentinel_and_proxy@?$_Tree@V?$_Tmap_traits@V?$basic_string@DU?$char_traits@D@std@@V?$allocator@D@2@@std@@V?$shared_ptr@VRawImageData@@@2@U?$less@V?$basic_string@DU?$char_traits@D@std@@V?$allocator@D@2@@std@@@2@V?$allocator@U?$pair@$$CBV?$basic_string@DU?$char_traits@D@std@@V?$allocator@D@2@@std@@V?$shared_ptr@VRawImageData@@@2@@std@@@2@$0A@@std@@@std@@IAEXXZ$0 00400000 f   DraggingDemo.obj
 0001:fffff000       __unwindfunclet$?_Alloc_sentinel_and_proxy@?$_Tree@V?$_Tmap_traits@V?$basic_string@DU?$char_traits@D@std@@V?$allocator@D@2@@std@@V?$weak_ptr@VRawImageData@@@2@U?$less@V?$basic_string@DU?$char_traits@D@std@@V?$allocator@D@2@@std@@@2@V?$allocator@U?$pair@$$CBV?$basic_string@DU?$char_traits@D@std@@V?$allocator@D@2@@std@@V?$weak_ptr@VRawImageData@@@2@@std@@@2@$0A@@std@@@std@@IAEXXZ$0 00400000 f   DraggingDemo.obj
 0001:fffff000       __unwindfunclet$?_Orphan_range_locked@?$vector@PAVDisplayableObject@@V?$allocator@PAVDisplayableObject@@@std@@@std@@ABEXPAPAVDisplayableObject@@0@Z$0 00400000 f   DraggingDemo.obj
 0001:fffff000       __unwindfunclet$?get@ImageManager@@SAPAV1@XZ$0 00400000 f   DraggingDemo.obj
 0001:fffff000       __unwindfunclet$?getImagePtrbyURL@ImageManager@@QAE?AV?$shared_ptr@VRawImageData@@@std@@V?$basic_string@DU?$char_traits@D@std@@V?$allocator@D@2@@3@_N1@Z$0 00400000 f   DraggingDemo.obj
 0001:fffff000       __unwindfunclet$?getImagebyURL@ImageManager@@QAE?AVSimpleImage@@V?$basic_string@DU?$char_traits@D@std@@V?$allocator@D@2@@std@@_N1@Z$0 00400000 f   DraggingDemo.obj
 0001:fffff000       __unwindfunclet$?loadAsNew@ImageManager@@QAE?AV?$shared_ptr@VRawImageData@@@std@@V?$basic_string@DU?$char_traits@D@std@@V?$allocator@D@2@@3@@Z$0 00400000 f   DraggingDemo.obj
 0001:fffff000       __unwindfunclet$?loadImage@RawImageData@@QAE_NV?$basic_string@DU?$char_traits@D@std@@V?$allocator@D@2@@std@@HHHHH_N@Z$0 00400000 f   DraggingDemo.obj
 0002:fff9a000       __unwindtable$??$?0U?$pair@V?$basic_string@DU?$char_traits@D@std@@V?$allocator@D@2@@std@@V?$shared_ptr@VRawImageData@@@2@@std@@@?$_Tree_temp_node@V?$allocator@U?$_Tree_node@U?$pair@$$CBV?$basic_string@DU?$char_traits@D@std@@V?$allocator@D@2@@std@@V?$shared_ptr@VRawImageData@@@2@@std@@PAX@std@@@std@@@std@@QAE@AAV?$allocator@U?$_Tree_node@U?$pair@$$CBV?$basic_string@DU?$char_traits@D@std@@V?$allocator@D@2@@std@@V?$shared_ptr@VRawImageData@@@2@@std@@PAX@std@@@1@PAU?$_Tree_node@U?$pair@$$CBV?$basic_string@DU?$char_traits@D@std@@V?$allocator@D@2@@std@@V?$shared_ptr@VRawImageData@@@2@@std@@PAX@1@$$QAU?$pair@V?$basic_string@DU?$char_traits@D@std@@V?$allocator@D@2@@std@@V?$shared_ptr@VRawImageData@@@2@@1@@Z 00400000     DraggingDemo.obj
 0002:fff9a000       __unwindtable$??$?0U?$pair@V?$basic_string@DU?$char_traits@D@std@@V?$allocator@D@2@@std@@V?$weak_ptr@VRawImageData@@@2@@std@@@?$_Tree_temp_node@V?$allocator@U?$_Tree_node@U?$pair@$$CBV?$basic_string@DU?$char_traits@D@std@@V?$allocator@D@2@@std@@V?$weak_ptr@VRawImageData@@@2@@std@@PAX@std@@@std@@@std@@QAE@AAV?$allocator@U?$_Tree_node@U?$pair@$$CBV?$basic_string@DU?$char_traits@D@std@@V?$allocator@D@2@@std@@V?$weak_ptr@VRawImageData@@@2@@std@@PAX@std@@@1@PAU?$_Tree_node@U?$pair@$$CBV?$basic_string@DU?$char_traits@D@std@@V?$allocator@D@2@@std@@V?$weak_ptr@VRawImageData@@@2@@std@@PAX@1@$$QAU?$pair@V?$basic_string@DU?$char_traits@D@std@@V?$allocator@D@2@@std@@V?$weak_ptr@VRawImageData@@@2@@1@@Z 00400000     DraggingDemo.obj
 0002:fff9a000       __unwindtable$??$?0VRawImageData@@$0A@@?$shared_ptr@VRawImageData@@@std@@QAE@PAVRawImageData@@@Z 00400000     DraggingDemo.obj
 0002:fff9a000       __unwindtable$??$_Construct@$00PBD@?$basic_string@DU?$char_traits@D@std@@V?$allocator@D@2@@std@@AAEXQBDI@Z 00400000     DraggingDemo.obj
 0002:fff9a000       __unwindtable$??$_Construct@$01PBD@?$basic_string@DU?$char_traits@D@std@@V?$allocator@D@2@@std@@AAEXQBDI@Z 00400000     DraggingDemo.obj
 0002:fff9a000       __unwindtable$??$_Uninitialized_move@PAPAVDisplayableObject@@V?$allocator@PAVDisplayableObject@@@std@@@std@@YAPAPAVDisplayableObject@@QAPAV1@0PAPAV1@AAV?$allocator@PAVDisplayableObject@@@0@@Z 00400000     DraggingDemo.obj
 0002:fff9a000       __unwindtable$??0?$_Tree_temp_node_alloc@V?$allocator@U?$_Tree_node@U?$pair@$$CBV?$basic_string@DU?$char_traits@D@std@@V?$allocator@D@2@@std@@V?$shared_ptr@VRawImageData@@@2@@std@@PAX@std@@@std@@@std@@QAE@AAV?$allocator@U?$_Tree_node@U?$pair@$$CBV?$basic_string@DU?$char_traits@D@std@@V?$allocator@D@2@@std@@V?$shared_ptr@VRawImageData@@@2@@std@@PAX@std@@@1@@Z 00400000     DraggingDemo.obj
 0002:fff9a000       __unwindtable$??0?$_Tree_temp_node_alloc@V?$allocator@U?$_Tree_node@U?$pair@$$CBV?$basic_string@DU?$char_traits@D@std@@V?$allocator@D@2@@std@@V?$weak_ptr@VRawImageData@@@2@@std@@PAX@std@@@std@@@std@@QAE@AAV?$allocator@U?$_Tree_node@U?$pair@$$CBV?$basic_string@DU?$char_traits@D@std@@V?$allocator@D@2@@std@@V?$weak_ptr@VRawImageData@@@2@@std@@PAX@std@@@1@@Z 00400000     DraggingDemo.obj
 0002:fff9a000       __unwindtable$??0?$basic_string@DU?$char_traits@D@std@@V?$allocator@D@2@@std@@QAE@ABV01@@Z 00400000     DraggingDemo.obj
 0002:fff9a000       __unwindtable$??0?$basic_string@DU?$char_traits@D@std@@V?$allocator@D@2@@std@@QAE@QBD@Z 00400000     DraggingDemo.obj
 0002:fff9a000       __unwindtable$??0ImageManager@@QAE@XZ 00400000     DraggingDemo.obj
 0002:fff9a000       __unwindtable$??0RawImageData@@QAE@V?$basic_string@DU?$char_traits@D@std@@V?$allocator@D@2@@std@@@Z 00400000     DraggingDemo.obj
 0002:fff9a000       __unwindtable$??0sentry@?$basic_ostream@DU?$char_traits@D@std@@@std@@QAE@AAV12@@Z 00400000     DraggingDemo.obj
 0002:fff9a000       __unwindtable$?_Alloc_sentinel_and_proxy@?$_Tree@V?$_Tmap_traits@V?$basic_string@DU?$char_traits@D@std@@V?$allocator@D@2@@std@@V?$shared_ptr@VRawImageData@@@2@U?$less@V?$basic_string@DU?$char_traits@D@std@@V?$allocator@D@2@@std@@@2@V?$allocator@U?$pair@$$CBV?$basic_string@DU?$char_traits@D@std@@V?$allocator@D@2@@std@@V?$shared_ptr@VRawImageData@@@2@@std@@@2@$0A@@std@@@std@@IAEXXZ 00400000     DraggingDemo.obj
 0002:fff9a000       __unwindtable$?_Alloc_sentinel_and_proxy@?$_Tree@V?$_Tmap_traits@V?$basic_string@DU?$char_traits@D@std@@V?$allocator@D@2@@std@@V?$weak_ptr@VRawImageData@@@2@U?$less@V?$basic_string@DU?$char_traits@D@std@@V?$allocator@D@2@@std@@@2@V?$allocator@U?$pair@$$CBV?$basic_string@DU?$char_traits@D@std@@V?$allocator@D@2@@std@@V?$weak_ptr@VRawImageData@@@2@@std@@@2@$0A@@std@@@std@@IAEXXZ 00400000     DraggingDemo.obj
 0002:fff9a000       __unwindtable$?_Orphan_range_locked@?$vector@PAVDisplayableObject@@V?$allocator@PAVDisplayableObject@@@std@@@std@@ABEXPAPAVDisplayableObject@@0@Z 00400000     DraggingDemo.obj
 0002:fff9a000       __unwindtable$?get@ImageManager@@SAPAV1@XZ 00400000     DraggingDemo.obj
 0002:fff9a000       __unwindtable$?getImagebyURL@ImageManager@@QAE?AVSimpleImage@@V?$basic_string@DU?$char_traits@D@std@@V?$allocator@D@2@@std@@_N1@Z 00400000     DraggingDemo.obj
 0002:fff9a000       __unwindtable$?loadAsNew@ImageManager@@QAE?AV?$shared_ptr@VRawImageData@@@std@@V?$basic_string@DU?$char_traits@D@std@@V?$allocator@D@2@@3@@Z 00400000     DraggingDemo.obj
 0002:fff9a000       __unwindtable$?loadImage@RawImageData@@QAE_NV?$basic_string@DU?$char_traits@D@std@@V?$allocator@D@2@@std@@HHHHH_N@Z 00400000     DraggingDemo.obj
 0000:00000000       _volmd                     00400000     DraggingDemo.obj
 0000:00000000       _volmd                     00400000     DraggingDemo.obj
 0000:00000000       _volmd                     00400000     DraggingDemo.obj
 0000:00000000       _volmd                     00400000     DraggingDemo.obj
 0000:00000000       _volmd                     00400000     DraggingDemo.obj
 0000:00000000       _volmd                     00400000     DraggingDemo.obj
 0000:00000000       _volmd                     00400000     DraggingDemo.obj
 0000:00000000       _volmd                     00400000     DraggingDemo.obj
 0000:00000000       _volmd                     00400000     DraggingDemo.obj
 0000:00000000       _volmd                     00400000     DraggingDemo.obj
 0000:00000000       _volmd                     00400000     DraggingDemo.obj
 0000:00000000       _volmd                     00400000     DraggingDemo.obj
 0000:00000000       _volmd                     00400000     DraggingDemo.obj
 0000:00000000       _volmd                     00400000     DraggingDemo.obj
 0000:00000000       _volmd                     00400000     DraggingDemo.obj
 0000:00000000       _volmd                     00400000     DraggingDemo.obj
 0000:00000000       _volmd                     00400000     DraggingDemo.obj
 0000:00000000       _volmd                     00400000     DraggingDemo.obj
 0000:00000000       _volmd                     00400000     DraggingDemo.obj
 0000:00000000       _volmd                     00400000     DraggingDemo.obj
 0000:00000000       _volmd                     00400000     DraggingDemo.obj
 0000:00000000       _volmd                     00400000     DraggingDemo.obj
 0000:00000000       _volmd                     00400000     DraggingDemo.obj
 0000:00000000       _volmd                     00400000     DraggingDemo.obj
 0000:00000000       _volmd                     00400000     DraggingDemo.obj
 0000:00000000       _volmd                     00400000     DraggingDemo.obj
 0000:00000000       _volmd                     00400000     DraggingDemo.obj
 0000:00000000       _volmd                     00400000     DraggingDemo.obj
 0000:00000000       _volmd                     00400000     DraggingDemo.obj
 0000:00000000       _volmd                     00400000     DraggingDemo.obj
 0000:00000000       _volmd                     00400000     DraggingDemo.obj
 0000:00000000       _volmd                     00400000     DraggingDemo.obj
 0000:00000000       _volmd                     00400000     DraggingDemo.obj
 0000:00000000       _volmd                     00400000     DraggingDemo.obj
 0000:00000000       _volmd                     00400000     DraggingDemo.obj
 0000:00000000       _volmd                     00400000     DraggingDemo.obj
 0000:00000000       _volmd                     00400000     DraggingDemo.obj
 0000:00000000       _volmd                     00400000     DraggingDemo.obj
 0000:00000000       _volmd                     00400000     DraggingDemo.obj
 0000:00000000       _volmd                     00400000     DraggingDemo.obj
 0000:00000000       _volmd                     00400000     DraggingDemo.obj
 0000:00000000       _volmd                     00400000     DraggingDemo.obj
 0000:00000000       _volmd                     00400000     DraggingDemo.obj
 0000:00000000       _volmd                     00400000     DraggingDemo.obj
 0002:fff9a000       __catchsym$??$?6U?$char_traits@D@std@@@std@@YAAAV?$basic_ostream@DU?$char_traits@D@std@@@0@AAV10@PBD@Z$3 00400000     DrawingSurface.obj
 0002:fff9a000       __ehfuncinfo$??1_Sentry_base@?$basic_ostream@DU?$char_traits@D@std@@@std@@QAE@XZ 00400000     DrawingSurface.obj
 0001:fffff000       __ehhandler$??1_Sentry_base@?$basic_ostream@DU?$char_traits@D@std@@@std@@QAE@XZ 00400000 f   DrawingSurface.obj
 0001:fffff000       __unwindfunclet$??$?6U?$char_traits@D@std@@@std@@YAAAV?$basic_ostream@DU?$char_traits@D@std@@@0@AAV10@PBD@Z$2 00400000 f   DrawingSurface.obj
 0001:fffff000       __unwindfunclet$??0sentry@?$basic_ostream@DU?$char_traits@D@std@@@std@@QAE@AAV12@@Z$0 00400000 f   DrawingSurface.obj
 0002:fff9a000       __unwindtable$??0sentry@?$basic_ostream@DU?$char_traits@D@std@@@std@@QAE@AAV12@@Z 00400000     DrawingSurface.obj
 0000:00000000       _volmd                     00400000     DrawingSurface.obj
 0000:00000000       _volmd                     00400000     DrawingSurface.obj
 0000:00000000       _volmd                     00400000     DrawingSurface.obj
 0000:00000000       _volmd                     00400000     DrawingSurface.obj
 0002:fff9a000       __catchsym$??$?6U?$char_traits@D@std@@@std@@YAAAV?$basic_ostream@DU?$char_traits@D@std@@@0@AAV10@PBD@Z$3 00400000     EndDisplay.obj
 0002:fff9a000       __catchsym$??$_Emplace_reallocate@ABQAVDisplayableObject@@@?$vector@PAVDisplayableObject@@V?$allocator@PAVDisplayableObject@@@std@@@std@@AAEPAPAVDisplayableObject@@QAPAV2@ABQAV2@@Z$2 00400000     EndDisplay.obj
 0002:fff9a000       __catchsym$??$_Insert_string@DU?$char_traits@D@std@@I@std@@YAAAV?$basic_ostream@DU?$char_traits@D@std@@@0@AAV10@QBDI@Z$3 00400000     EndDisplay.obj
 0002:fff9a000       __catchsym$??$getline@DU?$char_traits@D@std@@V?$allocator@D@2@@std@@YAAAV?$basic_istream@DU?$char_traits@D@std@@@0@$$QAV10@AAV?$basic_string@DU?$char_traits@D@std@@V?$allocator@D@2@@0@D@Z$3 00400000     EndDisplay.obj
 0002:fff9a000       __ehfuncinfo$??$_Deallocate@$07@std@@YAXPAXI@Z 00400000     EndDisplay.obj
 0002:fff9a000       __ehfuncinfo$??$_Deallocate_plain@V?$allocator@U_Container_proxy@std@@@std@@@std@@YAXAAV?$allocator@U_Container_proxy@std@@@0@QAU_Container_proxy@0@@Z 00400000     EndDisplay.obj
 0002:fff9a000       __ehfuncinfo$??0?$basic_string@DU?$char_traits@D@std@@V?$allocator@D@2@@std@@QAE@XZ 00400000     EndDisplay.obj
 0002:fff9a000       __ehfuncinfo$??1?$basic_filebuf@DU?$char_traits@D@std@@@std@@UAE@XZ 00400000     EndDisplay.obj
 0002:fff9a000       __ehfuncinfo$??1_Sentry_base@?$basic_istream@DU?$char_traits@D@std@@@std@@QAE@XZ 00400000     EndDisplay.obj
 0002:fff9a000       __ehfuncinfo$??1_Sentry_base@?$basic_ostream@DU?$char_traits@D@std@@@std@@QAE@XZ 00400000     EndDisplay.obj
 0002:fff9a000       __ehfuncinfo$?_Deallocate_for_capacity@?$basic_string@DU?$char_traits@D@std@@V?$allocator@D@2@@std@@CAXAAV?$allocator@D@2@QADI@Z 00400000     EndDisplay.obj
 0002:fff9a000       __ehfuncinfo$?_Tidy@?$basic_stringbuf@DU?$char_traits@D@std@@V?$allocator@D@2@@std@@IAEXXZ 00400000     EndDisplay.obj
 0002:fff9a000       __ehfuncinfo$?erase@?$vector@PAVDisplayableObject@@V?$allocator@PAVDisplayableObject@@@std@@@std@@QAE?AV?$_Vector_iterator@V?$_Vector_val@U?$_Simple_types@PAVDisplayableObject@@@std@@@std@@@2@V?$_Vector_const_iterator@V?$_Vector_val@U?$_Simple_types@PAVDisplayableObject@@@std@@@std@@@2@@Z 00400000     EndDisplay.obj
 0001:fffff000       __ehhandler$??$_Deallocate@$07@std@@YAXPAXI@Z 00400000 f   EndDisplay.obj
 0001:fffff000       __ehhandler$??$_Deallocate_plain@V?$allocator@U_Container_proxy@std@@@std@@@std@@YAXAAV?$allocator@U_Container_proxy@std@@@0@QAU_Container_proxy@0@@Z 00400000 f   EndDisplay.obj
 0001:fffff000       __ehhandler$??$_Emplace_reallocate@ABQAVDisplayableObject@@@?$vector@PAVDisplayableObject@@V?$allocator@PAVDisplayableObject@@@std@@@std@@AAEPAPAVDisplayableObject@@QAPAV2@ABQAV2@@Z 00400000 f   EndDisplay.obj
 0001:fffff000       __ehhandler$??0?$basic_string@DU?$char_traits@D@std@@V?$allocator@D@2@@std@@QAE@XZ 00400000 f   EndDisplay.obj
 0001:fffff000       __ehhandler$??1?$basic_filebuf@DU?$char_traits@D@std@@@std@@UAE@XZ 00400000 f   EndDisplay.obj
 0001:fffff000       __ehhandler$??1_Sentry_base@?$basic_istream@DU?$char_traits@D@std@@@std@@QAE@XZ 00400000 f   EndDisplay.obj
 0001:fffff000       __ehhandler$??1_Sentry_base@?$basic_ostream@DU?$char_traits@D@std@@@std@@QAE@XZ 00400000 f   EndDisplay.obj
 0001:fffff000       __ehhandler$?_Deallocate_for_capacity@?$basic_string@DU?$char_traits@D@std@@V?$allocator@D@2@@std@@CAXAAV?$allocator@D@2@QADI@Z 00400000 f   EndDisplay.obj
 0001:fffff000       __ehhandler$?_Tidy@?$basic_stringbuf@DU?$char_traits@D@std@@V?$allocator@D@2@@std@@IAEXXZ 00400000 f   EndDisplay.obj
 0001:fffff000       __ehhandler$?erase@?$vector@PAVDisplayableObject@@V?$allocator@PAVDisplayableObject@@@std@@@std@@QAE?AV?$_Vector_iterator@V?$_Vector_val@U?$_Simple_types@PAVDisplayableObject@@@std@@@std@@@2@V?$_Vector_const_iterator@V?$_Vector_val@U?$_Simple_types@PAVDisplayableObject@@@std@@@std@@@2@@Z 00400000 f   EndDisplay.obj
 0001:fffff000       __unwindfunclet$??$?6U?$char_traits@D@std@@@std@@YAAAV?$basic_ostream@DU?$char_traits@D@std@@@0@AAV10@PBD@Z$2 00400000 f   EndDisplay.obj
 0001:fffff000       __unwindfunclet$??$_Insert_string@DU?$char_traits@D@std@@I@std@@YAAAV?$basic_ostream@DU?$char_traits@D@std@@@0@AAV10@QBDI@Z$2 00400000 f   EndDisplay.obj
 0001:fffff000       __unwindfunclet$??$_Uninitialized_move@PAPAVDisplayableObject@@V?$allocator@PAVDisplayableObject@@@std@@@std@@YAPAPAVDisplayableObject@@QAPAV1@0PAPAV1@AAV?$allocator@PAVDisplayableObject@@@0@@Z$0 00400000 f   EndDisplay.obj
 0001:fffff000       __unwindfunclet$??$find@V?$_Vector_iterator@V?$_Vector_val@U?$_Simple_types@PAVDisplayableObject@@@std@@@std@@@std@@PAVDisplayableObject@@@std@@YA?AV?$_Vector_iterator@V?$_Vector_val@U?$_Simple_types@PAVDisplayableObject@@@std@@@std@@@0@V10@V10@ABQAVDisplayableObject@@@Z$0 00400000 f   EndDisplay.obj
 0001:fffff000       __unwindfunclet$??$getline@DU?$char_traits@D@std@@V?$allocator@D@2@@std@@YAAAV?$basic_istream@DU?$char_traits@D@std@@@0@$$QAV10@AAV?$basic_string@DU?$char_traits@D@std@@V?$allocator@D@2@@0@D@Z$2 00400000 f   EndDisplay.obj
 0001:fffff000       __unwindfunclet$??$use_facet@V?$codecvt@DDU_Mbstatet@@@std@@@std@@YAABV?$codecvt@DDU_Mbstatet@@@0@ABVlocale@0@@Z$0 00400000 f   EndDisplay.obj
 0001:fffff000       __unwindfunclet$??0?$basic_stringbuf@DU?$char_traits@D@std@@V?$allocator@D@2@@std@@QAE@ABV?$basic_string@DU?$char_traits@D@std@@V?$allocator@D@2@@1@H@Z$0 00400000 f   EndDisplay.obj
 0001:fffff000       __unwindfunclet$??0sentry@?$basic_istream@DU?$char_traits@D@std@@@std@@QAE@AAV12@_N@Z$0 00400000 f   EndDisplay.obj
 0001:fffff000       __unwindfunclet$??0sentry@?$basic_ostream@DU?$char_traits@D@std@@@std@@QAE@AAV12@@Z$0 00400000 f   EndDisplay.obj
 0001:fffff000       __unwindfunclet$?_Orphan_range_locked@?$vector@PAVDisplayableObject@@V?$allocator@PAVDisplayableObject@@@std@@@std@@ABEXPAPAVDisplayableObject@@0@Z$0 00400000 f   EndDisplay.obj
 0001:fffff000       __unwindfunclet$?open@?$basic_filebuf@DU?$char_traits@D@std@@@std@@QAEPAV12@PBDHH@Z$0 00400000 f   EndDisplay.obj
 0001:fffff000       __unwindfunclet$?uflow@?$basic_filebuf@DU?$char_traits@D@std@@@std@@MAEHXZ$0 00400000 f   EndDisplay.obj
 0002:fff9a000       __unwindtable$??$_Uninitialized_move@PAPAVDisplayableObject@@V?$allocator@PAVDisplayableObject@@@std@@@std@@YAPAPAVDisplayableObject@@QAPAV1@0PAPAV1@AAV?$allocator@PAVDisplayableObject@@@0@@Z 00400000     EndDisplay.obj
 0002:fff9a000       __unwindtable$??$find@V?$_Vector_iterator@V?$_Vector_val@U?$_Simple_types@PAVDisplayableObject@@@std@@@std@@@std@@PAVDisplayableObject@@@std@@YA?AV?$_Vector_iterator@V?$_Vector_val@U?$_Simple_types@PAVDisplayableObject@@@std@@@std@@@0@V10@V10@ABQAVDisplayableObject@@@Z 00400000     EndDisplay.obj
 0002:fff9a000       __unwindtable$??$use_facet@V?$codecvt@DDU_Mbstatet@@@std@@@std@@YAABV?$codecvt@DDU_Mbstatet@@@0@ABVlocale@0@@Z 00400000     EndDisplay.obj
 0002:fff9a000       __unwindtable$??0?$basic_stringbuf@DU?$char_traits@D@std@@V?$allocator@D@2@@std@@QAE@ABV?$basic_string@DU?$char_traits@D@std@@V?$allocator@D@2@@1@H@Z 00400000     EndDisplay.obj
 0002:fff9a000       __unwindtable$??0sentry@?$basic_istream@DU?$char_traits@D@std@@@std@@QAE@AAV12@_N@Z 00400000     EndDisplay.obj
 0002:fff9a000       __unwindtable$??0sentry@?$basic_ostream@DU?$char_traits@D@std@@@std@@QAE@AAV12@@Z 00400000     EndDisplay.obj
 0002:fff9a000       __unwindtable$?_Orphan_range_locked@?$vector@PAVDisplayableObject@@V?$allocator@PAVDisplayableObject@@@std@@@std@@ABEXPAPAVDisplayableObject@@0@Z 00400000     EndDisplay.obj
 0002:fff9a000       __unwindtable$?open@?$basic_filebuf@DU?$char_traits@D@std@@@std@@QAEPAV12@PBDHH@Z 00400000     EndDisplay.obj
 0002:fff9a000       __unwindtable$?uflow@?$basic_filebuf@DU?$char_traits@D@std@@@std@@MAEHXZ 00400000     EndDisplay.obj
 0000:00000000       _volmd                     00400000     EndDisplay.obj
 0000:00000000       _volmd                     00400000     EndDisplay.obj
 0000:00000000       _volmd                     00400000     EndDisplay.obj
 0000:00000000       _volmd                     00400000     EndDisplay.obj
 0000:00000000       _volmd                     00400000     EndDisplay.obj
 0000:00000000       _volmd                     00400000     EndDisplay.obj
 0000:00000000       _volmd                     00400000     EndDisplay.obj
 0000:00000000       _volmd                     00400000     EndDisplay.obj
 0000:00000000       _volmd                     00400000     EndDisplay.obj
 0000:00000000       _volmd                     00400000     EndDisplay.obj
 0000:00000000       _volmd                     00400000     EndDisplay.obj
 0000:00000000       _volmd                     00400000     EndDisplay.obj
 0000:00000000       _volmd                     00400000     EndDisplay.obj
 0000:00000000       _volmd                     00400000     EndDisplay.obj
 0000:00000000       _volmd                     00400000     EndDisplay.obj
 0000:00000000       _volmd                     00400000     EndDisplay.obj
 0000:00000000       _volmd                     00400000     EndDisplay.obj
 0000:00000000       _volmd                     00400000     EndDisplay.obj
 0000:00000000       _volmd                     00400000     EndDisplay.obj
 0000:00000000       _volmd                     00400000     EndDisplay.obj
 0000:00000000       _volmd                     00400000     EndDisplay.obj
 0000:00000000       _volmd                     00400000     EndDisplay.obj
 0000:00000000       _volmd                     00400000     EndDisplay.obj
 0000:00000000       _volmd                     00400000     EndDisplay.obj
 0000:00000000       _volmd                     00400000     EndDisplay.obj
 0000:00000000       _volmd                     00400000     EndDisplay.obj
 0000:00000000       _volmd                     00400000     EndDisplay.obj
 0000:00000000       _volmd                     00400000     EndDisplay.obj
 0000:00000000       _volmd                     00400000     EndDisplay.obj
 0000:00000000       _volmd                     00400000     EndDisplay.obj
 0000:00000000       _volmd                     00400000     EndDisplay.obj
 0000:00000000       _volmd                     00400000     EndDisplay.obj
 0000:00000000       _volmd                     00400000     EndDisplay.obj
 0002:fff9a000       __catchsym$??$?6U?$char_traits@D@std@@@std@@YAAAV?$basic_ostream@DU?$char_traits@D@std@@@0@AAV10@PBD@Z$3 00400000     Fireball.obj
 0002:fff9a000       __catchsym$??$_Insert_string@DU?$char_traits@D@std@@I@std@@YAAAV?$basic_ostream@DU?$char_traits@D@std@@@0@AAV10@QBDI@Z$3 00400000     Fireball.obj
 0002:fff9a000       __ehfuncinfo$??$_Deallocate@$07@std@@YAXPAXI@Z 00400000     Fireball.obj
 0002:fff9a000       __ehfuncinfo$??$_Deallocate_plain@V?$allocator@U_Container_proxy@std@@@std@@@std@@YAXAAV?$allocator@U_Container_proxy@std@@@0@QAU_Container_proxy@0@@Z 00400000     Fireball.obj
 0002:fff9a000       __ehfuncinfo$??$_Freenode0@V?$allocator@U?$_Tree_node@U?$pair@$$CBV?$basic_string@DU?$char_traits@D@std@@V?$allocator@D@2@@std@@V?$weak_ptr@VRawImageData@@@2@@std@@PAX@std@@@std@@@?$_Tree_node@U?$pair@$$CBV?$basic_string@DU?$char_traits@D@std@@V?$allocator@D@2@@std@@V?$weak_ptr@VRawImageData@@@2@@std@@PAX@std@@SAXAAV?$allocator@U?$_Tree_node@U?$pair@$$CBV?$basic_string@DU?$char_traits@D@std@@V?$allocator@D@2@@std@@V?$weak_ptr@VRawImageData@@@2@@std@@PAX@std@@@1@PAU01@@Z 00400000     Fireball.obj
 0002:fff9a000       __ehfuncinfo$??$_Freenode@V?$allocator@U?$_Tree_node@U?$pair@$$CBV?$basic_string@DU?$char_traits@D@std@@V?$allocator@D@2@@std@@V?$weak_ptr@VRawImageData@@@2@@std@@PAX@std@@@std@@@?$_Tree_node@U?$pair@$$CBV?$basic_string@DU?$char_traits@D@std@@V?$allocator@D@2@@std@@V?$weak_ptr@VRawImageData@@@2@@std@@PAX@std@@SAXAAV?$allocator@U?$_Tree_node@U?$pair@$$CBV?$basic_string@DU?$char_traits@D@std@@V?$allocator@D@2@@std@@V?$weak_ptr@VRawImageData@@@2@@std@@PAX@std@@@1@PAU01@@Z 00400000     Fireball.obj
 0002:fff9a000       __ehfuncinfo$??0?$basic_string@DU?$char_traits@D@std@@V?$allocator@D@2@@std@@QAE@$$QAV01@@Z 00400000     Fireball.obj
 0002:fff9a000       __ehfuncinfo$??1?$_Alloc_construct_ptr@V?$allocator@U?$_Tree_node@U?$pair@$$CBV?$basic_string@DU?$char_traits@D@std@@V?$allocator@D@2@@std@@V?$shared_ptr@VRawImageData@@@2@@std@@PAX@std@@@std@@@std@@QAE@XZ 00400000     Fireball.obj
 0002:fff9a000       __ehfuncinfo$??1?$_Alloc_construct_ptr@V?$allocator@U?$_Tree_node@U?$pair@$$CBV?$basic_string@DU?$char_traits@D@std@@V?$allocator@D@2@@std@@V?$weak_ptr@VRawImageData@@@2@@std@@PAX@std@@@std@@@std@@QAE@XZ 00400000     Fireball.obj
 0002:fff9a000       __ehfuncinfo$??1?$_Tree_temp_node@V?$allocator@U?$_Tree_node@U?$pair@$$CBV?$basic_string@DU?$char_traits@D@std@@V?$allocator@D@2@@std@@V?$shared_ptr@VRawImageData@@@2@@std@@PAX@std@@@std@@@std@@QAE@XZ 00400000     Fireball.obj
 0002:fff9a000       __ehfuncinfo$??1?$_Tree_temp_node@V?$allocator@U?$_Tree_node@U?$pair@$$CBV?$basic_string@DU?$char_traits@D@std@@V?$allocator@D@2@@std@@V?$weak_ptr@VRawImageData@@@2@@std@@PAX@std@@@std@@@std@@QAE@XZ 00400000     Fireball.obj
 0002:fff9a000       __ehfuncinfo$??1RawImageData@@QAE@XZ 00400000     Fireball.obj
 0002:fff9a000       __ehfuncinfo$??1_Sentry_base@?$basic_ostream@DU?$char_traits@D@std@@@std@@QAE@XZ 00400000     Fireball.obj
 0002:fff9a000       __ehfuncinfo$?_Deallocate_for_capacity@?$basic_string@DU?$char_traits@D@std@@V?$allocator@D@2@@std@@CAXAAV?$allocator@D@2@QADI@Z 00400000     Fireball.obj
 0002:fff9a000       __ehfuncinfo$?getImagePtrbyURL@ImageManager@@QAE?AV?$shared_ptr@VRawImageData@@@std@@V?$basic_string@DU?$char_traits@D@std@@V?$allocator@D@2@@3@_N1@Z 00400000     Fireball.obj
 0001:fffff000       __ehhandler$??$_Deallocate@$07@std@@YAXPAXI@Z 00400000 f   Fireball.obj
 0001:fffff000       __ehhandler$??$_Deallocate_plain@V?$allocator@U_Container_proxy@std@@@std@@@std@@YAXAAV?$allocator@U_Container_proxy@std@@@0@QAU_Container_proxy@0@@Z 00400000 f   Fireball.obj
 0001:fffff000       __ehhandler$??$_Freenode0@V?$allocator@U?$_Tree_node@U?$pair@$$CBV?$basic_string@DU?$char_traits@D@std@@V?$allocator@D@2@@std@@V?$weak_ptr@VRawImageData@@@2@@std@@PAX@std@@@std@@@?$_Tree_node@U?$pair@$$CBV?$basic_string@DU?$char_traits@D@std@@V?$allocator@D@2@@std@@V?$weak_ptr@VRawImageData@@@2@@std@@PAX@std@@SAXAAV?$allocator@U?$_Tree_node@U?$pair@$$CBV?$basic_string@DU?$char_traits@D@std@@V?$allocator@D@2@@std@@V?$weak_ptr@VRawImageData@@@2@@std@@PAX@std@@@1@PAU01@@Z 00400000 f   Fireball.obj
 0001:fffff000       __ehhandler$??$_Freenode@V?$allocator@U?$_Tree_node@U?$pair@$$CBV?$basic_string@DU?$char_traits@D@std@@V?$allocator@D@2@@std@@V?$weak_ptr@VRawImageData@@@2@@std@@PAX@std@@@std@@@?$_Tree_node@U?$pair@$$CBV?$basic_string@DU?$char_traits@D@std@@V?$allocator@D@2@@std@@V?$weak_ptr@VRawImageData@@@2@@std@@PAX@std@@SAXAAV?$allocator@U?$_Tree_node@U?$pair@$$CBV?$basic_string@DU?$char_traits@D@std@@V?$allocator@D@2@@std@@V?$weak_ptr@VRawImageData@@@2@@std@@PAX@std@@@1@PAU01@@Z 00400000 f   Fireball.obj
 0001:fffff000       __ehhandler$??0?$basic_string@DU?$char_traits@D@std@@V?$allocator@D@2@@std@@QAE@$$QAV01@@Z 00400000 f   Fireball.obj
 0001:fffff000       __ehhandler$??1?$_Alloc_construct_ptr@V?$allocator@U?$_Tree_node@U?$pair@$$CBV?$basic_string@DU?$char_traits@D@std@@V?$allocator@D@2@@std@@V?$shared_ptr@VRawImageData@@@2@@std@@PAX@std@@@std@@@std@@QAE@XZ 00400000 f   Fireball.obj
 0001:fffff000       __ehhandler$??1?$_Alloc_construct_ptr@V?$allocator@U?$_Tree_node@U?$pair@$$CBV?$basic_string@DU?$char_traits@D@std@@V?$allocator@D@2@@std@@V?$weak_ptr@VRawImageData@@@2@@std@@PAX@std@@@std@@@std@@QAE@XZ 00400000 f   Fireball.obj
 0001:fffff000       __ehhandler$??1?$_Tree_temp_node@V?$allocator@U?$_Tree_node@U?$pair@$$CBV?$basic_string@DU?$char_traits@D@std@@V?$allocator@D@2@@std@@V?$shared_ptr@VRawImageData@@@2@@std@@PAX@std@@@std@@@std@@QAE@XZ 00400000 f   Fireball.obj
 0001:fffff000       __ehhandler$??1?$_Tree_temp_node@V?$allocator@U?$_Tree_node@U?$pair@$$CBV?$basic_string@DU?$char_traits@D@std@@V?$allocator@D@2@@std@@V?$weak_ptr@VRawImageData@@@2@@std@@PAX@std@@@std@@@std@@QAE@XZ 00400000 f   Fireball.obj
 0001:fffff000       __ehhandler$??1RawImageData@@QAE@XZ 00400000 f   Fireball.obj
 0001:fffff000       __ehhandler$??1_Sentry_base@?$basic_ostream@DU?$char_traits@D@std@@@std@@QAE@XZ 00400000 f   Fireball.obj
 0001:fffff000       __ehhandler$?_Deallocate_for_capacity@?$basic_string@DU?$char_traits@D@std@@V?$allocator@D@2@@std@@CAXAAV?$allocator@D@2@QADI@Z 00400000 f   Fireball.obj
 0001:fffff000       __unwindfunclet$??$?0U?$pair@V?$basic_string@DU?$char_traits@D@std@@V?$allocator@D@2@@std@@V?$shared_ptr@VRawImageData@@@2@@std@@@?$_Tree_temp_node@V?$allocator@U?$_Tree_node@U?$pair@$$CBV?$basic_string@DU?$char_traits@D@std@@V?$allocator@D@2@@std@@V?$shared_ptr@VRawImageData@@@2@@std@@PAX@std@@@std@@@std@@QAE@AAV?$allocator@U?$_Tree_node@U?$pair@$$CBV?$basic_string@DU?$char_traits@D@std@@V?$allocator@D@2@@std@@V?$shared_ptr@VRawImageData@@@2@@std@@PAX@std@@@1@PAU?$_Tree_node@U?$pair@$$CBV?$basic_string@DU?$char_traits@D@std@@V?$allocator@D@2@@std@@V?$shared_ptr@VRawImageData@@@2@@std@@PAX@1@$$QAU?$pair@V?$basic_string@DU?$char_traits@D@std@@V?$allocator@D@2@@std@@V?$shared_ptr@VRawImageData@@@2@@1@@Z$0 00400000 f   Fireball.obj
 0001:fffff000       __unwindfunclet$??$?0U?$pair@V?$basic_string@DU?$char_traits@D@std@@V?$allocator@D@2@@std@@V?$weak_ptr@VRawImageData@@@2@@std@@@?$_Tree_temp_node@V?$allocator@U?$_Tree_node@U?$pair@$$CBV?$basic_string@DU?$char_traits@D@std@@V?$allocator@D@2@@std@@V?$weak_ptr@VRawImageData@@@2@@std@@PAX@std@@@std@@@std@@QAE@AAV?$allocator@U?$_Tree_node@U?$pair@$$CBV?$basic_string@DU?$char_traits@D@std@@V?$allocator@D@2@@std@@V?$weak_ptr@VRawImageData@@@2@@std@@PAX@std@@@1@PAU?$_Tree_node@U?$pair@$$CBV?$basic_string@DU?$char_traits@D@std@@V?$allocator@D@2@@std@@V?$weak_ptr@VRawImageData@@@2@@std@@PAX@1@$$QAU?$pair@V?$basic_string@DU?$char_traits@D@std@@V?$allocator@D@2@@std@@V?$weak_ptr@VRawImageData@@@2@@1@@Z$0 00400000 f   Fireball.obj
 0001:fffff000       __unwindfunclet$??$?0VRawImageData@@$0A@@?$shared_ptr@VRawImageData@@@std@@QAE@PAVRawImageData@@@Z$0 00400000 f   Fireball.obj
 0001:fffff000       __unwindfunclet$??$?6U?$char_traits@D@std@@@std@@YAAAV?$basic_ostream@DU?$char_traits@D@std@@@0@AAV10@PBD@Z$2 00400000 f   Fireball.obj
 0001:fffff000       __unwindfunclet$??$_Construct@$00PBD@?$basic_string@DU?$char_traits@D@std@@V?$allocator@D@2@@std@@AAEXQBDI@Z$0 00400000 f   Fireball.obj
 0001:fffff000       __unwindfunclet$??$_Construct@$01PBD@?$basic_string@DU?$char_traits@D@std@@V?$allocator@D@2@@std@@AAEXQBDI@Z$0 00400000 f   Fireball.obj
 0001:fffff000       __unwindfunclet$??$_Insert_string@DU?$char_traits@D@std@@I@std@@YAAAV?$basic_ostream@DU?$char_traits@D@std@@@0@AAV10@QBDI@Z$2 00400000 f   Fireball.obj
 0001:fffff000       __unwindfunclet$??0?$_Tree_temp_node_alloc@V?$allocator@U?$_Tree_node@U?$pair@$$CBV?$basic_string@DU?$char_traits@D@std@@V?$allocator@D@2@@std@@V?$shared_ptr@VRawImageData@@@2@@std@@PAX@std@@@std@@@std@@QAE@AAV?$allocator@U?$_Tree_node@U?$pair@$$CBV?$basic_string@DU?$char_traits@D@std@@V?$allocator@D@2@@std@@V?$shared_ptr@VRawImageData@@@2@@std@@PAX@std@@@1@@Z$0 00400000 f   Fireball.obj
 0001:fffff000       __unwindfunclet$??0?$_Tree_temp_node_alloc@V?$allocator@U?$_Tree_node@U?$pair@$$CBV?$basic_string@DU?$char_traits@D@std@@V?$allocator@D@2@@std@@V?$weak_ptr@VRawImageData@@@2@@std@@PAX@std@@@std@@@std@@QAE@AAV?$allocator@U?$_Tree_node@U?$pair@$$CBV?$basic_string@DU?$char_traits@D@std@@V?$allocator@D@2@@std@@V?$weak_ptr@VRawImageData@@@2@@std@@PAX@std@@@1@@Z$0 00400000 f   Fireball.obj
 0001:fffff000       __unwindfunclet$??0?$basic_string@DU?$char_traits@D@std@@V?$allocator@D@2@@std@@QAE@ABV01@@Z$0 00400000 f   Fireball.obj
 0001:fffff000       __unwindfunclet$??0?$basic_string@DU?$char_traits@D@std@@V?$allocator@D@2@@std@@QAE@QBD@Z$0 00400000 f   Fireball.obj
 0001:fffff000       __unwindfunclet$??0ImageManager@@QAE@XZ$0 00400000 f   Fireball.obj
 0001:fffff000       __unwindfunclet$??0RawImageData@@QAE@V?$basic_string@DU?$char_traits@D@std@@V?$allocator@D@2@@std@@@Z$0 00400000 f   Fireball.obj
 0001:fffff000       __unwindfunclet$??0sentry@?$basic_ostream@DU?$char_traits@D@std@@@std@@QAE@AAV12@@Z$0 00400000 f   Fireball.obj
 0001:fffff000       __unwindfunclet$?_Alloc_sentinel_and_proxy@?$_Tree@V?$_Tmap_traits@V?$basic_string@DU?$char_traits@D@std@@V?$allocator@D@2@@std@@V?$shared_ptr@VRawImageData@@@2@U?$less@V?$basic_string@DU?$char_traits@D@std@@V?$allocator@D@2@@std@@@2@V?$allocator@U?$pair@$$CBV?$basic_string@DU?$char_traits@D@std@@V?$allocator@D@2@@std@@V?$shared_ptr@VRawImageData@@@2@@std@@@2@$0A@@std@@@std@@IAEXXZ$0 00400000 f   Fireball.obj
 0001:fffff000       __unwindfunclet$?_Alloc_sentinel_and_proxy@?$_Tree@V?$_Tmap_traits@V?$basic_string@DU?$char_traits@D@std@@V?$allocator@D@2@@std@@V?$weak_ptr@VRawImageData@@@2@U?$less@V?$basic_string@DU?$char_traits@D@std@@V?$allocator@D@2@@std@@@2@V?$allocator@U?$pair@$$CBV?$basic_string@DU?$char_traits@D@std@@V?$allocator@D@2@@std@@V?$weak_ptr@VRawImageData@@@2@@std@@@2@$0A@@std@@@std@@IAEXXZ$0 00400000 f   Fireball.obj
 0001:fffff000       __unwindfunclet$?get@ImageManager@@SAPAV1@XZ$0 00400000 f   Fireball.obj
 0001:fffff000       __unwindfunclet$?getImagePtrbyURL@ImageManager@@QAE?AV?$shared_ptr@VRawImageData@@@std@@V?$basic_string@DU?$char_traits@D@std@@V?$allocator@D@2@@3@_N1@Z$0 00400000 f   Fireball.obj
 0001:fffff000       __unwindfunclet$?getImagebyURL@ImageManager@@QAE?AVSimpleImage@@V?$basic_string@DU?$char_traits@D@std@@V?$allocator@D@2@@std@@_N1@Z$0 00400000 f   Fireball.obj
 0001:fffff000       __unwindfunclet$?loadAsNew@ImageManager@@QAE?AV?$shared_ptr@VRawImageData@@@std@@V?$basic_string@DU?$char_traits@D@std@@V?$allocator@D@2@@3@@Z$0 00400000 f   Fireball.obj
 0001:fffff000       __unwindfunclet$?loadImage@ImageManager@@SA?AVSimpleImage@@V?$basic_string@DU?$char_traits@D@std@@V?$allocator@D@2@@std@@_N@Z$0 00400000 f   Fireball.obj
 0001:fffff000       __unwindfunclet$?loadImage@RawImageData@@QAE_NV?$basic_string@DU?$char_traits@D@std@@V?$allocator@D@2@@std@@HHHHH_N@Z$0 00400000 f   Fireball.obj
 0002:fff9a000       __unwindtable$??$?0U?$pair@V?$basic_string@DU?$char_traits@D@std@@V?$allocator@D@2@@std@@V?$shared_ptr@VRawImageData@@@2@@std@@@?$_Tree_temp_node@V?$allocator@U?$_Tree_node@U?$pair@$$CBV?$basic_string@DU?$char_traits@D@std@@V?$allocator@D@2@@std@@V?$shared_ptr@VRawImageData@@@2@@std@@PAX@std@@@std@@@std@@QAE@AAV?$allocator@U?$_Tree_node@U?$pair@$$CBV?$basic_string@DU?$char_traits@D@std@@V?$allocator@D@2@@std@@V?$shared_ptr@VRawImageData@@@2@@std@@PAX@std@@@1@PAU?$_Tree_node@U?$pair@$$CBV?$basic_string@DU?$char_traits@D@std@@V?$allocator@D@2@@std@@V?$shared_ptr@VRawImageData@@@2@@std@@PAX@1@$$QAU?$pair@V?$basic_string@DU?$char_traits@D@std@@V?$allocator@D@2@@std@@V?$shared_ptr@VRawImageData@@@2@@1@@Z 00400000     Fireball.obj
 0002:fff9a000       __unwindtable$??$?0U?$pair@V?$basic_string@DU?$char_traits@D@std@@V?$allocator@D@2@@std@@V?$weak_ptr@VRawImageData@@@2@@std@@@?$_Tree_temp_node@V?$allocator@U?$_Tree_node@U?$pair@$$CBV?$basic_string@DU?$char_traits@D@std@@V?$allocator@D@2@@std@@V?$weak_ptr@VRawImageData@@@2@@std@@PAX@std@@@std@@@std@@QAE@AAV?$allocator@U?$_Tree_node@U?$pair@$$CBV?$basic_string@DU?$char_traits@D@std@@V?$allocator@D@2@@std@@V?$weak_ptr@VRawImageData@@@2@@std@@PAX@std@@@1@PAU?$_Tree_node@U?$pair@$$CBV?$basic_string@DU?$char_traits@D@std@@V?$allocator@D@2@@std@@V?$weak_ptr@VRawImageData@@@2@@std@@PAX@1@$$QAU?$pair@V?$basic_string@DU?$char_traits@D@std@@V?$allocator@D@2@@std@@V?$weak_ptr@VRawImageData@@@2@@1@@Z 00400000     Fireball.obj
 0002:fff9a000       __unwindtable$??$?0VRawImageData@@$0A@@?$shared_ptr@VRawImageData@@@std@@QAE@PAVRawImageData@@@Z 00400000     Fireball.obj
 0002:fff9a000       __unwindtable$??$_Construct@$00PBD@?$basic_string@DU?$char_traits@D@std@@V?$allocator@D@2@@std@@AAEXQBDI@Z 00400000     Fireball.obj
 0002:fff9a000       __unwindtable$??$_Construct@$01PBD@?$basic_string@DU?$char_traits@D@std@@V?$allocator@D@2@@std@@AAEXQBDI@Z 00400000     Fireball.obj
 0002:fff9a000       __unwindtable$??0?$_Tree_temp_node_alloc@V?$allocator@U?$_Tree_node@U?$pair@$$CBV?$basic_string@DU?$char_traits@D@std@@V?$allocator@D@2@@std@@V?$shared_ptr@VRawImageData@@@2@@std@@PAX@std@@@std@@@std@@QAE@AAV?$allocator@U?$_Tree_node@U?$pair@$$CBV?$basic_string@DU?$char_traits@D@std@@V?$allocator@D@2@@std@@V?$shared_ptr@VRawImageData@@@2@@std@@PAX@std@@@1@@Z 00400000     Fireball.obj
 0002:fff9a000       __unwindtable$??0?$_Tree_temp_node_alloc@V?$allocator@U?$_Tree_node@U?$pair@$$CBV?$basic_string@DU?$char_traits@D@std@@V?$allocator@D@2@@std@@V?$weak_ptr@VRawImageData@@@2@@std@@PAX@std@@@std@@@std@@QAE@AAV?$allocator@U?$_Tree_node@U?$pair@$$CBV?$basic_string@DU?$char_traits@D@std@@V?$allocator@D@2@@std@@V?$weak_ptr@VRawImageData@@@2@@std@@PAX@std@@@1@@Z 00400000     Fireball.obj
 0002:fff9a000       __unwindtable$??0?$basic_string@DU?$char_traits@D@std@@V?$allocator@D@2@@std@@QAE@ABV01@@Z 00400000     Fireball.obj
 0002:fff9a000       __unwindtable$??0?$basic_string@DU?$char_traits@D@std@@V?$allocator@D@2@@std@@QAE@QBD@Z 00400000     Fireball.obj
 0002:fff9a000       __unwindtable$??0ImageManager@@QAE@XZ 00400000     Fireball.obj
 0002:fff9a000       __unwindtable$??0RawImageData@@QAE@V?$basic_string@DU?$char_traits@D@std@@V?$allocator@D@2@@std@@@Z 00400000     Fireball.obj
 0002:fff9a000       __unwindtable$??0sentry@?$basic_ostream@DU?$char_traits@D@std@@@std@@QAE@AAV12@@Z 00400000     Fireball.obj
 0002:fff9a000       __unwindtable$?_Alloc_sentinel_and_proxy@?$_Tree@V?$_Tmap_traits@V?$basic_string@DU?$char_traits@D@std@@V?$allocator@D@2@@std@@V?$shared_ptr@VRawImageData@@@2@U?$less@V?$basic_string@DU?$char_traits@D@std@@V?$allocator@D@2@@std@@@2@V?$allocator@U?$pair@$$CBV?$basic_string@DU?$char_traits@D@std@@V?$allocator@D@2@@std@@V?$shared_ptr@VRawImageData@@@2@@std@@@2@$0A@@std@@@std@@IAEXXZ 00400000     Fireball.obj
 0002:fff9a000       __unwindtable$?_Alloc_sentinel_and_proxy@?$_Tree@V?$_Tmap_traits@V?$basic_string@DU?$char_traits@D@std@@V?$allocator@D@2@@std@@V?$weak_ptr@VRawImageData@@@2@U?$less@V?$basic_string@DU?$char_traits@D@std@@V?$allocator@D@2@@std@@@2@V?$allocator@U?$pair@$$CBV?$basic_string@DU?$char_traits@D@std@@V?$allocator@D@2@@std@@V?$weak_ptr@VRawImageData@@@2@@std@@@2@$0A@@std@@@std@@IAEXXZ 00400000     Fireball.obj
 0002:fff9a000       __unwindtable$?get@ImageManager@@SAPAV1@XZ 00400000     Fireball.obj
 0002:fff9a000       __unwindtable$?getImagebyURL@ImageManager@@QAE?AVSimpleImage@@V?$basic_string@DU?$char_traits@D@std@@V?$allocator@D@2@@std@@_N1@Z 00400000     Fireball.obj
 0002:fff9a000       __unwindtable$?loadAsNew@ImageManager@@QAE?AV?$shared_ptr@VRawImageData@@@std@@V?$basic_string@DU?$char_traits@D@std@@V?$allocator@D@2@@3@@Z 00400000     Fireball.obj
 0002:fff9a000       __unwindtable$?loadImage@ImageManager@@SA?AVSimpleImage@@V?$basic_string@DU?$char_traits@D@std@@V?$allocator@D@2@@std@@_N@Z 00400000     Fireball.obj
 0002:fff9a000       __unwindtable$?loadImage@RawImageData@@QAE_NV?$basic_string@DU?$char_traits@D@std@@V?$allocator@D@2@@std@@HHHHH_N@Z 00400000     Fireball.obj
 0000:00000000       _volmd                     00400000     Fireball.obj
 0000:00000000       _volmd                     00400000     Fireball.obj
 0000:00000000       _volmd                     00400000     Fireball.obj
 0000:00000000       _volmd                     00400000     Fireball.obj
 0000:00000000       _volmd                     00400000     Fireball.obj
 0000:00000000       _volmd                     00400000     Fireball.obj
 0000:00000000       _volmd                     00400000     Fireball.obj
 0000:00000000       _volmd                     00400000     Fireball.obj
 0000:00000000       _volmd                     00400000     Fireball.obj
 0000:00000000       _volmd                     00400000     Fireball.obj
 0000:00000000       _volmd                     00400000     Fireball.obj
 0000:00000000       _volmd                     00400000     Fireball.obj
 0000:00000000       _volmd                     00400000     Fireball.obj
 0000:00000000       _volmd                     00400000     Fireball.obj
 0000:00000000       _volmd                     00400000     Fireball.obj
 0000:00000000       _volmd                     00400000     Fireball.obj
 0000:00000000       _volmd                     00400000     Fireball.obj
 0000:00000000       _volmd                     00400000     Fireball.obj
 0000:00000000       _volmd                     00400000     Fireball.obj
 0000:00000000       _volmd                     00400000     Fireball.obj
 0000:00000000       _volmd                     00400000     Fireball.obj
 0000:00000000       _volmd                     00400000     Fireball.obj
 0000:00000000       _volmd                     00400000     Fireball.obj
 0000:00000000       _volmd                     00400000     Fireball.obj
 0000:00000000       _volmd                     00400000     Fireball.obj
 0000:00000000       _volmd                     00400000     Fireball.obj
 0000:00000000       _volmd                     00400000     Fireball.obj
 0000:00000000       _volmd                     00400000     Fireball.obj
 0000:00000000       _volmd                     00400000     Fireball.obj
 0000:00000000       _volmd                     00400000     Fireball.obj
 0000:00000000       _volmd                     00400000     Fireball.obj
 0000:00000000       _volmd                     00400000     Fireball.obj
 0000:00000000       _volmd                     00400000     Fireball.obj
 0000:00000000       _volmd                     00400000     Fireball.obj
 0000:00000000       _volmd                     00400000     Fireball.obj
 0000:00000000       _volmd                     00400000     Fireball.obj
 0000:00000000       _volmd                     00400000     Fireball.obj
 0002:fff9a000       __catchsym$??$?6U?$char_traits@D@std@@@std@@YAAAV?$basic_ostream@DU?$char_traits@D@std@@@0@AAV10@PBD@Z$3 00400000     FlashingDemo.obj
 0002:fff9a000       __ehfuncinfo$??1_Sentry_base@?$basic_ostream@DU?$char_traits@D@std@@@std@@QAE@XZ 00400000     FlashingDemo.obj
 0001:fffff000       __ehhandler$??1_Sentry_base@?$basic_ostream@DU?$char_traits@D@std@@@std@@QAE@XZ 00400000 f   FlashingDemo.obj
 0001:fffff000       __unwindfunclet$??$?6U?$char_traits@D@std@@@std@@YAAAV?$basic_ostream@DU?$char_traits@D@std@@@0@AAV10@PBD@Z$2 00400000 f   FlashingDemo.obj
 0001:fffff000       __unwindfunclet$??0sentry@?$basic_ostream@DU?$char_traits@D@std@@@std@@QAE@AAV12@@Z$0 00400000 f   FlashingDemo.obj
 0002:fff9a000       __unwindtable$??0sentry@?$basic_ostream@DU?$char_traits@D@std@@@std@@QAE@AAV12@@Z 00400000     FlashingDemo.obj
 0000:00000000       _volmd                     00400000     FlashingDemo.obj
 0000:00000000       _volmd                     00400000     FlashingDemo.obj
 0000:00000000       _volmd                     00400000     FlashingDemo.obj
 0000:00000000       _volmd                     00400000     FlashingDemo.obj
 0000:00000000       _volmd                     00400000     FlashingDemo.obj
 0000:00000000       _volmd                     00400000     FontManager.obj
 0002:fff9a000       __catchsym$??$?6U?$char_traits@D@std@@@std@@YAAAV?$basic_ostream@DU?$char_traits@D@std@@@0@AAV10@PBD@Z$3 00400000     GameEngine.obj
